
boggle.elf:     file format elf32-tradlittlemips


Disassembly of section .text:

7f008000 <_start>:
7f008000:	27bdffe8 	addiu	sp,sp,-24
7f008004:	afbf0014 	sw	ra,20(sp)
7f008008:	3c1c7f01 	lui	gp,0x7f01
7f00800c:	279c6830 	addiu	gp,gp,26672
7f008010:	1880000e 	blez	a0,7f00804c <_start+0x4c>
7f008014:	af86807c 	sw	a2,-32644(gp)
7f008018:	8ca20000 	lw	v0,0(a1)
7f00801c:	1040000b 	beqz	v0,7f00804c <_start+0x4c>
7f008020:	00000000 	nop
7f008024:	af828008 	sw	v0,-32760(gp)
7f008028:	80430000 	lb	v1,0(v0)
7f00802c:	10600007 	beqz	v1,7f00804c <_start+0x4c>
7f008030:	24420001 	addiu	v0,v0,1
7f008034:	2407002f 	li	a3,47
7f008038:	50670001 	beql	v1,a3,7f008040 <_start+0x40>
7f00803c:	af828008 	sw	v0,-32760(gp)
7f008040:	80430000 	lb	v1,0(v0)
7f008044:	1460fffc 	bnez	v1,7f008038 <_start+0x38>
7f008048:	24420001 	addiu	v0,v0,1
7f00804c:	77c023e5 	jalx	7f008f94 <main>
7f008050:	00000000 	nop
7f008054:	77c026d8 	jalx	7f009b60 <exit>
7f008058:	00402021 	move	a0,v0

7f00805c <aputuword>:
7f00805c:	675c      	move	v0,gp
7f00805e:	f0b0 9a54 	lw	v0,-32588(v0)
7f008062:	4aff      	addiu	v0,-1
7f008064:	3248      	sll	v0,2
7f008066:	b306      	lw	v1,7f00807c <aputuword+0x20>
7f008068:	e349      	addu	v0,v1,v0
7f00806a:	9a40      	lw	v0,0(v0)
7f00806c:	540a      	slti	a0,10
7f00806e:	6b2a      	li	v1,42
7f008070:	6003      	bteqz	7f008078 <aputuword+0x1c>
7f008072:	4c30      	addiu	a0,48
7f008074:	6764      	move	v1,a0
7f008076:	eb91      	seb	v1
7f008078:	e820      	jr	ra
7f00807a:	c260      	sb	v1,0(v0)
7f00807c:	20cc      	beqz	s0,7f008016 <_start+0x16>
7f00807e:	7f01      	sd	s0,8(a3)

7f008080 <aputword>:
7f008080:	677c      	move	v1,gp
7f008082:	f0b0 9b48 	lw	v0,-32600(v1)
7f008086:	540a      	slti	a0,10
7f008088:	6d2a      	li	a1,42
7f00808a:	6003      	bteqz	7f008092 <aputword+0x12>
7f00808c:	4c30      	addiu	a0,48
7f00808e:	67a4      	move	a1,a0
7f008090:	ed91      	seb	a1
7f008092:	c2a0      	sb	a1,0(v0)
7f008094:	4a01      	addiu	v0,1
7f008096:	f0b0 db48 	sw	v0,-32600(v1)
7f00809a:	f090 9b44 	lw	v0,-32636(v1)
7f00809e:	5201      	slti	v0,1
7f0080a0:	610f      	btnez	7f0080c0 <aputword+0x40>
7f0080a2:	6c01      	li	a0,1
7f0080a4:	f0b0 9ba8 	lw	a1,-32600(v1)
7f0080a8:	b20c      	lw	v0,7f0080d8 <aputword+0x58>
7f0080aa:	e449      	addu	v0,a0,v0
7f0080ac:	a240      	lbu	v0,0(v0)
7f0080ae:	c540      	sb	v0,0(a1)
7f0080b0:	4d01      	addiu	a1,1
7f0080b2:	f0b0 dba8 	sw	a1,-32600(v1)
7f0080b6:	4c01      	addiu	a0,1
7f0080b8:	f090 9b44 	lw	v0,-32636(v1)
7f0080bc:	ea82      	slt	v0,a0
7f0080be:	60f2      	bteqz	7f0080a4 <aputword+0x24>
7f0080c0:	f0b0 9b54 	lw	v0,-32588(v1)
7f0080c4:	4a01      	addiu	v0,1
7f0080c6:	f0b0 db54 	sw	v0,-32588(v1)
7f0080ca:	3248      	sll	v0,2
7f0080cc:	b404      	lw	a0,7f0080dc <aputword+0x5c>
7f0080ce:	e451      	addu	a0,v0
7f0080d0:	f0b0 9b48 	lw	v0,-32600(v1)
7f0080d4:	e820      	jr	ra
7f0080d6:	dc40      	sw	v0,0(a0)
7f0080d8:	1f54 7f01 	jalx	7a69fc04 <_start-0x49683fc>
7f0080dc:	20cc      	beqz	s0,7f008076 <aputuword+0x1a>
7f0080de:	7f01      	sd	s0,8(a3)

7f0080e0 <getuword>:
7f0080e0:	64f5      	save	40,ra,s0-s1
7f0080e2:	671c      	move	s0,gp
7f0080e4:	6a00      	li	v0,0
7f0080e6:	f0b0 d844 	sw	v0,-32604(s0)
7f0080ea:	f0b0 9878 	lw	v1,-32584(s0)
7f0080ee:	9b60      	lw	v1,0(v1)
7f0080f0:	5301      	slti	v1,1
7f0080f2:	6117      	btnez	7f008122 <getuword+0x42>
7f0080f4:	b342      	lw	v1,7f0081fc <getuword+0x11c>
7f0080f6:	9b40      	lw	v0,0(v1)
7f0080f8:	4aff      	addiu	v0,-1
7f0080fa:	db40      	sw	v0,0(v1)
7f0080fc:	5200      	slti	v0,0
7f0080fe:	6105      	btnez	7f00810a <getuword+0x2a>
7f008100:	9b81      	lw	a0,4(v1)
7f008102:	a440      	lbu	v0,0(a0)
7f008104:	4c01      	addiu	a0,1
7f008106:	db81      	sw	a0,4(v1)
7f008108:	1004      	b	7f008112 <getuword+0x32>
7f00810a:	b43d      	lw	a0,7f0081fc <getuword+0x11c>
7f00810c:	181e 26ee 	jal	7f009bb8 <_filbuf>
7f008110:	6500      	nop
7f008112:	b33c      	lw	v1,7f008200 <getuword+0x120>
7f008114:	e34d      	addu	v1,v0
7f008116:	a381      	lbu	a0,1(v1)
7f008118:	6b08      	li	v1,8
7f00811a:	eb8c      	and	v1,a0
7f00811c:	2be6      	bnez	v1,7f0080ea <getuword+0xa>
7f00811e:	4261      	addiu	v1,v0,1
7f008120:	23e4      	beqz	v1,7f0080ea <getuword+0xa>
7f008122:	f0b0 9878 	lw	v1,-32584(s0)
7f008126:	9b80      	lw	a0,0(v1)
7f008128:	6b00      	li	v1,0
7f00812a:	2465      	beqz	a0,7f0081f6 <getuword+0x116>
7f00812c:	f0b0 9894 	lw	a0,-32588(s0)
7f008130:	f0b0 9868 	lw	v1,-32600(s0)
7f008134:	3588      	sll	a1,a0,2
7f008136:	b634      	lw	a2,7f008204 <getuword+0x124>
7f008138:	e6b5      	addu	a1,a2,a1
7f00813a:	dd60      	sw	v1,0(a1)
7f00813c:	4c01      	addiu	a0,1
7f00813e:	f0b0 d894 	sw	a0,-32588(s0)
7f008142:	6c30      	li	a0,48
7f008144:	c380      	sb	a0,0(v1)
7f008146:	4321      	addiu	s1,v1,1
7f008148:	f0b0 d828 	sw	s1,-32600(s0)
7f00814c:	c140      	sb	v0,0(s1)
7f00814e:	4b02      	addiu	v1,2
7f008150:	d304      	sw	v1,16(sp)
7f008152:	1012      	b	7f008178 <getuword+0x98>
7f008154:	4261      	addiu	v1,v0,1
7f008156:	2310      	beqz	v1,7f008178 <getuword+0x98>
7f008158:	6770      	move	v1,s0
7f00815a:	f090 4b14 	addiu	v1,-32620
7f00815e:	8362      	lb	v1,2(v1)
7f008160:	ea6a      	cmp	v0,v1
7f008162:	6106      	btnez	7f008170 <getuword+0x90>
7f008164:	9204      	lw	v0,16(sp)
7f008166:	e943      	sltu	s1,v0
7f008168:	6007      	bteqz	7f008178 <getuword+0x98>
7f00816a:	4aff      	addiu	v0,-1
7f00816c:	d204      	sw	v0,16(sp)
7f00816e:	1004      	b	7f008178 <getuword+0x98>
7f008170:	9304      	lw	v1,16(sp)
7f008172:	c340      	sb	v0,0(v1)
7f008174:	4b01      	addiu	v1,1
7f008176:	d304      	sw	v1,16(sp)
7f008178:	b321      	lw	v1,7f0081fc <getuword+0x11c>
7f00817a:	9b40      	lw	v0,0(v1)
7f00817c:	4aff      	addiu	v0,-1
7f00817e:	db40      	sw	v0,0(v1)
7f008180:	5200      	slti	v0,0
7f008182:	6105      	btnez	7f00818e <getuword+0xae>
7f008184:	9b81      	lw	a0,4(v1)
7f008186:	a440      	lbu	v0,0(a0)
7f008188:	4c01      	addiu	a0,1
7f00818a:	db81      	sw	a0,4(v1)
7f00818c:	1004      	b	7f008196 <getuword+0xb6>
7f00818e:	b41c      	lw	a0,7f0081fc <getuword+0x11c>
7f008190:	181e 26ee 	jal	7f009bb8 <_filbuf>
7f008194:	6500      	nop
7f008196:	b31b      	lw	v1,7f008200 <getuword+0x120>
7f008198:	e34d      	addu	v1,v0
7f00819a:	a381      	lbu	a0,1(v1)
7f00819c:	6b08      	li	v1,8
7f00819e:	eb8c      	and	v1,a0
7f0081a0:	23d9      	beqz	v1,7f008154 <getuword+0x74>
7f0081a2:	9204      	lw	v0,16(sp)
7f0081a4:	f0b0 d848 	sw	v0,-32600(s0)
7f0081a8:	6791      	move	a0,s1
7f0081aa:	b318      	lw	v1,7f008208 <getuword+0x128>
7f0081ac:	1014      	b	7f0081d6 <getuword+0xf6>
7f0081ae:	8140      	lb	v0,0(s1)
7f0081b0:	4901      	addiu	s1,1
7f0081b2:	b514      	lw	a1,7f008200 <getuword+0x120>
7f0081b4:	e555      	addu	a1,v0
7f0081b6:	a5c1      	lbu	a2,1(a1)
7f0081b8:	6d02      	li	a1,2
7f0081ba:	edcc      	and	a1,a2
7f0081bc:	250c      	beqz	a1,7f0081d6 <getuword+0xf6>
7f0081be:	c440      	sb	v0,0(a0)
7f0081c0:	c340      	sb	v0,0(v1)
7f0081c2:	4b01      	addiu	v1,1
7f0081c4:	4c01      	addiu	a0,1
7f0081c6:	7271      	cmpi	v0,113
7f0081c8:	6106      	btnez	7f0081d6 <getuword+0xf6>
7f0081ca:	8140      	lb	v0,0(s1)
7f0081cc:	7275      	cmpi	v0,117
7f0081ce:	6758      	move	v0,t8
7f0081d0:	5a01      	sltiu	v0,1
7f0081d2:	6758      	move	v0,t8
7f0081d4:	e145      	addu	s1,v0
7f0081d6:	f0b0 9848 	lw	v0,-32600(s0)
7f0081da:	e943      	sltu	s1,v0
7f0081dc:	6003      	bteqz	7f0081e4 <getuword+0x104>
7f0081de:	b20c      	lw	v0,7f00820c <getuword+0x12c>
7f0081e0:	eb43      	sltu	v1,v0
7f0081e2:	61e5      	btnez	7f0081ae <getuword+0xce>
7f0081e4:	f0b0 d888 	sw	a0,-32600(s0)
7f0081e8:	6a30      	li	v0,48
7f0081ea:	c440      	sb	v0,0(a0)
7f0081ec:	b207      	lw	v0,7f008208 <getuword+0x128>
7f0081ee:	e34f      	subu	v1,v0
7f0081f0:	f090 d864 	sw	v1,-32636(s0)
7f0081f4:	6b01      	li	v1,1
7f0081f6:	6475      	restore	40,ra,s0-s1
7f0081f8:	e820      	jr	ra
7f0081fa:	6743      	move	v0,v1
7f0081fc:	e618      	daddu	a2,s0
7f0081fe:	7f00      	sd	s0,0(a3)
7f008200:	e514      	daddu	a1,s0
7f008202:	7f00      	sd	s0,0(a3)
7f008204:	20cc      	beqz	s0,7f00819e <getuword+0xbe>
7f008206:	7f01      	sd	s0,8(a3)
7f008208:	1f55 7f01 	jalx	7ae9fc04 <_start-0x41683fc>
7f00820c:	1f64 7f01 	jalx	726dfc04 <_start-0xc9283fc>

7f008210 <getdword>:
7f008210:	64f4      	save	32,ra,s0-s1
7f008212:	671c      	move	s0,gp
7f008214:	f0b0 9864 	lw	v1,-32604(s0)
7f008218:	4381      	addiu	a0,v1,1
7f00821a:	6a00      	li	v0,0
7f00821c:	2428      	beqz	a0,7f00826e <getdword+0x5e>
7f00821e:	b116      	lw	s1,7f008274 <getdword+0x64>
7f008220:	e325      	addu	s1,v1,s1
7f008222:	f0d0 9868 	lw	v1,-32568(s0)
7f008226:	9b40      	lw	v0,0(v1)
7f008228:	4aff      	addiu	v0,-1
7f00822a:	db40      	sw	v0,0(v1)
7f00822c:	5200      	slti	v0,0
7f00822e:	6107      	btnez	7f00823e <getdword+0x2e>
7f008230:	f0d0 9868 	lw	v1,-32568(s0)
7f008234:	9b81      	lw	a0,4(v1)
7f008236:	a440      	lbu	v0,0(a0)
7f008238:	4c01      	addiu	a0,1
7f00823a:	db81      	sw	a0,4(v1)
7f00823c:	1005      	b	7f008248 <getdword+0x38>
7f00823e:	f0d0 9888 	lw	a0,-32568(s0)
7f008242:	181e 26ee 	jal	7f009bb8 <_filbuf>
7f008246:	6500      	nop
7f008248:	6762      	move	v1,v0
7f00824a:	eb91      	seb	v1
7f00824c:	c160      	sb	v1,0(s1)
7f00824e:	4901      	addiu	s1,1
7f008250:	4b01      	addiu	v1,1
7f008252:	2306      	beqz	v1,7f008260 <getdword+0x50>
7f008254:	b309      	lw	v1,7f008278 <getdword+0x68>
7f008256:	e34d      	addu	v1,v0
7f008258:	a381      	lbu	a0,1(v1)
7f00825a:	6b03      	li	v1,3
7f00825c:	eb8c      	and	v1,a0
7f00825e:	2be1      	bnez	v1,7f008222 <getdword+0x12>
7f008260:	f0b0 d844 	sw	v0,-32604(s0)
7f008264:	b206      	lw	v0,7f00827c <getdword+0x6c>
7f008266:	e147      	subu	s1,v0
7f008268:	f090 d824 	sw	s1,-32636(s0)
7f00826c:	6a01      	li	v0,1
7f00826e:	6474      	restore	32,ra,s0-s1
7f008270:	e8a0      	jrc	ra
7f008272:	6500      	nop
7f008274:	1f55 7f01 	jalx	7ae9fc04 <_start-0x41683fc>
7f008278:	e514      	daddu	a1,s0
7f00827a:	7f00      	sd	s0,0(a3)
7f00827c:	1f56 7f01 	jalx	7b69fc04 <_start-0x39683fc>

7f008280 <timeout>:
7f008280:	64e3      	save	24,ra,s0
7f008282:	671c      	move	s0,gp
7f008284:	f0b0 9858 	lw	v0,-32584(s0)
7f008288:	9a40      	lw	v0,0(v0)
7f00828a:	5201      	slti	v0,1
7f00828c:	610d      	btnez	7f0082a8 <timeout+0x28>
7f00828e:	b51a      	lw	a1,7f0082f4 <timeout+0x74>
7f008290:	181e 2a57 	jal	7f00a95c <signal>
7f008294:	6c0e      	li	a0,14
7f008296:	f0b0 9858 	lw	v0,-32584(s0)
7f00829a:	9a80      	lw	a0,0(v0)
7f00829c:	4a04      	addiu	v0,4
7f00829e:	f0b0 d858 	sw	v0,-32584(s0)
7f0082a2:	181e 256d 	jal	7f0095b4 <alarm>
7f0082a6:	6500      	nop
7f0082a8:	b314      	lw	v1,7f0082f8 <timeout+0x78>
7f0082aa:	9b45      	lw	v0,20(v1)
7f0082ac:	4aff      	addiu	v0,-1
7f0082ae:	db45      	sw	v0,20(v1)
7f0082b0:	5200      	slti	v0,0
7f0082b2:	6107      	btnez	7f0082c2 <timeout+0x42>
7f0082b4:	6743      	move	v0,v1
7f0082b6:	9b66      	lw	v1,24(v1)
7f0082b8:	6c07      	li	a0,7
7f0082ba:	c380      	sb	a0,0(v1)
7f0082bc:	4b01      	addiu	v1,1
7f0082be:	da66      	sw	v1,24(v0)
7f0082c0:	1016      	b	7f0082ee <timeout+0x6e>
7f0082c2:	b30e      	lw	v1,7f0082f8 <timeout+0x78>
7f0082c4:	ab92      	lhu	a0,36(v1)
7f0082c6:	6b80      	li	v1,128
7f0082c8:	eb8c      	and	v1,a0
7f0082ca:	230d      	beqz	v1,7f0082e6 <timeout+0x66>
7f0082cc:	ea4b      	neg	v0
7f0082ce:	b30b      	lw	v1,7f0082f8 <timeout+0x78>
7f0082d0:	9b68      	lw	v1,32(v1)
7f0082d2:	ea62      	slt	v0,v1
7f0082d4:	6008      	bteqz	7f0082e6 <timeout+0x66>
7f0082d6:	b309      	lw	v1,7f0082f8 <timeout+0x78>
7f0082d8:	9b46      	lw	v0,24(v1)
7f0082da:	6c07      	li	a0,7
7f0082dc:	c280      	sb	a0,0(v0)
7f0082de:	9b46      	lw	v0,24(v1)
7f0082e0:	4a01      	addiu	v0,1
7f0082e2:	db46      	sw	v0,24(v1)
7f0082e4:	1004      	b	7f0082ee <timeout+0x6e>
7f0082e6:	b506      	lw	a1,7f0082fc <timeout+0x7c>
7f0082e8:	181e 2788 	jal	7f009e20 <_flsbuf>
7f0082ec:	6c07      	li	a0,7
7f0082ee:	6463      	restore	24,ra,s0
7f0082f0:	e8a0      	jrc	ra
7f0082f2:	6500      	nop
7f0082f4:	8281      	lb	a0,1(v0)
7f0082f6:	7f00      	sd	s0,0(a3)
7f0082f8:	e618      	daddu	a2,s0
7f0082fa:	7f00      	sd	s0,0(a3)
7f0082fc:	e62c      	daddu	v1,a2,s1
7f0082fe:	7f00      	sd	s0,0(a3)

7f008300 <interrupt>:
7f008300:	64e3      	save	24,ra,s0
7f008302:	671c      	move	s0,gp
7f008304:	b50b      	lw	a1,7f008330 <interrupt+0x30>
7f008306:	181e 2a57 	jal	7f00a95c <signal>
7f00830a:	6c02      	li	a0,2
7f00830c:	f010 984c 	lw	v0,-32756(s0)
7f008310:	4261      	addiu	v1,v0,1
7f008312:	f010 d86c 	sw	v1,-32756(s0)
7f008316:	5201      	slti	v0,1
7f008318:	6104      	btnez	7f008322 <interrupt+0x22>
7f00831a:	b407      	lw	a0,7f008334 <interrupt+0x34>
7f00831c:	1c1e 2a0c 	jalx	7f00a830 <longjmp>
7f008320:	6d01      	li	a1,1
7f008322:	6750      	move	v0,s0
7f008324:	f030 4a18 	addiu	v0,-32712
7f008328:	f0b0 d858 	sw	v0,-32584(s0)
7f00832c:	6463      	restore	24,ra,s0
7f00832e:	e8a0      	jrc	ra
7f008330:	8301      	lb	s0,1(v1)
7f008332:	7f00      	sd	s0,0(a3)
7f008334:	2094      	beqz	s0,7f00825e <getdword+0x4e>
7f008336:	7f01      	sd	s0,8(a3)

7f008338 <endline>:
7f008338:	64e3      	save	24,ra,s0
7f00833a:	671c      	move	s0,gp
7f00833c:	f090 9850 	lw	v0,-32624(s0)
7f008340:	2229      	beqz	v0,7f008394 <endline+0x5c>
7f008342:	b316      	lw	v1,7f008398 <endline+0x60>
7f008344:	9b45      	lw	v0,20(v1)
7f008346:	4aff      	addiu	v0,-1
7f008348:	db45      	sw	v0,20(v1)
7f00834a:	5200      	slti	v0,0
7f00834c:	6107      	btnez	7f00835c <endline+0x24>
7f00834e:	6743      	move	v0,v1
7f008350:	9b66      	lw	v1,24(v1)
7f008352:	6c0a      	li	a0,10
7f008354:	c380      	sb	a0,0(v1)
7f008356:	4b01      	addiu	v1,1
7f008358:	da66      	sw	v1,24(v0)
7f00835a:	1019      	b	7f00838e <endline+0x56>
7f00835c:	b30f      	lw	v1,7f008398 <endline+0x60>
7f00835e:	ab92      	lhu	a0,36(v1)
7f008360:	6b80      	li	v1,128
7f008362:	eb8c      	and	v1,a0
7f008364:	2310      	beqz	v1,7f008386 <endline+0x4e>
7f008366:	ea4b      	neg	v0
7f008368:	b30c      	lw	v1,7f008398 <endline+0x60>
7f00836a:	9b68      	lw	v1,32(v1)
7f00836c:	ea62      	slt	v0,v1
7f00836e:	600b      	bteqz	7f008386 <endline+0x4e>
7f008370:	b30a      	lw	v1,7f008398 <endline+0x60>
7f008372:	9b46      	lw	v0,24(v1)
7f008374:	6c0a      	li	a0,10
7f008376:	c280      	sb	a0,0(v0)
7f008378:	9b46      	lw	v0,24(v1)
7f00837a:	a280      	lbu	a0,0(v0)
7f00837c:	43a7      	addiu	a1,v1,7
7f00837e:	181e 2788 	jal	7f009e20 <_flsbuf>
7f008382:	4d0d      	addiu	a1,13
7f008384:	1004      	b	7f00838e <endline+0x56>
7f008386:	b506      	lw	a1,7f00839c <endline+0x64>
7f008388:	181e 2788 	jal	7f009e20 <_flsbuf>
7f00838c:	6c0a      	li	a0,10
7f00838e:	6a00      	li	v0,0
7f008390:	f090 d850 	sw	v0,-32624(s0)
7f008394:	6463      	restore	24,ra,s0
7f008396:	e8a0      	jrc	ra
7f008398:	e618      	daddu	a2,s0
7f00839a:	7f00      	sd	s0,0(a3)
7f00839c:	e62c      	daddu	v1,a2,s1
7f00839e:	7f00      	sd	s0,0(a3)

7f0083a0 <goodbye>:
7f0083a0:	64f4      	save	32,ra,s0-s1
7f0083a2:	671c      	move	s0,gp
7f0083a4:	6724      	move	s1,a0
7f0083a6:	f010 9850 	lw	v0,-32752(s0)
7f0083aa:	221c      	beqz	v0,7f0083e4 <goodbye+0x44>
7f0083ac:	6790      	move	a0,s0
7f0083ae:	f0d0 4c04 	addiu	a0,-32572
7f0083b2:	181e 2ac0 	jal	7f00ab00 <wait>
7f0083b6:	6500      	nop
7f0083b8:	f030 985c 	lw	v0,-32708(s0)
7f0083bc:	f002 6b00 	li	v1,4096
7f0083c0:	ea6c      	and	v0,v1
7f0083c2:	2208      	beqz	v0,7f0083d4 <goodbye+0x34>
7f0083c4:	b20a      	lw	v0,7f0083ec <goodbye+0x4c>
7f0083c6:	b50b      	lw	a1,7f0083f0 <goodbye+0x50>
7f0083c8:	67d0      	move	a2,s0
7f0083ca:	f010 4e14 	addiu	a2,-32748
7f0083ce:	1c1e 2857 	jalx	7f00a15c <ioctl>
7f0083d2:	8a89      	lh	a0,18(v0)
7f0083d4:	b206      	lw	v0,7f0083ec <goodbye+0x4c>
7f0083d6:	b508      	lw	a1,7f0083f4 <goodbye+0x54>
7f0083d8:	67d0      	move	a2,s0
7f0083da:	f090 4e14 	addiu	a2,-32620
7f0083de:	1c1e 2857 	jalx	7f00a15c <ioctl>
7f0083e2:	8a89      	lh	a0,18(v0)
7f0083e4:	181e 26d8 	jal	7f009b60 <exit>
7f0083e8:	6791      	move	a0,s1
7f0083ea:	6500      	nop
7f0083ec:	e618      	daddu	a2,s0
7f0083ee:	7f00      	sd	s0,0(a3)
7f0083f0:	747f      	cmpi	a0,127
7f0083f2:	8004      	lb	s0,4(s0)
7f0083f4:	7409      	cmpi	a0,9
7f0083f6:	8006      	lb	s0,6(s0)

7f0083f8 <clearscreen>:
7f0083f8:	64c3      	save	24,ra
7f0083fa:	b208      	lw	v0,7f008418 <clearscreen+0x20>
7f0083fc:	b508      	lw	a1,7f00841c <clearscreen+0x24>
7f0083fe:	67dc      	move	a2,gp
7f008400:	f090 4e1c 	addiu	a2,-32612
7f008404:	1c1e 2857 	jalx	7f00a15c <ioctl>
7f008408:	8a89      	lh	a0,18(v0)
7f00840a:	b406      	lw	a0,7f008420 <clearscreen+0x28>
7f00840c:	181e 28e4 	jal	7f00a390 <printf>
7f008410:	6500      	nop
7f008412:	6443      	restore	24,ra
7f008414:	e8a0      	jrc	ra
7f008416:	6500      	nop
7f008418:	e618      	daddu	a2,s0
7f00841a:	7f00      	sd	s0,0(a3)
7f00841c:	7409      	cmpi	a0,9
7f00841e:	8006      	lb	s0,6(s0)
7f008420:	d9ec      	sw	a3,48(s1)
7f008422:	7f00      	sd	s0,0(a3)

7f008424 <wordcomp>:
7f008424:	8440      	lb	v0,0(a0)
7f008426:	7230      	cmpi	v0,48
7f008428:	6104      	btnez	7f008432 <wordcomp+0xe>
7f00842a:	8540      	lb	v0,0(a1)
7f00842c:	7230      	cmpi	v0,48
7f00842e:	6129      	btnez	7f008482 <wordcomp+0x5e>
7f008430:	1004      	b	7f00843a <wordcomp+0x16>
7f008432:	8540      	lb	v0,0(a1)
7f008434:	7230      	cmpi	v0,48
7f008436:	6a01      	li	v0,1
7f008438:	6026      	bteqz	7f008486 <wordcomp+0x62>
7f00843a:	4c01      	addiu	a0,1
7f00843c:	8460      	lb	v1,0(a0)
7f00843e:	4d01      	addiu	a1,1
7f008440:	85c0      	lb	a2,0(a1)
7f008442:	ebca      	cmp	v1,a2
7f008444:	6107      	btnez	7f008454 <wordcomp+0x30>
7f008446:	b211      	lw	v0,7f008488 <wordcomp+0x64>
7f008448:	e269      	addu	v0,v1
7f00844a:	a2c1      	lbu	a2,1(v0)
7f00844c:	6a03      	li	v0,3
7f00844e:	eacc      	and	v0,a2
7f008450:	2af4      	bnez	v0,7f00843a <wordcomp+0x16>
7f008452:	1007      	b	7f008462 <wordcomp+0x3e>
7f008454:	b20d      	lw	v0,7f008488 <wordcomp+0x64>
7f008456:	e269      	addu	v0,v1
7f008458:	a281      	lbu	a0,1(v0)
7f00845a:	6a03      	li	v0,3
7f00845c:	ea8c      	and	v0,a0
7f00845e:	2a08      	bnez	v0,7f008470 <wordcomp+0x4c>
7f008460:	6766      	move	v1,a2
7f008462:	b20a      	lw	v0,7f008488 <wordcomp+0x64>
7f008464:	e26d      	addu	v1,v0,v1
7f008466:	a361      	lbu	v1,1(v1)
7f008468:	6a03      	li	v0,3
7f00846a:	ea6c      	and	v0,v1
7f00846c:	e820      	jr	ra
7f00846e:	ea4b      	neg	v0
7f008470:	b206      	lw	v0,7f008488 <wordcomp+0x64>
7f008472:	e2c9      	addu	v0,a2
7f008474:	a281      	lbu	a0,1(v0)
7f008476:	6a03      	li	v0,3
7f008478:	ec4c      	and	a0,v0
7f00847a:	6a01      	li	v0,1
7f00847c:	2404      	beqz	a0,7f008486 <wordcomp+0x62>
7f00847e:	e820      	jr	ra
7f008480:	e3cb      	subu	v0,v1,a2
7f008482:	6a01      	li	v0,1
7f008484:	ea4b      	neg	v0
7f008486:	e8a0      	jrc	ra
7f008488:	e514      	daddu	a1,s0
7f00848a:	7f00      	sd	s0,0(a3)

7f00848c <compare>:
7f00848c:	64c3      	save	24,ra
7f00848e:	9c80      	lw	a0,0(a0)
7f008490:	181e 2109 	jal	7f008424 <wordcomp>
7f008494:	9da0      	lw	a1,0(a1)
7f008496:	6443      	restore	24,ra
7f008498:	e8a0      	jrc	ra
7f00849a:	6500      	nop

7f00849c <printinst>:
7f00849c:	64f4      	save	32,ra,s0-s1
7f00849e:	673c      	move	s1,gp
7f0084a0:	b054      	lw	s0,7f0085f0 <printinst+0x154>
7f0084a2:	b555      	lw	a1,7f0085f4 <printinst+0x158>
7f0084a4:	67d1      	move	a2,s1
7f0084a6:	f090 4e1c 	addiu	a2,-32612
7f0084aa:	1c1e 2857 	jalx	7f00a15c <ioctl>
7f0084ae:	8889      	lh	a0,18(s0)
7f0084b0:	b452      	lw	a0,7f0085f8 <printinst+0x15c>
7f0084b2:	181e 28e4 	jal	7f00a390 <printf>
7f0084b6:	6500      	nop
7f0084b8:	9840      	lw	v0,0(s0)
7f0084ba:	4aff      	addiu	v0,-1
7f0084bc:	d840      	sw	v0,0(s0)
7f0084be:	5200      	slti	v0,0
7f0084c0:	6108      	btnez	7f0084d2 <printinst+0x36>
7f0084c2:	9861      	lw	v1,4(s0)
7f0084c4:	a380      	lbu	a0,0(v1)
7f0084c6:	7479      	cmpi	a0,121
7f0084c8:	6798      	move	a0,t8
7f0084ca:	5c01      	sltiu	a0,1
7f0084cc:	4b01      	addiu	v1,1
7f0084ce:	d861      	sw	v1,4(s0)
7f0084d0:	1007      	b	7f0084e0 <printinst+0x44>
7f0084d2:	b448      	lw	a0,7f0085f0 <printinst+0x154>
7f0084d4:	181e 26ee 	jal	7f009bb8 <_filbuf>
7f0084d8:	6500      	nop
7f0084da:	7279      	cmpi	v0,121
7f0084dc:	6758      	move	v0,t8
7f0084de:	5a01      	sltiu	v0,1
7f0084e0:	607c      	bteqz	7f0085da <printinst+0x13e>
7f0084e2:	181e 20fe 	jal	7f0083f8 <clearscreen>
7f0084e6:	6500      	nop
7f0084e8:	b445      	lw	a0,7f0085fc <printinst+0x160>
7f0084ea:	181e 28ee 	jal	7f00a3b8 <puts>
7f0084ee:	6500      	nop
7f0084f0:	b444      	lw	a0,7f008600 <printinst+0x164>
7f0084f2:	181e 28ee 	jal	7f00a3b8 <puts>
7f0084f6:	6500      	nop
7f0084f8:	b443      	lw	a0,7f008604 <printinst+0x168>
7f0084fa:	181e 28ee 	jal	7f00a3b8 <puts>
7f0084fe:	6500      	nop
7f008500:	b442      	lw	a0,7f008608 <printinst+0x16c>
7f008502:	181e 28ee 	jal	7f00a3b8 <puts>
7f008506:	6500      	nop
7f008508:	b441      	lw	a0,7f00860c <printinst+0x170>
7f00850a:	181e 28ee 	jal	7f00a3b8 <puts>
7f00850e:	6500      	nop
7f008510:	b440      	lw	a0,7f008610 <printinst+0x174>
7f008512:	181e 28ee 	jal	7f00a3b8 <puts>
7f008516:	6500      	nop
7f008518:	b43f      	lw	a0,7f008614 <printinst+0x178>
7f00851a:	181e 28ee 	jal	7f00a3b8 <puts>
7f00851e:	6500      	nop
7f008520:	b43e      	lw	a0,7f008618 <printinst+0x17c>
7f008522:	181e 28ee 	jal	7f00a3b8 <puts>
7f008526:	6500      	nop
7f008528:	b43d      	lw	a0,7f00861c <printinst+0x180>
7f00852a:	181e 28ee 	jal	7f00a3b8 <puts>
7f00852e:	6500      	nop
7f008530:	b43c      	lw	a0,7f008620 <printinst+0x184>
7f008532:	181e 28ee 	jal	7f00a3b8 <puts>
7f008536:	6500      	nop
7f008538:	b43b      	lw	a0,7f008624 <printinst+0x188>
7f00853a:	181e 28ee 	jal	7f00a3b8 <puts>
7f00853e:	6500      	nop
7f008540:	b43a      	lw	a0,7f008628 <printinst+0x18c>
7f008542:	181e 28ee 	jal	7f00a3b8 <puts>
7f008546:	6500      	nop
7f008548:	b439      	lw	a0,7f00862c <printinst+0x190>
7f00854a:	181e 28ee 	jal	7f00a3b8 <puts>
7f00854e:	6500      	nop
7f008550:	b438      	lw	a0,7f008630 <printinst+0x194>
7f008552:	181e 28ee 	jal	7f00a3b8 <puts>
7f008556:	6500      	nop
7f008558:	b437      	lw	a0,7f008634 <printinst+0x198>
7f00855a:	181e 28ee 	jal	7f00a3b8 <puts>
7f00855e:	6500      	nop
7f008560:	b436      	lw	a0,7f008638 <printinst+0x19c>
7f008562:	181e 28ee 	jal	7f00a3b8 <puts>
7f008566:	6500      	nop
7f008568:	b435      	lw	a0,7f00863c <printinst+0x1a0>
7f00856a:	181e 28ee 	jal	7f00a3b8 <puts>
7f00856e:	6500      	nop
7f008570:	b434      	lw	a0,7f008640 <printinst+0x1a4>
7f008572:	181e 28ee 	jal	7f00a3b8 <puts>
7f008576:	6500      	nop
7f008578:	b433      	lw	a0,7f008644 <printinst+0x1a8>
7f00857a:	181e 28ee 	jal	7f00a3b8 <puts>
7f00857e:	6500      	nop
7f008580:	b432      	lw	a0,7f008648 <printinst+0x1ac>
7f008582:	181e 28ee 	jal	7f00a3b8 <puts>
7f008586:	6500      	nop
7f008588:	b431      	lw	a0,7f00864c <printinst+0x1b0>
7f00858a:	181e 28ee 	jal	7f00a3b8 <puts>
7f00858e:	6500      	nop
7f008590:	b430      	lw	a0,7f008650 <printinst+0x1b4>
7f008592:	181e 28ee 	jal	7f00a3b8 <puts>
7f008596:	6500      	nop
7f008598:	b42f      	lw	a0,7f008654 <printinst+0x1b8>
7f00859a:	181e 28ee 	jal	7f00a3b8 <puts>
7f00859e:	6500      	nop
7f0085a0:	b42e      	lw	a0,7f008658 <printinst+0x1bc>
7f0085a2:	181e 28ee 	jal	7f00a3b8 <puts>
7f0085a6:	6500      	nop
7f0085a8:	b42d      	lw	a0,7f00865c <printinst+0x1c0>
7f0085aa:	181e 28ee 	jal	7f00a3b8 <puts>
7f0085ae:	6500      	nop
7f0085b0:	b010      	lw	s0,7f0085f0 <printinst+0x154>
7f0085b2:	b511      	lw	a1,7f0085f4 <printinst+0x158>
7f0085b4:	67d1      	move	a2,s1
7f0085b6:	f090 4e1c 	addiu	a2,-32612
7f0085ba:	1c1e 2857 	jalx	7f00a15c <ioctl>
7f0085be:	8889      	lh	a0,18(s0)
7f0085c0:	9840      	lw	v0,0(s0)
7f0085c2:	4aff      	addiu	v0,-1
7f0085c4:	d840      	sw	v0,0(s0)
7f0085c6:	5200      	slti	v0,0
7f0085c8:	6104      	btnez	7f0085d2 <printinst+0x136>
7f0085ca:	9841      	lw	v0,4(s0)
7f0085cc:	4a01      	addiu	v0,1
7f0085ce:	d841      	sw	v0,4(s0)
7f0085d0:	1004      	b	7f0085da <printinst+0x13e>
7f0085d2:	b408      	lw	a0,7f0085f0 <printinst+0x154>
7f0085d4:	181e 26ee 	jal	7f009bb8 <_filbuf>
7f0085d8:	6500      	nop
7f0085da:	b206      	lw	v0,7f0085f0 <printinst+0x154>
7f0085dc:	b506      	lw	a1,7f0085f4 <printinst+0x158>
7f0085de:	67d1      	move	a2,s1
7f0085e0:	f090 4e1c 	addiu	a2,-32612
7f0085e4:	1c1e 2857 	jalx	7f00a15c <ioctl>
7f0085e8:	8a89      	lh	a0,18(v0)
7f0085ea:	6474      	restore	32,ra,s0-s1
7f0085ec:	e8a0      	jrc	ra
7f0085ee:	6500      	nop
7f0085f0:	e618      	daddu	a2,s0
7f0085f2:	7f00      	sd	s0,0(a3)
7f0085f4:	7409      	cmpi	a0,9
7f0085f6:	8006      	lb	s0,6(s0)
7f0085f8:	d9f0      	sw	a3,64(s1)
7f0085fa:	7f00      	sd	s0,0(a3)
7f0085fc:	da00      	sw	s0,0(v0)
7f0085fe:	7f00      	sd	s0,0(a3)
7f008600:	da48      	sw	v0,32(v0)
7f008602:	7f00      	sd	s0,0(a3)
7f008604:	da90      	sw	a0,64(v0)
7f008606:	7f00      	sd	s0,0(a3)
7f008608:	dad8      	sw	a2,96(v0)
7f00860a:	7f00      	sd	s0,0(a3)
7f00860c:	db20      	sw	s1,0(v1)
7f00860e:	7f00      	sd	s0,0(a3)
7f008610:	db68      	sw	v1,32(v1)
7f008612:	7f00      	sd	s0,0(a3)
7f008614:	dbb0      	sw	a1,64(v1)
7f008616:	7f00      	sd	s0,0(a3)
7f008618:	dbf0      	sw	a3,64(v1)
7f00861a:	7f00      	sd	s0,0(a3)
7f00861c:	dc38      	sw	s1,96(a0)
7f00861e:	7f00      	sd	s0,0(a3)
7f008620:	dc80      	sw	a0,0(a0)
7f008622:	7f00      	sd	s0,0(a3)
7f008624:	dcc8      	sw	a2,32(a0)
7f008626:	7f00      	sd	s0,0(a3)
7f008628:	dd14      	sw	s0,80(a1)
7f00862a:	7f00      	sd	s0,0(a3)
7f00862c:	dd5c      	sw	v0,112(a1)
7f00862e:	7f00      	sd	s0,0(a3)
7f008630:	dda4      	sw	a1,16(a1)
7f008632:	7f00      	sd	s0,0(a3)
7f008634:	ddd4      	sw	a2,80(a1)
7f008636:	7f00      	sd	s0,0(a3)
7f008638:	de1c      	sw	s0,112(a2)
7f00863a:	7f00      	sd	s0,0(a3)
7f00863c:	de64      	sw	v1,16(a2)
7f00863e:	7f00      	sd	s0,0(a3)
7f008640:	deac      	sw	a1,48(a2)
7f008642:	7f00      	sd	s0,0(a3)
7f008644:	def4      	sw	a3,80(a2)
7f008646:	7f00      	sd	s0,0(a3)
7f008648:	df3c      	sw	s1,112(a3)
7f00864a:	7f00      	sd	s0,0(a3)
7f00864c:	df80      	sw	a0,0(a3)
7f00864e:	7f00      	sd	s0,0(a3)
7f008650:	dfc8      	sw	a2,32(a3)
7f008652:	7f00      	sd	s0,0(a3)
7f008654:	e014      	daddu	a1,s0,s0
7f008656:	7f00      	sd	s0,0(a3)
7f008658:	e05c      	daddu	a3,s0,v0
7f00865a:	7f00      	sd	s0,0(a3)
7f00865c:	e0a4      	daddu	s1,s0,a1
7f00865e:	7f00      	sd	s0,0(a3)

7f008660 <setup>:
7f008660:	64b1      	save	8,s0-s1
7f008662:	675c      	move	v0,gp
7f008664:	f030 9a74 	lw	v1,-32716(v0)
7f008668:	5302      	slti	v1,2
7f00866a:	6778      	move	v1,t8
7f00866c:	6a01      	li	v0,1
7f00866e:	eb4e      	xor	v1,v0
7f008670:	6703      	move	s0,v1
7f008672:	e891      	seb	s0
7f008674:	6588      	move	t4,s0
7f008676:	b235      	lw	v0,7f008748 <setup+0xe8>
7f008678:	c260      	sb	v1,0(v0)
7f00867a:	6b01      	li	v1,1
7f00867c:	f100 c260 	sb	v1,256(v0)
7f008680:	4227      	addiu	s1,v0,7
7f008682:	490a      	addiu	s1,10
7f008684:	6569      	move	t3,s1
7f008686:	6d00      	li	a1,0
7f008688:	1052      	b	7f00872e <setup+0xce>
7f00868a:	676c      	move	v1,t4
7f00868c:	674b      	move	v0,t3
7f00868e:	c260      	sb	v1,0(v0)
7f008690:	b22e      	lw	v0,7f008748 <setup+0xe8>
7f008692:	e549      	addu	v0,a1,v0
7f008694:	6b01      	li	v1,1
7f008696:	f100 c260 	sb	v1,256(v0)
7f00869a:	5501      	slti	a1,1
7f00869c:	6145      	btnez	7f008728 <setup+0xc8>
7f00869e:	f7c0 32a3 	sra	v0,a1,31
7f0086a2:	6b03      	li	v1,3
7f0086a4:	67e2      	move	a3,v0
7f0086a6:	ef6c      	and	a3,v1
7f0086a8:	e7bd      	addu	a3,a1
7f0086aa:	37eb      	sra	a3,2
7f0086ac:	f780 3242 	srl	v0,30
7f0086b0:	e559      	addu	a2,a1,v0
7f0086b2:	ebcc      	and	v1,a2
7f0086b4:	e35b      	subu	a2,v1,v0
7f0086b6:	b225      	lw	v0,7f008748 <setup+0xe8>
7f0086b8:	e551      	addu	a0,a1,v0
7f0086ba:	33b0      	sll	v1,a1,4
7f0086bc:	e34d      	addu	v1,v0
7f0086be:	6a00      	li	v0,0
7f0086c0:	f7c0 3043 	sra	s0,v0,31
7f0086c4:	6528      	move	t1,s0
7f0086c6:	f780 3002 	srl	s0,30
7f0086ca:	6518      	move	t8,s0
7f0086cc:	e201      	addu	s0,v0,s0
7f0086ce:	6903      	li	s1,3
7f0086d0:	6509      	move	t0,s1
7f0086d2:	e82c      	and	s0,s1
7f0086d4:	6738      	move	s1,t8
7f0086d6:	e023      	subu	s0,s1
7f0086d8:	e603      	subu	s0,a2,s0
7f0086da:	6548      	move	t2,s0
7f0086dc:	6709      	move	s0,t1
7f0086de:	6728      	move	s1,t0
7f0086e0:	e82c      	and	s0,s1
7f0086e2:	e041      	addu	s0,v0
7f0086e4:	300b      	sra	s0,2
7f0086e6:	e707      	subu	s1,a3,s0
7f0086e8:	210a      	beqz	s1,7f0086fe <setup+0x9e>
7f0086ea:	7101      	cmpi	s1,1
7f0086ec:	6718      	move	s0,t8
7f0086ee:	2003      	beqz	s0,7f0086f6 <setup+0x96>
7f0086f0:	4901      	addiu	s1,1
7f0086f2:	6519      	move	t8,s1
7f0086f4:	610e      	btnez	7f008712 <setup+0xb2>
7f0086f6:	672a      	move	s1,t2
7f0086f8:	4901      	addiu	s1,1
7f0086fa:	5903      	sltiu	s1,3
7f0086fc:	100c      	b	7f008716 <setup+0xb6>
7f0086fe:	670a      	move	s0,t2
7f008700:	4801      	addiu	s0,1
7f008702:	6901      	li	s1,1
7f008704:	6519      	move	t8,s1
7f008706:	2007      	beqz	s0,7f008716 <setup+0xb6>
7f008708:	670a      	move	s0,t2
7f00870a:	7001      	cmpi	s0,1
7f00870c:	6738      	move	s1,t8
7f00870e:	5901      	sltiu	s1,1
7f008710:	1002      	b	7f008716 <setup+0xb6>
7f008712:	6800      	li	s0,0
7f008714:	6518      	move	t8,s0
7f008716:	6738      	move	s1,t8
7f008718:	e991      	seb	s1
7f00871a:	c420      	sb	s1,0(a0)
7f00871c:	c320      	sb	s1,0(v1)
7f00871e:	4a01      	addiu	v0,1
7f008720:	4c10      	addiu	a0,16
7f008722:	4b01      	addiu	v1,1
7f008724:	eaa2      	slt	v0,a1
7f008726:	61cc      	btnez	7f0086c0 <setup+0x60>
7f008728:	672b      	move	s1,t3
7f00872a:	4911      	addiu	s1,17
7f00872c:	6569      	move	t3,s1
7f00872e:	4d01      	addiu	a1,1
7f008730:	7510      	cmpi	a1,16
7f008732:	61ab      	btnez	7f00868a <setup+0x2a>
7f008734:	b206      	lw	v0,7f00874c <setup+0xec>
7f008736:	da40      	sw	v0,0(v0)
7f008738:	6b10      	li	v1,16
7f00873a:	da61      	sw	v1,4(v0)
7f00873c:	b305      	lw	v1,7f008750 <setup+0xf0>
7f00873e:	db40      	sw	v0,0(v1)
7f008740:	4a08      	addiu	v0,8
7f008742:	db41      	sw	v0,4(v1)
7f008744:	6431      	restore	8,s0-s1
7f008746:	e8a0      	jrc	ra
7f008748:	1f84 7f01 	jalx	7271fc04 <_start-0xc8e83fc>
7f00874c:	f1c0 7f00 	sd	s0,448(a3)
7f008750:	f800      	ld	s0,0(sp)
7f008752:	7f00      	sd	s0,0(a3)

7f008754 <makelists>:
7f008754:	b20c      	lw	v0,7f008784 <makelists+0x30>
7f008756:	4287      	addiu	a0,v0,7
7f008758:	4c13      	addiu	a0,19
7f00875a:	6b10      	li	v1,16
7f00875c:	c260      	sb	v1,0(v0)
7f00875e:	4a01      	addiu	v0,1
7f008760:	ea8a      	cmp	v0,a0
7f008762:	61fb      	btnez	7f00875a <makelists+0x6>
7f008764:	6b00      	li	v1,0
7f008766:	b209      	lw	v0,7f008788 <makelists+0x34>
7f008768:	e349      	addu	v0,v1,v0
7f00876a:	8280      	lb	a0,0(v0)
7f00876c:	b508      	lw	a1,7f00878c <makelists+0x38>
7f00876e:	e3b5      	addu	a1,v1,a1
7f008770:	b208      	lw	v0,7f008790 <makelists+0x3c>
7f008772:	e451      	addu	a0,v0
7f008774:	a440      	lbu	v0,0(a0)
7f008776:	c540      	sb	v0,0(a1)
7f008778:	c460      	sb	v1,0(a0)
7f00877a:	4b01      	addiu	v1,1
7f00877c:	7310      	cmpi	v1,16
7f00877e:	61f3      	btnez	7f008766 <makelists+0x12>
7f008780:	e8a0      	jrc	ra
7f008782:	6500      	nop
7f008784:	1f68 7f01 	jalx	746dfc04 <_start-0xa9283fc>
7f008788:	f1b0 7f00 	sd	s0,-32352(a3)
7f00878c:	f18c 7f00 	sd	s0,24960(a3)
7f008790:	1f07 7f01 	jalx	73e1fc04 <_start-0xb1e83fc>

7f008794 <genboard>:
7f008794:	64f5      	save	40,ra,s0-s1
7f008796:	b220      	lw	v0,7f008814 <genboard+0x80>
7f008798:	4287      	addiu	a0,v0,7
7f00879a:	4c09      	addiu	a0,9
7f00879c:	6b00      	li	v1,0
7f00879e:	c260      	sb	v1,0(v0)
7f0087a0:	4a01      	addiu	v0,1
7f0087a2:	ea8a      	cmp	v0,a0
7f0087a4:	61fb      	btnez	7f00879c <genboard+0x8>
7f0087a6:	b11d      	lw	s1,7f008818 <genboard+0x84>
7f0087a8:	181e 29ba 	jal	7f00a6e8 <rand>
7f0087ac:	6500      	nop
7f0087ae:	f7c0 3343 	sra	v1,v0,31
7f0087b2:	f700 3362 	srl	v1,28
7f0087b6:	e261      	addu	s0,v0,v1
7f0087b8:	6c0f      	li	a0,15
7f0087ba:	e88c      	and	s0,a0
7f0087bc:	e063      	subu	s0,v1
7f0087be:	b216      	lw	v0,7f008814 <genboard+0x80>
7f0087c0:	e209      	addu	v0,s0
7f0087c2:	8240      	lb	v0,0(v0)
7f0087c4:	220d      	beqz	v0,7f0087e0 <genboard+0x4c>
7f0087c6:	4801      	addiu	s0,1
7f0087c8:	f7c0 3203 	sra	v0,s0,31
7f0087cc:	f700 3242 	srl	v0,28
7f0087d0:	e041      	addu	s0,v0
7f0087d2:	6b0f      	li	v1,15
7f0087d4:	e86c      	and	s0,v1
7f0087d6:	e043      	subu	s0,v0
7f0087d8:	b20f      	lw	v0,7f008814 <genboard+0x80>
7f0087da:	e209      	addu	v0,s0
7f0087dc:	8240      	lb	v0,0(v0)
7f0087de:	2af3      	bnez	v0,7f0087c6 <genboard+0x32>
7f0087e0:	9940      	lw	v0,0(s1)
7f0087e2:	181e 29ba 	jal	7f00a6e8 <rand>
7f0087e6:	d204      	sw	v0,16(sp)
7f0087e8:	b30b      	lw	v1,7f008814 <genboard+0x80>
7f0087ea:	e301      	addu	s0,v1,s0
7f0087ec:	b30c      	lw	v1,7f00881c <genboard+0x88>
7f0087ee:	ea78      	mult	v0,v1
7f0087f0:	eb10      	mfhi	v1
7f0087f2:	f7c0 3443 	sra	a0,v0,31
7f0087f6:	e38f      	subu	v1,a0
7f0087f8:	3464      	sll	a0,v1,1
7f0087fa:	336c      	sll	v1,3
7f0087fc:	e38f      	subu	v1,a0
7f0087fe:	e26b      	subu	v0,v1
7f008800:	9304      	lw	v1,16(sp)
7f008802:	e349      	addu	v0,v1,v0
7f008804:	a240      	lbu	v0,0(v0)
7f008806:	c040      	sb	v0,0(s0)
7f008808:	4904      	addiu	s1,4
7f00880a:	b206      	lw	v0,7f008820 <genboard+0x8c>
7f00880c:	e94a      	cmp	s1,v0
7f00880e:	61cc      	btnez	7f0087a8 <genboard+0x14>
7f008810:	6475      	restore	40,ra,s0-s1
7f008812:	e8a0      	jrc	ra
7f008814:	f1b0 7f00 	sd	s0,-32352(a3)
7f008818:	e438      	daddu	a2,a0,s1
7f00881a:	7f00      	sd	s0,0(a3)
7f00881c:	aaab      	lhu	a1,22(v0)
7f00881e:	2aaa      	bnez	v0,7f008774 <makelists+0x20>
7f008820:	e478      	daddu	a2,a0,v1
7f008822:	7f00      	sd	s0,0(a3)

7f008824 <printboard>:
7f008824:	64f6      	save	48,ra,s0-s1
7f008826:	6a00      	li	v0,0
7f008828:	d205      	sw	v0,20(sp)
7f00882a:	b475      	lw	a0,7f0089fc <printboard+0x1d8>
7f00882c:	181e 28e4 	jal	7f00a390 <printf>
7f008830:	6500      	nop
7f008832:	b174      	lw	s1,7f008a00 <printboard+0x1dc>
7f008834:	9305      	lw	v1,20(sp)
7f008836:	e325      	addu	s1,v1,s1
7f008838:	b273      	lw	v0,7f008a04 <printboard+0x1e0>
7f00883a:	e269      	addu	v0,v1
7f00883c:	d206      	sw	v0,24(sp)
7f00883e:	d104      	sw	s1,16(sp)
7f008840:	6711      	move	s0,s1
7f008842:	b372      	lw	v1,7f008a08 <printboard+0x1e4>
7f008844:	9b45      	lw	v0,20(v1)
7f008846:	4aff      	addiu	v0,-1
7f008848:	db45      	sw	v0,20(v1)
7f00884a:	5200      	slti	v0,0
7f00884c:	6106      	btnez	7f00885a <printboard+0x36>
7f00884e:	9b86      	lw	a0,24(v1)
7f008850:	a040      	lbu	v0,0(s0)
7f008852:	c440      	sb	v0,0(a0)
7f008854:	4c01      	addiu	a0,1
7f008856:	db86      	sw	a0,24(v1)
7f008858:	1022      	b	7f00889e <printboard+0x7a>
7f00885a:	b36c      	lw	v1,7f008a08 <printboard+0x1e4>
7f00885c:	ab92      	lhu	a0,36(v1)
7f00885e:	6b80      	li	v1,128
7f008860:	eb8c      	and	v1,a0
7f008862:	2319      	beqz	v1,7f008896 <printboard+0x72>
7f008864:	ea4b      	neg	v0
7f008866:	b369      	lw	v1,7f008a08 <printboard+0x1e4>
7f008868:	9b68      	lw	v1,32(v1)
7f00886a:	ea62      	slt	v0,v1
7f00886c:	6014      	bteqz	7f008896 <printboard+0x72>
7f00886e:	9304      	lw	v1,16(sp)
7f008870:	8340      	lb	v0,0(v1)
7f008872:	b366      	lw	v1,7f008a08 <printboard+0x1e4>
7f008874:	9b66      	lw	v1,24(v1)
7f008876:	c340      	sb	v0,0(v1)
7f008878:	720a      	cmpi	v0,10
7f00887a:	6006      	bteqz	7f008888 <printboard+0x64>
7f00887c:	b363      	lw	v1,7f008a08 <printboard+0x1e4>
7f00887e:	9b86      	lw	a0,24(v1)
7f008880:	a440      	lbu	v0,0(a0)
7f008882:	4c01      	addiu	a0,1
7f008884:	db86      	sw	a0,24(v1)
7f008886:	100b      	b	7f00889e <printboard+0x7a>
7f008888:	b260      	lw	v0,7f008a08 <printboard+0x1e4>
7f00888a:	9a46      	lw	v0,24(v0)
7f00888c:	b560      	lw	a1,7f008a0c <printboard+0x1e8>
7f00888e:	181e 2788 	jal	7f009e20 <_flsbuf>
7f008892:	a280      	lbu	a0,0(v0)
7f008894:	1004      	b	7f00889e <printboard+0x7a>
7f008896:	b55e      	lw	a1,7f008a0c <printboard+0x1e8>
7f008898:	181e 2788 	jal	7f009e20 <_flsbuf>
7f00889c:	a180      	lbu	a0,0(s1)
7f00889e:	b45b      	lw	a0,7f008a08 <printboard+0x1e4>
7f0088a0:	9c65      	lw	v1,20(a0)
7f0088a2:	4bff      	addiu	v1,-1
7f0088a4:	dc65      	sw	v1,20(a0)
7f0088a6:	5300      	slti	v1,0
7f0088a8:	610a      	btnez	7f0088be <printboard+0x9a>
7f0088aa:	9c66      	lw	v1,24(a0)
7f0088ac:	7271      	cmpi	v0,113
7f0088ae:	6c20      	li	a0,32
7f0088b0:	6101      	btnez	7f0088b4 <printboard+0x90>
7f0088b2:	6c75      	li	a0,117
7f0088b4:	c380      	sb	a0,0(v1)
7f0088b6:	4b01      	addiu	v1,1
7f0088b8:	b254      	lw	v0,7f008a08 <printboard+0x1e4>
7f0088ba:	da66      	sw	v1,24(v0)
7f0088bc:	101e      	b	7f0088fa <printboard+0xd6>
7f0088be:	b453      	lw	a0,7f008a08 <printboard+0x1e4>
7f0088c0:	acb2      	lhu	a1,36(a0)
7f0088c2:	6c80      	li	a0,128
7f0088c4:	ecac      	and	a0,a1
7f0088c6:	2411      	beqz	a0,7f0088ea <printboard+0xc6>
7f0088c8:	eb6b      	neg	v1
7f0088ca:	b450      	lw	a0,7f008a08 <printboard+0x1e4>
7f0088cc:	9c88      	lw	a0,32(a0)
7f0088ce:	eb82      	slt	v1,a0
7f0088d0:	600c      	bteqz	7f0088ea <printboard+0xc6>
7f0088d2:	b34e      	lw	v1,7f008a08 <printboard+0x1e4>
7f0088d4:	9b66      	lw	v1,24(v1)
7f0088d6:	7271      	cmpi	v0,113
7f0088d8:	6a20      	li	v0,32
7f0088da:	6101      	btnez	7f0088de <printboard+0xba>
7f0088dc:	6a75      	li	v0,117
7f0088de:	c340      	sb	v0,0(v1)
7f0088e0:	b34a      	lw	v1,7f008a08 <printboard+0x1e4>
7f0088e2:	9b46      	lw	v0,24(v1)
7f0088e4:	4a01      	addiu	v0,1
7f0088e6:	db46      	sw	v0,24(v1)
7f0088e8:	1008      	b	7f0088fa <printboard+0xd6>
7f0088ea:	7271      	cmpi	v0,113
7f0088ec:	6c20      	li	a0,32
7f0088ee:	6101      	btnez	7f0088f2 <printboard+0xce>
7f0088f0:	6c75      	li	a0,117
7f0088f2:	b547      	lw	a1,7f008a0c <printboard+0x1e8>
7f0088f4:	181e 2788 	jal	7f009e20 <_flsbuf>
7f0088f8:	6500      	nop
7f0088fa:	b344      	lw	v1,7f008a08 <printboard+0x1e4>
7f0088fc:	9b45      	lw	v0,20(v1)
7f0088fe:	4aff      	addiu	v0,-1
7f008900:	db45      	sw	v0,20(v1)
7f008902:	5200      	slti	v0,0
7f008904:	6107      	btnez	7f008914 <printboard+0xf0>
7f008906:	6743      	move	v0,v1
7f008908:	9b66      	lw	v1,24(v1)
7f00890a:	6c20      	li	a0,32
7f00890c:	c380      	sb	a0,0(v1)
7f00890e:	4b01      	addiu	v1,1
7f008910:	da66      	sw	v1,24(v0)
7f008912:	1016      	b	7f008940 <printboard+0x11c>
7f008914:	b33d      	lw	v1,7f008a08 <printboard+0x1e4>
7f008916:	ab92      	lhu	a0,36(v1)
7f008918:	6b80      	li	v1,128
7f00891a:	eb8c      	and	v1,a0
7f00891c:	230d      	beqz	v1,7f008938 <printboard+0x114>
7f00891e:	ea4b      	neg	v0
7f008920:	b33a      	lw	v1,7f008a08 <printboard+0x1e4>
7f008922:	9b68      	lw	v1,32(v1)
7f008924:	ea62      	slt	v0,v1
7f008926:	6008      	bteqz	7f008938 <printboard+0x114>
7f008928:	b338      	lw	v1,7f008a08 <printboard+0x1e4>
7f00892a:	9b46      	lw	v0,24(v1)
7f00892c:	6c20      	li	a0,32
7f00892e:	c280      	sb	a0,0(v0)
7f008930:	9b46      	lw	v0,24(v1)
7f008932:	4a01      	addiu	v0,1
7f008934:	db46      	sw	v0,24(v1)
7f008936:	1004      	b	7f008940 <printboard+0x11c>
7f008938:	b535      	lw	a1,7f008a0c <printboard+0x1e8>
7f00893a:	181e 2788 	jal	7f009e20 <_flsbuf>
7f00893e:	6c20      	li	a0,32
7f008940:	4801      	addiu	s0,1
7f008942:	4901      	addiu	s1,1
7f008944:	9204      	lw	v0,16(sp)
7f008946:	4a01      	addiu	v0,1
7f008948:	d204      	sw	v0,16(sp)
7f00894a:	9306      	lw	v1,24(sp)
7f00894c:	e86a      	cmp	s0,v1
7f00894e:	f77f 6118 	btnez	7f008842 <printboard+0x1e>
7f008952:	b32e      	lw	v1,7f008a08 <printboard+0x1e4>
7f008954:	9b45      	lw	v0,20(v1)
7f008956:	4aff      	addiu	v0,-1
7f008958:	db45      	sw	v0,20(v1)
7f00895a:	5200      	slti	v0,0
7f00895c:	6107      	btnez	7f00896c <printboard+0x148>
7f00895e:	6743      	move	v0,v1
7f008960:	9b66      	lw	v1,24(v1)
7f008962:	6c0a      	li	a0,10
7f008964:	c380      	sb	a0,0(v1)
7f008966:	4b01      	addiu	v1,1
7f008968:	da66      	sw	v1,24(v0)
7f00896a:	1019      	b	7f00899e <printboard+0x17a>
7f00896c:	b327      	lw	v1,7f008a08 <printboard+0x1e4>
7f00896e:	ab92      	lhu	a0,36(v1)
7f008970:	6b80      	li	v1,128
7f008972:	eb8c      	and	v1,a0
7f008974:	2310      	beqz	v1,7f008996 <printboard+0x172>
7f008976:	ea4b      	neg	v0
7f008978:	b324      	lw	v1,7f008a08 <printboard+0x1e4>
7f00897a:	9b68      	lw	v1,32(v1)
7f00897c:	ea62      	slt	v0,v1
7f00897e:	600b      	bteqz	7f008996 <printboard+0x172>
7f008980:	b322      	lw	v1,7f008a08 <printboard+0x1e4>
7f008982:	9b46      	lw	v0,24(v1)
7f008984:	6c0a      	li	a0,10
7f008986:	c280      	sb	a0,0(v0)
7f008988:	9b46      	lw	v0,24(v1)
7f00898a:	a280      	lbu	a0,0(v0)
7f00898c:	43a7      	addiu	a1,v1,7
7f00898e:	181e 2788 	jal	7f009e20 <_flsbuf>
7f008992:	4d0d      	addiu	a1,13
7f008994:	1004      	b	7f00899e <printboard+0x17a>
7f008996:	b51e      	lw	a1,7f008a0c <printboard+0x1e8>
7f008998:	181e 2788 	jal	7f009e20 <_flsbuf>
7f00899c:	6c0a      	li	a0,10
7f00899e:	9205      	lw	v0,20(sp)
7f0089a0:	4a04      	addiu	v0,4
7f0089a2:	d205      	sw	v0,20(sp)
7f0089a4:	7210      	cmpi	v0,16
7f0089a6:	f75f 6100 	btnez	7f00882a <printboard+0x6>
7f0089aa:	b318      	lw	v1,7f008a08 <printboard+0x1e4>
7f0089ac:	9b45      	lw	v0,20(v1)
7f0089ae:	4aff      	addiu	v0,-1
7f0089b0:	db45      	sw	v0,20(v1)
7f0089b2:	5200      	slti	v0,0
7f0089b4:	6107      	btnez	7f0089c4 <printboard+0x1a0>
7f0089b6:	6743      	move	v0,v1
7f0089b8:	9b66      	lw	v1,24(v1)
7f0089ba:	6c0a      	li	a0,10
7f0089bc:	c380      	sb	a0,0(v1)
7f0089be:	4b01      	addiu	v1,1
7f0089c0:	da66      	sw	v1,24(v0)
7f0089c2:	1019      	b	7f0089f6 <printboard+0x1d2>
7f0089c4:	b311      	lw	v1,7f008a08 <printboard+0x1e4>
7f0089c6:	ab92      	lhu	a0,36(v1)
7f0089c8:	6b80      	li	v1,128
7f0089ca:	eb8c      	and	v1,a0
7f0089cc:	2310      	beqz	v1,7f0089ee <printboard+0x1ca>
7f0089ce:	ea4b      	neg	v0
7f0089d0:	b30e      	lw	v1,7f008a08 <printboard+0x1e4>
7f0089d2:	9b68      	lw	v1,32(v1)
7f0089d4:	ea62      	slt	v0,v1
7f0089d6:	600b      	bteqz	7f0089ee <printboard+0x1ca>
7f0089d8:	b30c      	lw	v1,7f008a08 <printboard+0x1e4>
7f0089da:	9b46      	lw	v0,24(v1)
7f0089dc:	6c0a      	li	a0,10
7f0089de:	c280      	sb	a0,0(v0)
7f0089e0:	9b46      	lw	v0,24(v1)
7f0089e2:	a280      	lbu	a0,0(v0)
7f0089e4:	43a7      	addiu	a1,v1,7
7f0089e6:	181e 2788 	jal	7f009e20 <_flsbuf>
7f0089ea:	4d0d      	addiu	a1,13
7f0089ec:	1004      	b	7f0089f6 <printboard+0x1d2>
7f0089ee:	b508      	lw	a1,7f008a0c <printboard+0x1e8>
7f0089f0:	181e 2788 	jal	7f009e20 <_flsbuf>
7f0089f4:	6c0a      	li	a0,10
7f0089f6:	6476      	restore	48,ra,s0-s1
7f0089f8:	e8a0      	jrc	ra
7f0089fa:	6500      	nop
7f0089fc:	e0bc      	daddu	a3,s0,a1
7f0089fe:	7f00      	sd	s0,0(a3)
7f008a00:	f1b0 7f00 	sd	s0,-32352(a3)
7f008a04:	f1b4 7f00 	sd	s0,-24160(a3)
7f008a08:	e618      	daddu	a2,s0
7f008a0a:	7f00      	sd	s0,0(a3)
7f008a0c:	e62c      	daddu	v1,a2,s1
7f008a0e:	7f00      	sd	s0,0(a3)

7f008a10 <outword>:
7f008a10:	f004 64f4 	save	a0,32,ra,s0-s1
7f008a14:	673c      	move	s1,gp
7f008a16:	6704      	move	s0,a0
7f008a18:	4801      	addiu	s0,1
7f008a1a:	1058      	b	7f008acc <outword+0xbc>
7f008a1c:	b386      	lw	v1,7f008c34 <outword+0x224>
7f008a1e:	9b45      	lw	v0,20(v1)
7f008a20:	4aff      	addiu	v0,-1
7f008a22:	db45      	sw	v0,20(v1)
7f008a24:	5200      	slti	v0,0
7f008a26:	6106      	btnez	7f008a34 <outword+0x24>
7f008a28:	9b86      	lw	a0,24(v1)
7f008a2a:	a040      	lbu	v0,0(s0)
7f008a2c:	c440      	sb	v0,0(a0)
7f008a2e:	4c01      	addiu	a0,1
7f008a30:	db86      	sw	a0,24(v1)
7f008a32:	1020      	b	7f008a74 <outword+0x64>
7f008a34:	b380      	lw	v1,7f008c34 <outword+0x224>
7f008a36:	ab92      	lhu	a0,36(v1)
7f008a38:	6b80      	li	v1,128
7f008a3a:	eb8c      	and	v1,a0
7f008a3c:	2317      	beqz	v1,7f008a6c <outword+0x5c>
7f008a3e:	ea4b      	neg	v0
7f008a40:	b37d      	lw	v1,7f008c34 <outword+0x224>
7f008a42:	9b68      	lw	v1,32(v1)
7f008a44:	ea62      	slt	v0,v1
7f008a46:	6012      	bteqz	7f008a6c <outword+0x5c>
7f008a48:	8040      	lb	v0,0(s0)
7f008a4a:	b37b      	lw	v1,7f008c34 <outword+0x224>
7f008a4c:	9b66      	lw	v1,24(v1)
7f008a4e:	c340      	sb	v0,0(v1)
7f008a50:	720a      	cmpi	v0,10
7f008a52:	6005      	bteqz	7f008a5e <outword+0x4e>
7f008a54:	b378      	lw	v1,7f008c34 <outword+0x224>
7f008a56:	9b46      	lw	v0,24(v1)
7f008a58:	4a01      	addiu	v0,1
7f008a5a:	db46      	sw	v0,24(v1)
7f008a5c:	100b      	b	7f008a74 <outword+0x64>
7f008a5e:	b276      	lw	v0,7f008c34 <outword+0x224>
7f008a60:	9a46      	lw	v0,24(v0)
7f008a62:	b576      	lw	a1,7f008c38 <outword+0x228>
7f008a64:	181e 2788 	jal	7f009e20 <_flsbuf>
7f008a68:	a280      	lbu	a0,0(v0)
7f008a6a:	1004      	b	7f008a74 <outword+0x64>
7f008a6c:	b573      	lw	a1,7f008c38 <outword+0x228>
7f008a6e:	181e 2788 	jal	7f009e20 <_flsbuf>
7f008a72:	a080      	lbu	a0,0(s0)
7f008a74:	8040      	lb	v0,0(s0)
7f008a76:	4801      	addiu	s0,1
7f008a78:	7271      	cmpi	v0,113
7f008a7a:	6128      	btnez	7f008acc <outword+0xbc>
7f008a7c:	b36e      	lw	v1,7f008c34 <outword+0x224>
7f008a7e:	9b45      	lw	v0,20(v1)
7f008a80:	4aff      	addiu	v0,-1
7f008a82:	db45      	sw	v0,20(v1)
7f008a84:	5200      	slti	v0,0
7f008a86:	6107      	btnez	7f008a96 <outword+0x86>
7f008a88:	6743      	move	v0,v1
7f008a8a:	9b66      	lw	v1,24(v1)
7f008a8c:	6c75      	li	a0,117
7f008a8e:	c380      	sb	a0,0(v1)
7f008a90:	4b01      	addiu	v1,1
7f008a92:	da66      	sw	v1,24(v0)
7f008a94:	1016      	b	7f008ac2 <outword+0xb2>
7f008a96:	b368      	lw	v1,7f008c34 <outword+0x224>
7f008a98:	ab92      	lhu	a0,36(v1)
7f008a9a:	6b80      	li	v1,128
7f008a9c:	eb8c      	and	v1,a0
7f008a9e:	230d      	beqz	v1,7f008aba <outword+0xaa>
7f008aa0:	ea4b      	neg	v0
7f008aa2:	b365      	lw	v1,7f008c34 <outword+0x224>
7f008aa4:	9b68      	lw	v1,32(v1)
7f008aa6:	ea62      	slt	v0,v1
7f008aa8:	6008      	bteqz	7f008aba <outword+0xaa>
7f008aaa:	b363      	lw	v1,7f008c34 <outword+0x224>
7f008aac:	9b46      	lw	v0,24(v1)
7f008aae:	6c75      	li	a0,117
7f008ab0:	c280      	sb	a0,0(v0)
7f008ab2:	9b46      	lw	v0,24(v1)
7f008ab4:	4a01      	addiu	v0,1
7f008ab6:	db46      	sw	v0,24(v1)
7f008ab8:	1004      	b	7f008ac2 <outword+0xb2>
7f008aba:	b560      	lw	a1,7f008c38 <outword+0x228>
7f008abc:	181e 2788 	jal	7f009e20 <_flsbuf>
7f008ac0:	6c75      	li	a0,117
7f008ac2:	f090 9950 	lw	v0,-32624(s1)
7f008ac6:	4a01      	addiu	v0,1
7f008ac8:	f090 d950 	sw	v0,-32624(s1)
7f008acc:	8040      	lb	v0,0(s0)
7f008ace:	b35c      	lw	v1,7f008c3c <outword+0x22c>
7f008ad0:	e349      	addu	v0,v1,v0
7f008ad2:	a261      	lbu	v1,1(v0)
7f008ad4:	6a03      	li	v0,3
7f008ad6:	ea6c      	and	v0,v1
7f008ad8:	2aa1      	bnez	v0,7f008a1c <outword+0xc>
7f008ada:	f090 9950 	lw	v0,-32624(s1)
7f008ade:	4aff      	addiu	v0,-1
7f008ae0:	9308      	lw	v1,32(sp)
7f008ae2:	e26b      	subu	v0,v1
7f008ae4:	e049      	addu	v0,s0,v0
7f008ae6:	f090 d950 	sw	v0,-32624(s1)
7f008aea:	5247      	slti	v0,71
7f008aec:	612a      	btnez	7f008b42 <outword+0x132>
7f008aee:	b352      	lw	v1,7f008c34 <outword+0x224>
7f008af0:	9b45      	lw	v0,20(v1)
7f008af2:	4aff      	addiu	v0,-1
7f008af4:	db45      	sw	v0,20(v1)
7f008af6:	5200      	slti	v0,0
7f008af8:	6107      	btnez	7f008b08 <outword+0xf8>
7f008afa:	6743      	move	v0,v1
7f008afc:	9b66      	lw	v1,24(v1)
7f008afe:	6c0a      	li	a0,10
7f008b00:	c380      	sb	a0,0(v1)
7f008b02:	4b01      	addiu	v1,1
7f008b04:	da66      	sw	v1,24(v0)
7f008b06:	1019      	b	7f008b3a <outword+0x12a>
7f008b08:	b34b      	lw	v1,7f008c34 <outword+0x224>
7f008b0a:	ab92      	lhu	a0,36(v1)
7f008b0c:	6b80      	li	v1,128
7f008b0e:	eb8c      	and	v1,a0
7f008b10:	2310      	beqz	v1,7f008b32 <outword+0x122>
7f008b12:	ea4b      	neg	v0
7f008b14:	b348      	lw	v1,7f008c34 <outword+0x224>
7f008b16:	9b68      	lw	v1,32(v1)
7f008b18:	ea62      	slt	v0,v1
7f008b1a:	600b      	bteqz	7f008b32 <outword+0x122>
7f008b1c:	b346      	lw	v1,7f008c34 <outword+0x224>
7f008b1e:	9b46      	lw	v0,24(v1)
7f008b20:	6c0a      	li	a0,10
7f008b22:	c280      	sb	a0,0(v0)
7f008b24:	9b46      	lw	v0,24(v1)
7f008b26:	a280      	lbu	a0,0(v0)
7f008b28:	43a7      	addiu	a1,v1,7
7f008b2a:	181e 2788 	jal	7f009e20 <_flsbuf>
7f008b2e:	4d0d      	addiu	a1,13
7f008b30:	1004      	b	7f008b3a <outword+0x12a>
7f008b32:	b542      	lw	a1,7f008c38 <outword+0x228>
7f008b34:	181e 2788 	jal	7f009e20 <_flsbuf>
7f008b38:	6c0a      	li	a0,10
7f008b3a:	6a00      	li	v0,0
7f008b3c:	f090 d950 	sw	v0,-32624(s1)
7f008b40:	1076      	b	7f008c2e <outword+0x21e>
7f008b42:	4287      	addiu	a0,v0,7
7f008b44:	4c03      	addiu	a0,3
7f008b46:	b33f      	lw	v1,7f008c40 <outword+0x230>
7f008b48:	ec78      	mult	a0,v1
7f008b4a:	eb10      	mfhi	v1
7f008b4c:	336b      	sra	v1,2
7f008b4e:	f7c0 3483 	sra	a0,31
7f008b52:	e38f      	subu	v1,a0
7f008b54:	3064      	sll	s0,v1,1
7f008b56:	336c      	sll	v1,3
7f008b58:	e061      	addu	s0,v1
7f008b5a:	4a08      	addiu	v0,8
7f008b5c:	f7c0 3443 	sra	a0,v0,31
7f008b60:	6b07      	li	v1,7
7f008b62:	eb8c      	and	v1,a0
7f008b64:	e349      	addu	v0,v1,v0
7f008b66:	324f      	sra	v0,3
7f008b68:	324c      	sll	v0,3
7f008b6a:	e842      	slt	s0,v0
7f008b6c:	6132      	btnez	7f008bd2 <outword+0x1c2>
7f008b6e:	b332      	lw	v1,7f008c34 <outword+0x224>
7f008b70:	9b45      	lw	v0,20(v1)
7f008b72:	4aff      	addiu	v0,-1
7f008b74:	db45      	sw	v0,20(v1)
7f008b76:	5200      	slti	v0,0
7f008b78:	6107      	btnez	7f008b88 <outword+0x178>
7f008b7a:	6743      	move	v0,v1
7f008b7c:	9b66      	lw	v1,24(v1)
7f008b7e:	6c09      	li	a0,9
7f008b80:	c380      	sb	a0,0(v1)
7f008b82:	4b01      	addiu	v1,1
7f008b84:	da66      	sw	v1,24(v0)
7f008b86:	1016      	b	7f008bb4 <outword+0x1a4>
7f008b88:	b32b      	lw	v1,7f008c34 <outword+0x224>
7f008b8a:	ab92      	lhu	a0,36(v1)
7f008b8c:	6b80      	li	v1,128
7f008b8e:	eb8c      	and	v1,a0
7f008b90:	230d      	beqz	v1,7f008bac <outword+0x19c>
7f008b92:	ea4b      	neg	v0
7f008b94:	b328      	lw	v1,7f008c34 <outword+0x224>
7f008b96:	9b68      	lw	v1,32(v1)
7f008b98:	ea62      	slt	v0,v1
7f008b9a:	6008      	bteqz	7f008bac <outword+0x19c>
7f008b9c:	b326      	lw	v1,7f008c34 <outword+0x224>
7f008b9e:	9b46      	lw	v0,24(v1)
7f008ba0:	6c09      	li	a0,9
7f008ba2:	c280      	sb	a0,0(v0)
7f008ba4:	9b46      	lw	v0,24(v1)
7f008ba6:	4a01      	addiu	v0,1
7f008ba8:	db46      	sw	v0,24(v1)
7f008baa:	1004      	b	7f008bb4 <outword+0x1a4>
7f008bac:	b523      	lw	a1,7f008c38 <outword+0x228>
7f008bae:	181e 2788 	jal	7f009e20 <_flsbuf>
7f008bb2:	6c09      	li	a0,9
7f008bb4:	f090 9950 	lw	v0,-32624(s1)
7f008bb8:	4a08      	addiu	v0,8
7f008bba:	f7c0 3443 	sra	a0,v0,31
7f008bbe:	6b07      	li	v1,7
7f008bc0:	eb8c      	and	v1,a0
7f008bc2:	e349      	addu	v0,v1,v0
7f008bc4:	324f      	sra	v0,3
7f008bc6:	324c      	sll	v0,3
7f008bc8:	f090 d950 	sw	v0,-32624(s1)
7f008bcc:	4a08      	addiu	v0,8
7f008bce:	e842      	slt	s0,v0
7f008bd0:	60ce      	bteqz	7f008b6e <outword+0x15e>
7f008bd2:	f090 9950 	lw	v0,-32624(s1)
7f008bd6:	ea02      	slt	v0,s0
7f008bd8:	602a      	bteqz	7f008c2e <outword+0x21e>
7f008bda:	b317      	lw	v1,7f008c34 <outword+0x224>
7f008bdc:	9b45      	lw	v0,20(v1)
7f008bde:	4aff      	addiu	v0,-1
7f008be0:	db45      	sw	v0,20(v1)
7f008be2:	5200      	slti	v0,0
7f008be4:	6107      	btnez	7f008bf4 <outword+0x1e4>
7f008be6:	6743      	move	v0,v1
7f008be8:	9b66      	lw	v1,24(v1)
7f008bea:	6c20      	li	a0,32
7f008bec:	c380      	sb	a0,0(v1)
7f008bee:	4b01      	addiu	v1,1
7f008bf0:	da66      	sw	v1,24(v0)
7f008bf2:	1016      	b	7f008c20 <outword+0x210>
7f008bf4:	b310      	lw	v1,7f008c34 <outword+0x224>
7f008bf6:	ab92      	lhu	a0,36(v1)
7f008bf8:	6b80      	li	v1,128
7f008bfa:	eb8c      	and	v1,a0
7f008bfc:	230d      	beqz	v1,7f008c18 <outword+0x208>
7f008bfe:	ea4b      	neg	v0
7f008c00:	b30d      	lw	v1,7f008c34 <outword+0x224>
7f008c02:	9b68      	lw	v1,32(v1)
7f008c04:	ea62      	slt	v0,v1
7f008c06:	6008      	bteqz	7f008c18 <outword+0x208>
7f008c08:	b30b      	lw	v1,7f008c34 <outword+0x224>
7f008c0a:	9b46      	lw	v0,24(v1)
7f008c0c:	6c20      	li	a0,32
7f008c0e:	c280      	sb	a0,0(v0)
7f008c10:	9b46      	lw	v0,24(v1)
7f008c12:	4a01      	addiu	v0,1
7f008c14:	db46      	sw	v0,24(v1)
7f008c16:	1004      	b	7f008c20 <outword+0x210>
7f008c18:	b508      	lw	a1,7f008c38 <outword+0x228>
7f008c1a:	181e 2788 	jal	7f009e20 <_flsbuf>
7f008c1e:	6c20      	li	a0,32
7f008c20:	f090 9950 	lw	v0,-32624(s1)
7f008c24:	4a01      	addiu	v0,1
7f008c26:	f090 d950 	sw	v0,-32624(s1)
7f008c2a:	ea02      	slt	v0,s0
7f008c2c:	61d6      	btnez	7f008bda <outword+0x1ca>
7f008c2e:	6474      	restore	32,ra,s0-s1
7f008c30:	e8a0      	jrc	ra
7f008c32:	6500      	nop
7f008c34:	e618      	daddu	a2,s0
7f008c36:	7f00      	sd	s0,0(a3)
7f008c38:	e62c      	daddu	v1,a2,s1
7f008c3a:	7f00      	sd	s0,0(a3)
7f008c3c:	e514      	daddu	a1,s0
7f008c3e:	7f00      	sd	s0,0(a3)
7f008c40:	6667      	0x6667
7f008c42:	6666      	0x6666

7f008c44 <tputword>:
7f008c44:	64c3      	save	24,ra
7f008c46:	675c      	move	v0,gp
7f008c48:	f090 9a44 	lw	v0,-32636(v0)
7f008c4c:	b308      	lw	v1,7f008c6c <tputword+0x28>
7f008c4e:	e349      	addu	v0,v1,v0
7f008c50:	6b30      	li	v1,48
7f008c52:	c261      	sb	v1,1(v0)
7f008c54:	540a      	slti	a0,10
7f008c56:	6a2a      	li	v0,42
7f008c58:	6003      	bteqz	7f008c60 <tputword+0x1c>
7f008c5a:	4c30      	addiu	a0,48
7f008c5c:	6744      	move	v0,a0
7f008c5e:	ea91      	seb	v0
7f008c60:	b403      	lw	a0,7f008c6c <tputword+0x28>
7f008c62:	181e 2284 	jal	7f008a10 <outword>
7f008c66:	c440      	sb	v0,0(a0)
7f008c68:	6443      	restore	24,ra
7f008c6a:	e8a0      	jrc	ra
7f008c6c:	1f54 7f01 	jalx	7a69fc04 <_start-0x49683fc>

7f008c70 <printdiff>:
7f008c70:	64f7      	save	56,ra,s0-s1
7f008c72:	671c      	move	s0,gp
7f008c74:	f0b0 9868 	lw	v1,-32600(s0)
7f008c78:	f0b0 9854 	lw	v0,-32588(s0)
7f008c7c:	3248      	sll	v0,2
7f008c7e:	b459      	lw	a0,7f008de0 <printdiff+0x170>
7f008c80:	e449      	addu	v0,a0,v0
7f008c82:	da60      	sw	v1,0(v0)
7f008c84:	6a30      	li	v0,48
7f008c86:	c340      	sb	v0,0(v1)
7f008c88:	6a00      	li	v0,0
7f008c8a:	f090 d850 	sw	v0,-32624(s0)
7f008c8e:	f0b0 983c 	lw	s1,-32580(s0)
7f008c92:	d207      	sw	v0,28(sp)
7f008c94:	d208      	sw	v0,32(sp)
7f008c96:	d206      	sw	v0,24(sp)
7f008c98:	d204      	sw	v0,16(sp)
7f008c9a:	1036      	b	7f008d08 <printdiff+0x98>
7f008c9c:	f0b0 9854 	lw	v0,-32588(s0)
7f008ca0:	e942      	slt	s1,v0
7f008ca2:	6029      	bteqz	7f008cf6 <printdiff+0x86>
7f008ca4:	b24f      	lw	v0,7f008de0 <printdiff+0x170>
7f008ca6:	9404      	lw	a0,16(sp)
7f008ca8:	3388      	sll	v1,a0,2
7f008caa:	e26d      	addu	v1,v0,v1
7f008cac:	3428      	sll	a0,s1,2
7f008cae:	e289      	addu	v0,a0
7f008cb0:	9b80      	lw	a0,0(v1)
7f008cb2:	181e 2109 	jal	7f008424 <wordcomp>
7f008cb6:	9aa0      	lw	a1,0(v0)
7f008cb8:	2a1c      	bnez	v0,7f008cf2 <printdiff+0x82>
7f008cba:	9206      	lw	v0,24(sp)
7f008cbc:	2a06      	bnez	v0,7f008cca <printdiff+0x5a>
7f008cbe:	b44a      	lw	a0,7f008de4 <printdiff+0x174>
7f008cc0:	181e 28ee 	jal	7f00a3b8 <puts>
7f008cc4:	6500      	nop
7f008cc6:	6b01      	li	v1,1
7f008cc8:	d306      	sw	v1,24(sp)
7f008cca:	9404      	lw	a0,16(sp)
7f008ccc:	3288      	sll	v0,a0,2
7f008cce:	b345      	lw	v1,7f008de0 <printdiff+0x170>
7f008cd0:	e349      	addu	v0,v1,v0
7f008cd2:	d205      	sw	v0,20(sp)
7f008cd4:	181e 2284 	jal	7f008a10 <outword>
7f008cd8:	9a80      	lw	a0,0(v0)
7f008cda:	6a00      	li	v0,0
7f008cdc:	9405      	lw	a0,20(sp)
7f008cde:	dc40      	sw	v0,0(a0)
7f008ce0:	9304      	lw	v1,16(sp)
7f008ce2:	4b01      	addiu	v1,1
7f008ce4:	d304      	sw	v1,16(sp)
7f008ce6:	3328      	sll	v1,s1,2
7f008ce8:	b43e      	lw	a0,7f008de0 <printdiff+0x170>
7f008cea:	e46d      	addu	v1,a0,v1
7f008cec:	db40      	sw	v0,0(v1)
7f008cee:	4901      	addiu	s1,1
7f008cf0:	100b      	b	7f008d08 <printdiff+0x98>
7f008cf2:	5200      	slti	v0,0
7f008cf4:	6006      	bteqz	7f008d02 <printdiff+0x92>
7f008cf6:	9204      	lw	v0,16(sp)
7f008cf8:	4a01      	addiu	v0,1
7f008cfa:	d204      	sw	v0,16(sp)
7f008cfc:	6b01      	li	v1,1
7f008cfe:	d308      	sw	v1,32(sp)
7f008d00:	1003      	b	7f008d08 <printdiff+0x98>
7f008d02:	4901      	addiu	s1,1
7f008d04:	6c01      	li	a0,1
7f008d06:	d407      	sw	a0,28(sp)
7f008d08:	f090 9840 	lw	v0,-32640(s0)
7f008d0c:	9304      	lw	v1,16(sp)
7f008d0e:	eb42      	slt	v1,v0
7f008d10:	61c5      	btnez	7f008c9c <printdiff+0x2c>
7f008d12:	181e 20ce 	jal	7f008338 <endline>
7f008d16:	6500      	nop
7f008d18:	9408      	lw	a0,32(sp)
7f008d1a:	241b      	beqz	a0,7f008d52 <printdiff+0xe2>
7f008d1c:	b433      	lw	a0,7f008de8 <printdiff+0x178>
7f008d1e:	181e 28ee 	jal	7f00a3b8 <puts>
7f008d22:	6500      	nop
7f008d24:	f090 9840 	lw	v0,-32640(s0)
7f008d28:	5201      	slti	v0,1
7f008d2a:	6110      	btnez	7f008d4c <printdiff+0xdc>
7f008d2c:	b12d      	lw	s1,7f008de0 <printdiff+0x170>
7f008d2e:	6a00      	li	v0,0
7f008d30:	d204      	sw	v0,16(sp)
7f008d32:	9980      	lw	a0,0(s1)
7f008d34:	2403      	beqz	a0,7f008d3c <printdiff+0xcc>
7f008d36:	181e 2284 	jal	7f008a10 <outword>
7f008d3a:	6500      	nop
7f008d3c:	9304      	lw	v1,16(sp)
7f008d3e:	4b01      	addiu	v1,1
7f008d40:	d304      	sw	v1,16(sp)
7f008d42:	4904      	addiu	s1,4
7f008d44:	f090 9840 	lw	v0,-32640(s0)
7f008d48:	eb42      	slt	v1,v0
7f008d4a:	61f3      	btnez	7f008d32 <printdiff+0xc2>
7f008d4c:	181e 20ce 	jal	7f008338 <endline>
7f008d50:	6500      	nop
7f008d52:	9407      	lw	a0,28(sp)
7f008d54:	241f      	beqz	a0,7f008d94 <printdiff+0x124>
7f008d56:	b426      	lw	a0,7f008dec <printdiff+0x17c>
7f008d58:	181e 28ee 	jal	7f00a3b8 <puts>
7f008d5c:	6500      	nop
7f008d5e:	f0b0 983c 	lw	s1,-32580(s0)
7f008d62:	f0b0 9854 	lw	v0,-32588(s0)
7f008d66:	e942      	slt	s1,v0
7f008d68:	6012      	bteqz	7f008d8e <printdiff+0x11e>
7f008d6a:	3328      	sll	v1,s1,2
7f008d6c:	b21d      	lw	v0,7f008de0 <printdiff+0x170>
7f008d6e:	e349      	addu	v0,v1,v0
7f008d70:	d204      	sw	v0,16(sp)
7f008d72:	9204      	lw	v0,16(sp)
7f008d74:	9a80      	lw	a0,0(v0)
7f008d76:	2403      	beqz	a0,7f008d7e <printdiff+0x10e>
7f008d78:	181e 2284 	jal	7f008a10 <outword>
7f008d7c:	6500      	nop
7f008d7e:	4901      	addiu	s1,1
7f008d80:	9304      	lw	v1,16(sp)
7f008d82:	4b04      	addiu	v1,4
7f008d84:	d304      	sw	v1,16(sp)
7f008d86:	f0b0 9854 	lw	v0,-32588(s0)
7f008d8a:	e942      	slt	s1,v0
7f008d8c:	61f2      	btnez	7f008d72 <printdiff+0x102>
7f008d8e:	181e 20ce 	jal	7f008338 <endline>
7f008d92:	6500      	nop
7f008d94:	f090 9860 	lw	v1,-32640(s0)
7f008d98:	f0b0 985c 	lw	v0,-32580(s0)
7f008d9c:	eb42      	slt	v1,v0
7f008d9e:	601d      	bteqz	7f008dda <printdiff+0x16a>
7f008da0:	b414      	lw	a0,7f008df0 <printdiff+0x180>
7f008da2:	181e 28ee 	jal	7f00a3b8 <puts>
7f008da6:	6500      	nop
7f008da8:	f090 9820 	lw	s1,-32640(s0)
7f008dac:	f0b0 985c 	lw	v0,-32580(s0)
7f008db0:	e942      	slt	s1,v0
7f008db2:	6010      	bteqz	7f008dd4 <printdiff+0x164>
7f008db4:	3328      	sll	v1,s1,2
7f008db6:	b20b      	lw	v0,7f008de0 <printdiff+0x170>
7f008db8:	e349      	addu	v0,v1,v0
7f008dba:	d204      	sw	v0,16(sp)
7f008dbc:	9204      	lw	v0,16(sp)
7f008dbe:	181e 2284 	jal	7f008a10 <outword>
7f008dc2:	9a80      	lw	a0,0(v0)
7f008dc4:	4901      	addiu	s1,1
7f008dc6:	9304      	lw	v1,16(sp)
7f008dc8:	4b04      	addiu	v1,4
7f008dca:	d304      	sw	v1,16(sp)
7f008dcc:	f0b0 985c 	lw	v0,-32580(s0)
7f008dd0:	e942      	slt	s1,v0
7f008dd2:	61f4      	btnez	7f008dbc <printdiff+0x14c>
7f008dd4:	181e 20ce 	jal	7f008338 <endline>
7f008dd8:	6500      	nop
7f008dda:	6477      	restore	56,ra,s0-s1
7f008ddc:	e8a0      	jrc	ra
7f008dde:	6500      	nop
7f008de0:	20cc      	beqz	s0,7f008d7a <printdiff+0x10a>
7f008de2:	7f01      	sd	s0,8(a3)
7f008de4:	e0c4      	daddu	s1,s0,a2
7f008de6:	7f00      	sd	s0,0(a3)
7f008de8:	e0dc      	daddu	a3,s0,a2
7f008dea:	7f00      	sd	s0,0(a3)
7f008dec:	e0f8      	daddu	a2,s0,a3
7f008dee:	7f00      	sd	s0,0(a3)
7f008df0:	e114      	daddu	a1,s1,s0
7f008df2:	7f00      	sd	s0,0(a3)

7f008df4 <numways>:
7f008df4:	64a1      	save	8,s0
7f008df6:	675c      	move	v0,gp
7f008df8:	f030 9a54 	lw	v0,-32716(v0)
7f008dfc:	5201      	slti	v0,1
7f008dfe:	6103      	btnez	7f008e06 <numways+0x12>
7f008e00:	e58b      	subu	v0,a1,a0
7f008e02:	324f      	sra	v0,3
7f008e04:	102c      	b	7f008e5e <numways+0x6a>
7f008e06:	6b01      	li	v1,1
7f008e08:	b217      	lw	v0,7f008e64 <numways+0x70>
7f008e0a:	c270      	sb	v1,16(v0)
7f008e0c:	eca3      	sltu	a0,a1
7f008e0e:	6a00      	li	v0,0
7f008e10:	611e      	btnez	7f008e4e <numways+0x5a>
7f008e12:	1025      	b	7f008e5e <numways+0x6a>
7f008e14:	6e00      	li	a2,0
7f008e16:	c3c0      	sb	a2,0(v1)
7f008e18:	4b01      	addiu	v1,1
7f008e1a:	ebea      	cmp	v1,a3
7f008e1c:	61fb      	btnez	7f008e14 <numways+0x20>
7f008e1e:	9c61      	lw	v1,4(a0)
7f008e20:	b611      	lw	a2,7f008e64 <numways+0x70>
7f008e22:	e66d      	addu	v1,a2,v1
7f008e24:	83e0      	lb	a3,0(v1)
7f008e26:	47c1      	addiu	a2,a3,1
7f008e28:	c3c0      	sb	a2,0(v1)
7f008e2a:	67c4      	move	a2,a0
7f008e2c:	2f08      	bnez	a3,7f008e3e <numways+0x4a>
7f008e2e:	9ec0      	lw	a2,0(a2)
7f008e30:	9e61      	lw	v1,4(a2)
7f008e32:	b70d      	lw	a3,7f008e64 <numways+0x70>
7f008e34:	e76d      	addu	v1,a3,v1
7f008e36:	83e0      	lb	a3,0(v1)
7f008e38:	4701      	addiu	s0,a3,1
7f008e3a:	c300      	sb	s0,0(v1)
7f008e3c:	27f8      	beqz	a3,7f008e2e <numways+0x3a>
7f008e3e:	b30b      	lw	v1,7f008e68 <numways+0x74>
7f008e40:	e67b      	subu	a2,v1
7f008e42:	5e01      	sltiu	a2,1
7f008e44:	67d8      	move	a2,t8
7f008e46:	e2c9      	addu	v0,a2
7f008e48:	4c08      	addiu	a0,8
7f008e4a:	eca3      	sltu	a0,a1
7f008e4c:	6008      	bteqz	7f008e5e <numways+0x6a>
7f008e4e:	b308      	lw	v1,7f008e6c <numways+0x78>
7f008e50:	43c8      	addiu	a2,v1,-8
7f008e52:	4ef8      	addiu	a2,-8
7f008e54:	ee63      	sltu	a2,v1
7f008e56:	60e3      	bteqz	7f008e1e <numways+0x2a>
7f008e58:	67e3      	move	a3,v1
7f008e5a:	6766      	move	v1,a2
7f008e5c:	17db      	b	7f008e14 <numways+0x20>
7f008e5e:	6421      	restore	8,s0
7f008e60:	e8a0      	jrc	ra
7f008e62:	6500      	nop
7f008e64:	f19c 7f00 	sd	s0,-7808(a3)
7f008e68:	f1c0 7f00 	sd	s0,448(a3)
7f008e6c:	f1ac 7f00 	sd	s0,24992(a3)

7f008e70 <evalboard>:
7f008e70:	f008 64f8 	save	a0-a1,64,ra,s0-s1
7f008e74:	6a00      	li	v0,0
7f008e76:	677c      	move	v1,gp
7f008e78:	f0b0 db44 	sw	v0,-32604(v1)
7f008e7c:	181e 21d5 	jal	7f008754 <makelists>
7f008e80:	6500      	nop
7f008e82:	6a00      	li	v0,0
7f008e84:	d20a      	sw	v0,40(sp)
7f008e86:	677c      	move	v1,gp
7f008e88:	f0b0 9b04 	lw	s0,-32604(v1)
7f008e8c:	9310      	lw	v1,64(sp)
7f008e8e:	ebc0      	jalrc	v1
7f008e90:	2270      	beqz	v0,7f008f72 <evalboard+0x102>
7f008e92:	4041      	addiu	v0,s0,1
7f008e94:	3248      	sll	v0,2
7f008e96:	b339      	lw	v1,7f008f78 <evalboard+0x108>
7f008e98:	e349      	addu	v0,v1,v0
7f008e9a:	9a60      	lw	v1,0(v0)
7f008e9c:	d306      	sw	v1,24(sp)
7f008e9e:	d209      	sw	v0,36(sp)
7f008ea0:	1002      	b	7f008ea6 <evalboard+0x36>
7f008ea2:	9008      	lw	s0,32(sp)
7f008ea4:	d106      	sw	s1,24(sp)
7f008ea6:	4041      	addiu	v0,s0,1
7f008ea8:	d208      	sw	v0,32(sp)
7f008eaa:	9409      	lw	a0,36(sp)
7f008eac:	9306      	lw	v1,24(sp)
7f008eae:	dc60      	sw	v1,0(a0)
7f008eb0:	677c      	move	v1,gp
7f008eb2:	f090 9b44 	lw	v0,-32636(v1)
7f008eb6:	ea0e      	xor	v0,s0
7f008eb8:	2a17      	bnez	v0,7f008ee8 <evalboard+0x78>
7f008eba:	5003      	slti	s0,3
7f008ebc:	6a11      	li	v0,17
7f008ebe:	d208      	sw	v0,32(sp)
7f008ec0:	614e      	btnez	7f008f5e <evalboard+0xee>
7f008ec2:	3008      	sll	s0,2
7f008ec4:	b22d      	lw	v0,7f008f78 <evalboard+0x108>
7f008ec6:	e209      	addu	v0,s0
7f008ec8:	9a80      	lw	a0,0(v0)
7f008eca:	181e 237d 	jal	7f008df4 <numways>
7f008ece:	9506      	lw	a1,24(sp)
7f008ed0:	6b11      	li	v1,17
7f008ed2:	d308      	sw	v1,32(sp)
7f008ed4:	2244      	beqz	v0,7f008f5e <evalboard+0xee>
7f008ed6:	6782      	move	a0,v0
7f008ed8:	9211      	lw	v0,68(sp)
7f008eda:	eac0      	jalrc	v0
7f008edc:	930a      	lw	v1,40(sp)
7f008ede:	4b01      	addiu	v1,1
7f008ee0:	d30a      	sw	v1,40(sp)
7f008ee2:	6a11      	li	v0,17
7f008ee4:	d208      	sw	v0,32(sp)
7f008ee6:	103b      	b	7f008f5e <evalboard+0xee>
7f008ee8:	b225      	lw	v0,7f008f7c <evalboard+0x10c>
7f008eea:	9308      	lw	v1,32(sp)
7f008eec:	e349      	addu	v0,v1,v0
7f008eee:	8240      	lb	v0,0(v0)
7f008ef0:	b324      	lw	v1,7f008f80 <evalboard+0x110>
7f008ef2:	e349      	addu	v0,v1,v0
7f008ef4:	f79f 825f 	lb	v0,-97(v0)
7f008ef8:	d207      	sw	v0,28(sp)
7f008efa:	7210      	cmpi	v0,16
7f008efc:	6030      	bteqz	7f008f5e <evalboard+0xee>
7f008efe:	4cfc      	addiu	a0,-4
7f008f00:	9c80      	lw	a0,0(a0)
7f008f02:	d405      	sw	a0,20(sp)
7f008f04:	9206      	lw	v0,24(sp)
7f008f06:	ec43      	sltu	a0,v0
7f008f08:	602a      	bteqz	7f008f5e <evalboard+0xee>
7f008f0a:	6722      	move	s1,v0
7f008f0c:	9305      	lw	v1,20(sp)
7f008f0e:	9b41      	lw	v0,4(v1)
7f008f10:	3250      	sll	v0,4
7f008f12:	b31d      	lw	v1,7f008f84 <evalboard+0x114>
7f008f14:	e26d      	addu	v1,v0,v1
7f008f16:	d304      	sw	v1,16(sp)
7f008f18:	9007      	lw	s0,28(sp)
7f008f1a:	9304      	lw	v1,16(sp)
7f008f1c:	e309      	addu	v0,v1,s0
7f008f1e:	8240      	lb	v0,0(v0)
7f008f20:	220e      	beqz	v0,7f008f3e <evalboard+0xce>
7f008f22:	9205      	lw	v0,20(sp)
7f008f24:	d940      	sw	v0,0(s1)
7f008f26:	d901      	sw	s0,4(s1)
7f008f28:	4908      	addiu	s1,8
7f008f2a:	b218      	lw	v0,7f008f88 <evalboard+0x118>
7f008f2c:	e943      	sltu	s1,v0
7f008f2e:	6107      	btnez	7f008f3e <evalboard+0xce>
7f008f30:	b417      	lw	a0,7f008f8c <evalboard+0x11c>
7f008f32:	181e 28ee 	jal	7f00a3b8 <puts>
7f008f36:	6500      	nop
7f008f38:	181e 20e8 	jal	7f0083a0 <goodbye>
7f008f3c:	6c01      	li	a0,1
7f008f3e:	b215      	lw	v0,7f008f90 <evalboard+0x120>
7f008f40:	e201      	addu	s0,v0,s0
7f008f42:	8000      	lb	s0,0(s0)
7f008f44:	7010      	cmpi	s0,16
7f008f46:	61e9      	btnez	7f008f1a <evalboard+0xaa>
7f008f48:	9305      	lw	v1,20(sp)
7f008f4a:	4b08      	addiu	v1,8
7f008f4c:	d305      	sw	v1,20(sp)
7f008f4e:	9206      	lw	v0,24(sp)
7f008f50:	eb43      	sltu	v1,v0
7f008f52:	61dc      	btnez	7f008f0c <evalboard+0x9c>
7f008f54:	9309      	lw	v1,36(sp)
7f008f56:	4b04      	addiu	v1,4
7f008f58:	d309      	sw	v1,36(sp)
7f008f5a:	ea2a      	cmp	v0,s1
7f008f5c:	61a2      	btnez	7f008ea2 <evalboard+0x32>
7f008f5e:	677c      	move	v1,gp
7f008f60:	f0b0 9b44 	lw	v0,-32604(v1)
7f008f64:	9308      	lw	v1,32(sp)
7f008f66:	ea62      	slt	v0,v1
7f008f68:	618e      	btnez	7f008e86 <evalboard+0x16>
7f008f6a:	9310      	lw	v1,64(sp)
7f008f6c:	ebc0      	jalrc	v1
7f008f6e:	2af7      	bnez	v0,7f008f5e <evalboard+0xee>
7f008f70:	178a      	b	7f008e86 <evalboard+0x16>
7f008f72:	920a      	lw	v0,40(sp)
7f008f74:	6478      	restore	64,ra,s0-s1
7f008f76:	e8a0      	jrc	ra
7f008f78:	f800      	ld	s0,0(sp)
7f008f7a:	7f00      	sd	s0,0(a3)
7f008f7c:	1f54 7f01 	jalx	7a69fc04 <_start-0x49683fc>
7f008f80:	1f68 7f01 	jalx	746dfc04 <_start-0xa9283fc>
7f008f84:	1f84 7f01 	jalx	7271fc04 <_start-0xc8e83fc>
7f008f88:	f800      	ld	s0,0(sp)
7f008f8a:	7f00      	sd	s0,0(a3)
7f008f8c:	e130      	daddu	a0,s1,s1
7f008f8e:	7f00      	sd	s0,0(a3)
7f008f90:	f18c 7f00 	sd	s0,24960(a3)

7f008f94 <main>:
7f008f94:	f008 64f4 	save	a0-a1,32,ra,s0-s1
7f008f98:	f5a0 b100 	lw	s1,7f009538 <main+0x5a4>
7f008f9c:	671c      	move	s0,gp
7f008f9e:	f090 4814 	addiu	s0,-32620
7f008fa2:	8989      	lh	a0,18(s1)
7f008fa4:	f580 b518 	lw	a1,7f00953c <main+0x5a8>
7f008fa8:	1c1e 2857 	jalx	7f00a15c <ioctl>
7f008fac:	67d0      	move	a2,s0
7f008fae:	6791      	move	a0,s1
7f008fb0:	181e 29e8 	jal	7f00a7a0 <setbuf>
7f008fb4:	6d00      	li	a1,0
7f008fb6:	677c      	move	v1,gp
7f008fb8:	f090 9b54 	lw	v0,-32620(v1)
7f008fbc:	f090 db5c 	sw	v0,-32612(v1)
7f008fc0:	f090 4b1c 	addiu	v1,-32612
7f008fc4:	a842      	lhu	v0,4(s0)
7f008fc6:	f560 b41c 	lw	a0,7f009540 <main+0x5ac>
7f008fca:	1c1e 29f2 	jalx	7f00a7c8 <setjmp>
7f008fce:	cb42      	sh	v0,4(v1)
7f008fd0:	2203      	beqz	v0,7f008fd8 <main+0x44>
7f008fd2:	181e 20e8 	jal	7f0083a0 <goodbye>
7f008fd6:	6c00      	li	a0,0
7f008fd8:	f560 b50c 	lw	a1,7f009544 <main+0x5b0>
7f008fdc:	181e 2a57 	jal	7f00a95c <signal>
7f008fe0:	6c02      	li	a0,2
7f008fe2:	181e 2a8f 	jal	7f00aa3c <time>
7f008fe6:	6c00      	li	a0,0
7f008fe8:	679c      	move	a0,gp
7f008fea:	f0b0 dc4c 	sw	v0,-32596(a0)
7f008fee:	9509      	lw	a1,36(sp)
7f008ff0:	9d40      	lw	v0,0(a1)
7f008ff2:	8240      	lb	v0,0(v0)
7f008ff4:	7261      	cmpi	v0,97
7f008ff6:	6034      	bteqz	7f009060 <main+0xcc>
7f008ff8:	f540 b410 	lw	a0,7f009548 <main+0x5b4>
7f008ffc:	1c1e 28d5 	jalx	7f00a354 <open>
7f009000:	6d01      	li	a1,1
7f009002:	677c      	move	v1,gp
7f009004:	f010 db58 	sw	v0,-32744(v1)
7f009008:	5200      	slti	v0,0
7f00900a:	612a      	btnez	7f009060 <main+0xcc>
7f00900c:	181e 2850 	jal	7f00a140 <getlogin>
7f009010:	6500      	nop
7f009012:	f520 b31c 	lw	v1,7f00954c <main+0x5b8>
7f009016:	1001      	b	7f00901a <main+0x86>
7f009018:	6770      	move	v1,s0
7f00901a:	8280      	lb	a0,0(v0)
7f00901c:	c380      	sb	a0,0(v1)
7f00901e:	4301      	addiu	s0,v1,1
7f009020:	4a01      	addiu	v0,1
7f009022:	2cfa      	bnez	a0,7f009018 <main+0x84>
7f009024:	6a09      	li	v0,9
7f009026:	679c      	move	a0,gp
7f009028:	f0b0 4c0c 	addiu	a0,-32596
7f00902c:	181e 26d3 	jal	7f009b4c <ctime>
7f009030:	c340      	sb	v0,0(v1)
7f009032:	8260      	lb	v1,0(v0)
7f009034:	c060      	sb	v1,0(s0)
7f009036:	4801      	addiu	s0,1
7f009038:	4a01      	addiu	v0,1
7f00903a:	2bfb      	bnez	v1,7f009032 <main+0x9e>
7f00903c:	67bc      	move	a1,gp
7f00903e:	f010 9d98 	lw	a0,-32744(a1)
7f009042:	6d00      	li	a1,0
7f009044:	1c1e 2862 	jalx	7f00a188 <lseek>
7f009048:	6e02      	li	a2,2
7f00904a:	677c      	move	v1,gp
7f00904c:	f0b0 db50 	sw	v0,-32592(v1)
7f009050:	f010 9b98 	lw	a0,-32744(v1)
7f009054:	f4e0 b51c 	lw	a1,7f009550 <main+0x5bc>
7f009058:	45c1      	addiu	a2,a1,1
7f00905a:	1c1e 2aca 	jalx	7f00ab28 <write>
7f00905e:	e0db      	subu	a2,s0,a2
7f009060:	67bc      	move	a1,gp
7f009062:	f010 9d9c 	lw	a0,-32740(a1)
7f009066:	f4e0 b510 	lw	a1,7f009554 <main+0x5c0>
7f00906a:	181e 2800 	jal	7f00a000 <fopen>
7f00906e:	6500      	nop
7f009070:	677c      	move	v1,gp
7f009072:	f0d0 db48 	sw	v0,-32568(v1)
7f009076:	2a36      	bnez	v0,7f0090e4 <main+0x150>
7f009078:	f4e0 b400 	lw	a0,7f009558 <main+0x5c4>
7f00907c:	f010 9bbc 	lw	a1,-32740(v1)
7f009080:	181e 28e4 	jal	7f00a390 <printf>
7f009084:	6500      	nop
7f009086:	181e 20e8 	jal	7f0083a0 <goodbye>
7f00908a:	6c02      	li	a0,2
7f00908c:	102b      	b	7f0090e4 <main+0x150>
7f00908e:	4b01      	addiu	v1,1
7f009090:	9409      	lw	a0,36(sp)
7f009092:	dc61      	sw	v1,4(a0)
7f009094:	67bc      	move	a1,gp
7f009096:	f030 9d54 	lw	v0,-32716(a1)
7f00909a:	4a01      	addiu	v0,1
7f00909c:	f030 dd54 	sw	v0,-32716(a1)
7f0090a0:	9840      	lw	v0,0(s0)
7f0090a2:	8260      	lb	v1,0(v0)
7f0090a4:	4a01      	addiu	v0,1
7f0090a6:	d840      	sw	v0,0(s0)
7f0090a8:	732b      	cmpi	v1,43
7f0090aa:	60f4      	bteqz	7f009094 <main+0x100>
7f0090ac:	9208      	lw	v0,32(sp)
7f0090ae:	4aff      	addiu	v0,-1
7f0090b0:	d208      	sw	v0,32(sp)
7f0090b2:	4064      	addiu	v1,s0,4
7f0090b4:	d309      	sw	v1,36(sp)
7f0090b6:	9881      	lw	a0,4(s0)
7f0090b8:	8440      	lb	v0,0(a0)
7f0090ba:	722d      	cmpi	v0,45
7f0090bc:	6118      	btnez	7f0090ee <main+0x15a>
7f0090be:	181e 2579 	jal	7f0095e4 <atol>
7f0090c2:	4c01      	addiu	a0,1
7f0090c4:	3348      	sll	v1,v0,2
7f0090c6:	3258      	sll	v0,6
7f0090c8:	e26b      	subu	v0,v1
7f0090ca:	4a88      	addiu	v0,-120
7f0090cc:	f480 b310 	lw	v1,7f00955c <main+0x5c8>
7f0090d0:	db40      	sw	v0,0(v1)
7f0090d2:	5201      	slti	v0,1
7f0090d4:	6004      	bteqz	7f0090de <main+0x14a>
7f0090d6:	6b3c      	li	v1,60
7f0090d8:	f480 b204 	lw	v0,7f00955c <main+0x5c8>
7f0090dc:	da60      	sw	v1,0(v0)
7f0090de:	9408      	lw	a0,32(sp)
7f0090e0:	4cff      	addiu	a0,-1
7f0090e2:	d408      	sw	a0,32(sp)
7f0090e4:	9508      	lw	a1,32(sp)
7f0090e6:	5502      	slti	a1,2
7f0090e8:	6006      	bteqz	7f0090f6 <main+0x162>
7f0090ea:	9009      	lw	s0,36(sp)
7f0090ec:	100f      	b	7f00910c <main+0x178>
7f0090ee:	9208      	lw	v0,32(sp)
7f0090f0:	5202      	slti	v0,2
7f0090f2:	610c      	btnez	7f00910c <main+0x178>
7f0090f4:	d009      	sw	s0,36(sp)
7f0090f6:	9009      	lw	s0,36(sp)
7f0090f8:	4804      	addiu	s0,4
7f0090fa:	9409      	lw	a0,36(sp)
7f0090fc:	9c61      	lw	v1,4(a0)
7f0090fe:	8340      	lb	v0,0(v1)
7f009100:	722b      	cmpi	v0,43
7f009102:	60c5      	bteqz	7f00908e <main+0xfa>
7f009104:	722d      	cmpi	v0,45
7f009106:	f200 6012 	bteqz	7f00952e <main+0x59a>
7f00910a:	6704      	move	s0,a0
7f00910c:	181e 2198 	jal	7f008660 <setup>
7f009110:	6500      	nop
7f009112:	9508      	lw	a1,32(sp)
7f009114:	7501      	cmpi	a1,1
7f009116:	6061      	bteqz	7f0091da <main+0x246>
7f009118:	7505      	cmpi	a1,5
7f00911a:	6008      	bteqz	7f00912c <main+0x198>
7f00911c:	f440 b404 	lw	a0,7f009560 <main+0x5cc>
7f009120:	181e 28ee 	jal	7f00a3b8 <puts>
7f009124:	6500      	nop
7f009126:	181e 20e8 	jal	7f0083a0 <goodbye>
7f00912a:	6c03      	li	a0,3
7f00912c:	9841      	lw	v0,4(s0)
7f00912e:	8240      	lb	v0,0(v0)
7f009130:	f420 b314 	lw	v1,7f009564 <main+0x5d0>
7f009134:	c340      	sb	v0,0(v1)
7f009136:	f420 b314 	lw	v1,7f009568 <main+0x5d4>
7f00913a:	e349      	addu	v0,v1,v0
7f00913c:	a261      	lbu	v1,1(v0)
7f00913e:	6a02      	li	v0,2
7f009140:	ea6c      	and	v0,v1
7f009142:	221c      	beqz	v0,7f00917c <main+0x1e8>
7f009144:	6a01      	li	v0,1
7f009146:	f7c0 3343 	sra	v1,v0,31
7f00914a:	6c03      	li	a0,3
7f00914c:	67a3      	move	a1,v1
7f00914e:	ed8c      	and	a1,a0
7f009150:	e555      	addu	a1,v0
7f009152:	35ab      	sra	a1,2
7f009154:	4d01      	addiu	a1,1
7f009156:	35a8      	sll	a1,2
7f009158:	e0b5      	addu	a1,s0,a1
7f00915a:	f780 3362 	srl	v1,30
7f00915e:	e279      	addu	a2,v0,v1
7f009160:	eccc      	and	a0,a2
7f009162:	e46f      	subu	v1,a0,v1
7f009164:	9d80      	lw	a0,0(a1)
7f009166:	e46d      	addu	v1,a0,v1
7f009168:	8360      	lb	v1,0(v1)
7f00916a:	b4ff      	lw	a0,7f009564 <main+0x5d0>
7f00916c:	e291      	addu	a0,v0,a0
7f00916e:	c460      	sb	v1,0(a0)
7f009170:	b4fe      	lw	a0,7f009568 <main+0x5d4>
7f009172:	e46d      	addu	v1,a0,v1
7f009174:	a381      	lbu	a0,1(v1)
7f009176:	6b02      	li	v1,2
7f009178:	eb8c      	and	v1,a0
7f00917a:	2b05      	bnez	v1,7f009186 <main+0x1f2>
7f00917c:	b4fc      	lw	a0,7f00956c <main+0x5d8>
7f00917e:	181e 28ee 	jal	7f00a3b8 <puts>
7f009182:	6500      	nop
7f009184:	17cb      	b	7f00911c <main+0x188>
7f009186:	4a01      	addiu	v0,1
7f009188:	7210      	cmpi	v0,16
7f00918a:	61dd      	btnez	7f009146 <main+0x1b2>
7f00918c:	181e 2209 	jal	7f008824 <printboard>
7f009190:	6500      	nop
7f009192:	6a00      	li	v0,0
7f009194:	677c      	move	v1,gp
7f009196:	f090 db50 	sw	v0,-32624(v1)
7f00919a:	b4f6      	lw	a0,7f009570 <main+0x5dc>
7f00919c:	b5f6      	lw	a1,7f009574 <main+0x5e0>
7f00919e:	181e 239c 	jal	7f008e70 <evalboard>
7f0091a2:	6500      	nop
7f0091a4:	181e 20ce 	jal	7f008338 <endline>
7f0091a8:	6500      	nop
7f0091aa:	67bc      	move	a1,gp
7f0091ac:	f010 9d98 	lw	a0,-32744(a1)
7f0091b0:	5400      	slti	a0,0
7f0091b2:	6110      	btnez	7f0091d4 <main+0x240>
7f0091b4:	b0e7      	lw	s0,7f009550 <main+0x5bc>
7f0091b6:	b2f1      	lw	v0,7f009578 <main+0x5e4>
7f0091b8:	9a40      	lw	v0,0(v0)
7f0091ba:	d840      	sw	v0,0(s0)
7f0091bc:	f0b0 9db0 	lw	a1,-32592(a1)
7f0091c0:	1c1e 2862 	jalx	7f00a188 <lseek>
7f0091c4:	6e00      	li	a2,0
7f0091c6:	675c      	move	v0,gp
7f0091c8:	f010 9a98 	lw	a0,-32744(v0)
7f0091cc:	67b0      	move	a1,s0
7f0091ce:	1c1e 2aca 	jalx	7f00ab28 <write>
7f0091d2:	6e04      	li	a2,4
7f0091d4:	181e 20e8 	jal	7f0083a0 <goodbye>
7f0091d8:	6c00      	li	a0,0
7f0091da:	677c      	move	v1,gp
7f0091dc:	f090 4b1c 	addiu	v1,-32612
7f0091e0:	ab42      	lhu	v0,4(v1)
7f0091e2:	6c02      	li	a0,2
7f0091e4:	ea8d      	or	v0,a0
7f0091e6:	cb42      	sh	v0,4(v1)
7f0091e8:	b2d4      	lw	v0,7f009538 <main+0x5a4>
7f0091ea:	b5e5      	lw	a1,7f00957c <main+0x5e8>
7f0091ec:	67dc      	move	a2,gp
7f0091ee:	f030 4e1c 	addiu	a2,-32708
7f0091f2:	1c1e 2857 	jalx	7f00a15c <ioctl>
7f0091f6:	8a89      	lh	a0,18(v0)
7f0091f8:	2a0f      	bnez	v0,7f009218 <main+0x284>
7f0091fa:	677c      	move	v1,gp
7f0091fc:	f030 9b5c 	lw	v0,-32708(v1)
7f009200:	f002 6b00 	li	v1,4096
7f009204:	ea6c      	and	v0,v1
7f009206:	2208      	beqz	v0,7f009218 <main+0x284>
7f009208:	b2cc      	lw	v0,7f009538 <main+0x5a4>
7f00920a:	b5de      	lw	a1,7f009580 <main+0x5ec>
7f00920c:	67dc      	move	a2,gp
7f00920e:	f010 4e14 	addiu	a2,-32748
7f009212:	1c1e 2857 	jalx	7f00a15c <ioctl>
7f009216:	8a89      	lh	a0,18(v0)
7f009218:	181e 2127 	jal	7f00849c <printinst>
7f00921c:	6500      	nop
7f00921e:	67bc      	move	a1,gp
7f009220:	f0b0 9d8c 	lw	a0,-32596(a1)
7f009224:	181e 29b8 	jal	7f00a6e0 <srand>
7f009228:	6500      	nop
7f00922a:	1175      	b	7f009516 <main+0x582>
7f00922c:	6a00      	li	v0,0
7f00922e:	677c      	move	v1,gp
7f009230:	f0d0 db4c 	sw	v0,-32564(v1)
7f009234:	6783      	move	a0,v1
7f009236:	f090 4c08 	addiu	a0,-32632
7f00923a:	1c1e 28da 	jalx	7f00a368 <pipe>
7f00923e:	6500      	nop
7f009240:	2207      	beqz	v0,7f009250 <main+0x2bc>
7f009242:	b4d1      	lw	a0,7f009584 <main+0x5f0>
7f009244:	181e 28ee 	jal	7f00a3b8 <puts>
7f009248:	6500      	nop
7f00924a:	181e 20e8 	jal	7f0083a0 <goodbye>
7f00924e:	6c04      	li	a0,4
7f009250:	181e 21e5 	jal	7f008794 <genboard>
7f009254:	6500      	nop
7f009256:	6a00      	li	v0,0
7f009258:	679c      	move	a0,gp
7f00925a:	f0b0 dc54 	sw	v0,-32588(a0)
7f00925e:	f010 dc4c 	sw	v0,-32756(a0)
7f009262:	b2ca      	lw	v0,7f009588 <main+0x5f4>
7f009264:	f0b0 dc48 	sw	v0,-32600(a0)
7f009268:	b3c9      	lw	v1,7f00958c <main+0x5f8>
7f00926a:	1c1e 2827 	jalx	7f00a09c <fork>
7f00926e:	db40      	sw	v0,0(v1)
7f009270:	67bc      	move	a1,gp
7f009272:	f010 dd50 	sw	v0,-32752(a1)
7f009276:	2a58      	bnez	v0,7f009328 <main+0x394>
7f009278:	f090 9d88 	lw	a0,-32632(a1)
7f00927c:	1c1e 258b 	jalx	7f00962c <close>
7f009280:	6500      	nop
7f009282:	181e 20fe 	jal	7f0083f8 <clearscreen>
7f009286:	6500      	nop
7f009288:	181e 2209 	jal	7f008824 <printboard>
7f00928c:	6500      	nop
7f00928e:	b5c1      	lw	a1,7f009590 <main+0x5fc>
7f009290:	181e 2a57 	jal	7f00a95c <signal>
7f009294:	6c0e      	li	a0,14
7f009296:	b2b2      	lw	v0,7f00955c <main+0x5c8>
7f009298:	9a80      	lw	a0,0(v0)
7f00929a:	4a04      	addiu	v0,4
7f00929c:	677c      	move	v1,gp
7f00929e:	f0b0 db58 	sw	v0,-32584(v1)
7f0092a2:	181e 256d 	jal	7f0095b4 <alarm>
7f0092a6:	6500      	nop
7f0092a8:	b4bb      	lw	a0,7f009594 <main+0x600>
7f0092aa:	b5bc      	lw	a1,7f009598 <main+0x604>
7f0092ac:	181e 239c 	jal	7f008e70 <evalboard>
7f0092b0:	6500      	nop
7f0092b2:	181e 20fe 	jal	7f0083f8 <clearscreen>
7f0092b6:	6500      	nop
7f0092b8:	b4b5      	lw	a0,7f00958c <main+0x5f8>
7f0092ba:	675c      	move	v0,gp
7f0092bc:	f0b0 9ab4 	lw	a1,-32588(v0)
7f0092c0:	b7b7      	lw	a3,7f00959c <main+0x608>
7f0092c2:	181e 2978 	jal	7f00a5e0 <qsort>
7f0092c6:	6e04      	li	a2,4
7f0092c8:	677c      	move	v1,gp
7f0092ca:	f0b0 9b54 	lw	v0,-32588(v1)
7f0092ce:	5201      	slti	v0,1
7f0092d0:	6122      	btnez	7f009316 <main+0x382>
7f0092d2:	b1af      	lw	s1,7f00958c <main+0x5f8>
7f0092d4:	6800      	li	s0,0
7f0092d6:	2006      	beqz	s0,7f0092e4 <main+0x350>
7f0092d8:	f7ff 99bc 	lw	a1,-4(s1)
7f0092dc:	181e 2109 	jal	7f008424 <wordcomp>
7f0092e0:	9980      	lw	a0,0(s1)
7f0092e2:	2212      	beqz	v0,7f009308 <main+0x374>
7f0092e4:	99c0      	lw	a2,0(s1)
7f0092e6:	6746      	move	v0,a2
7f0092e8:	4a01      	addiu	v0,1
7f0092ea:	8260      	lb	v1,0(v0)
7f0092ec:	b49f      	lw	a0,7f009568 <main+0x5d4>
7f0092ee:	e46d      	addu	v1,a0,v1
7f0092f0:	a381      	lbu	a0,1(v1)
7f0092f2:	6b03      	li	v1,3
7f0092f4:	eb8c      	and	v1,a0
7f0092f6:	2bf8      	bnez	v1,7f0092e8 <main+0x354>
7f0092f8:	677c      	move	v1,gp
7f0092fa:	f090 4b08 	addiu	v1,-32632
7f0092fe:	9b81      	lw	a0,4(v1)
7f009300:	67a6      	move	a1,a2
7f009302:	1c1e 2aca 	jalx	7f00ab28 <write>
7f009306:	e2db      	subu	a2,v0,a2
7f009308:	4801      	addiu	s0,1
7f00930a:	4904      	addiu	s1,4
7f00930c:	679c      	move	a0,gp
7f00930e:	f0b0 9c54 	lw	v0,-32588(a0)
7f009312:	e842      	slt	s0,v0
7f009314:	61e0      	btnez	7f0092d6 <main+0x342>
7f009316:	675c      	move	v0,gp
7f009318:	f090 4a08 	addiu	v0,-32632
7f00931c:	1c1e 258b 	jalx	7f00962c <close>
7f009320:	9a81      	lw	a0,4(v0)
7f009322:	181e 20e8 	jal	7f0083a0 <goodbye>
7f009326:	6c00      	li	a0,0
7f009328:	675c      	move	v0,gp
7f00932a:	f090 4a08 	addiu	v0,-32632
7f00932e:	1c1e 258b 	jalx	7f00962c <close>
7f009332:	9a81      	lw	a0,4(v0)
7f009334:	67bc      	move	a1,gp
7f009336:	f0d0 9d88 	lw	a0,-32568(a1)
7f00933a:	181e 29c7 	jal	7f00a71c <rewind>
7f00933e:	6500      	nop
7f009340:	675c      	move	v0,gp
7f009342:	f0d0 9a68 	lw	v1,-32568(v0)
7f009346:	9b40      	lw	v0,0(v1)
7f009348:	4aff      	addiu	v0,-1
7f00934a:	db40      	sw	v0,0(v1)
7f00934c:	5200      	slti	v0,0
7f00934e:	6107      	btnez	7f00935e <main+0x3ca>
7f009350:	679c      	move	a0,gp
7f009352:	f0d0 9c68 	lw	v1,-32568(a0)
7f009356:	9b41      	lw	v0,4(v1)
7f009358:	4a01      	addiu	v0,1
7f00935a:	db41      	sw	v0,4(v1)
7f00935c:	1006      	b	7f00936a <main+0x3d6>
7f00935e:	67bc      	move	a1,gp
7f009360:	f0d0 9d88 	lw	a0,-32568(a1)
7f009364:	181e 26ee 	jal	7f009bb8 <_filbuf>
7f009368:	6500      	nop
7f00936a:	b482      	lw	a0,7f009570 <main+0x5dc>
7f00936c:	b58d      	lw	a1,7f0095a0 <main+0x60c>
7f00936e:	181e 239c 	jal	7f008e70 <evalboard>
7f009372:	6500      	nop
7f009374:	675c      	move	v0,gp
7f009376:	f0b0 9a08 	lw	s0,-32600(v0)
7f00937a:	100e      	b	7f009398 <main+0x404>
7f00937c:	5200      	slti	v0,0
7f00937e:	6006      	bteqz	7f00938c <main+0x3f8>
7f009380:	677c      	move	v1,gp
7f009382:	f0d0 9b4c 	lw	v0,-32564(v1)
7f009386:	7204      	cmpi	v0,4
7f009388:	6112      	btnez	7f0093ae <main+0x41a>
7f00938a:	6a00      	li	v0,0
7f00938c:	679c      	move	a0,gp
7f00938e:	f0b0 9c68 	lw	v1,-32600(a0)
7f009392:	e34d      	addu	v1,v0
7f009394:	f0b0 dc68 	sw	v1,-32600(a0)
7f009398:	67bc      	move	a1,gp
7f00939a:	f090 9d88 	lw	a0,-32632(a1)
7f00939e:	f0b0 9da8 	lw	a1,-32600(a1)
7f0093a2:	f200 6e00 	li	a2,512
7f0093a6:	1c1e 29c2 	jalx	7f00a708 <read>
7f0093aa:	6500      	nop
7f0093ac:	2ae7      	bnez	v0,7f00937c <main+0x3e8>
7f0093ae:	675c      	move	v0,gp
7f0093b0:	f090 9a88 	lw	a0,-32632(v0)
7f0093b4:	1c1e 258b 	jalx	7f00962c <close>
7f0093b8:	6500      	nop
7f0093ba:	677c      	move	v1,gp
7f0093bc:	f0b0 9b54 	lw	v0,-32588(v1)
7f0093c0:	f090 db40 	sw	v0,-32640(v1)
7f0093c4:	f0b0 db5c 	sw	v0,-32580(v1)
7f0093c8:	f0b0 9b48 	lw	v0,-32600(v1)
7f0093cc:	1018      	b	7f0093fe <main+0x46a>
7f0093ce:	679c      	move	a0,gp
7f0093d0:	f0b0 9c74 	lw	v1,-32588(a0)
7f0093d4:	3468      	sll	a0,v1,2
7f0093d6:	b56e      	lw	a1,7f00958c <main+0x5f8>
7f0093d8:	e591      	addu	a0,a1,a0
7f0093da:	dc00      	sw	s0,0(a0)
7f0093dc:	4b01      	addiu	v1,1
7f0093de:	67bc      	move	a1,gp
7f0093e0:	f0b0 dd74 	sw	v1,-32588(a1)
7f0093e4:	8080      	lb	a0,0(s0)
7f0093e6:	7430      	cmpi	a0,48
7f0093e8:	6102      	btnez	7f0093ee <main+0x45a>
7f0093ea:	f0b0 dd7c 	sw	v1,-32580(a1)
7f0093ee:	4801      	addiu	s0,1
7f0093f0:	8060      	lb	v1,0(s0)
7f0093f2:	b45e      	lw	a0,7f009568 <main+0x5d4>
7f0093f4:	e46d      	addu	v1,a0,v1
7f0093f6:	a381      	lbu	a0,1(v1)
7f0093f8:	6b03      	li	v1,3
7f0093fa:	eb8c      	and	v1,a0
7f0093fc:	2bf8      	bnez	v1,7f0093ee <main+0x45a>
7f0093fe:	e843      	sltu	s0,v0
7f009400:	61e6      	btnez	7f0093ce <main+0x43a>
7f009402:	679c      	move	a0,gp
7f009404:	f0d0 4c04 	addiu	a0,-32572
7f009408:	181e 2ac0 	jal	7f00ab00 <wait>
7f00940c:	6500      	nop
7f00940e:	677c      	move	v1,gp
7f009410:	f0d0 9b44 	lw	v0,-32572(v1)
7f009414:	2203      	beqz	v0,7f00941c <main+0x488>
7f009416:	181e 20e8 	jal	7f0083a0 <goodbye>
7f00941a:	6c05      	li	a0,5
7f00941c:	6a01      	li	v0,1
7f00941e:	679c      	move	a0,gp
7f009420:	f010 dc4c 	sw	v0,-32756(a0)
7f009424:	181e 231c 	jal	7f008c70 <printdiff>
7f009428:	6500      	nop
7f00942a:	181e 2209 	jal	7f008824 <printboard>
7f00942e:	6500      	nop
7f009430:	67bc      	move	a1,gp
7f009432:	f0d0 9d40 	lw	v0,-32576(a1)
7f009436:	42c1      	addiu	a2,v0,1
7f009438:	f0d0 ddc0 	sw	a2,-32576(a1)
7f00943c:	f010 9d58 	lw	v0,-32744(a1)
7f009440:	5200      	slti	v0,0
7f009442:	6114      	btnez	7f00946c <main+0x4d8>
7f009444:	b443      	lw	a0,7f009550 <main+0x5bc>
7f009446:	b558      	lw	a1,7f0095a4 <main+0x610>
7f009448:	181e 2a6a 	jal	7f00a9a8 <sprintf>
7f00944c:	6500      	nop
7f00944e:	675c      	move	v0,gp
7f009450:	f010 9a98 	lw	a0,-32744(v0)
7f009454:	f0b0 9ab0 	lw	a1,-32592(v0)
7f009458:	1c1e 2862 	jalx	7f00a188 <lseek>
7f00945c:	6e00      	li	a2,0
7f00945e:	677c      	move	v1,gp
7f009460:	f010 9b98 	lw	a0,-32744(v1)
7f009464:	b53b      	lw	a1,7f009550 <main+0x5bc>
7f009466:	1c1e 2aca 	jalx	7f00ab28 <write>
7f00946a:	6e04      	li	a2,4
7f00946c:	b033      	lw	s0,7f009538 <main+0x5a4>
7f00946e:	b54f      	lw	a1,7f0095a8 <main+0x614>
7f009470:	67dc      	move	a2,gp
7f009472:	f090 4e1c 	addiu	a2,-32612
7f009476:	1c1e 2857 	jalx	7f00a15c <ioctl>
7f00947a:	8889      	lh	a0,18(s0)
7f00947c:	b44c      	lw	a0,7f0095ac <main+0x618>
7f00947e:	181e 28e4 	jal	7f00a390 <printf>
7f009482:	6500      	nop
7f009484:	9840      	lw	v0,0(s0)
7f009486:	4aff      	addiu	v0,-1
7f009488:	d840      	sw	v0,0(s0)
7f00948a:	5200      	slti	v0,0
7f00948c:	610a      	btnez	7f0094a2 <main+0x50e>
7f00948e:	9861      	lw	v1,4(s0)
7f009490:	a380      	lbu	a0,0(v1)
7f009492:	6d79      	li	a1,121
7f009494:	ecae      	xor	a0,a1
7f009496:	ec8b      	neg	a0
7f009498:	f7c0 3482 	srl	a0,31
7f00949c:	4b01      	addiu	v1,1
7f00949e:	d861      	sw	v1,4(s0)
7f0094a0:	100a      	b	7f0094b6 <main+0x522>
7f0094a2:	b426      	lw	a0,7f009538 <main+0x5a4>
7f0094a4:	181e 26ee 	jal	7f009bb8 <_filbuf>
7f0094a8:	6500      	nop
7f0094aa:	6b79      	li	v1,121
7f0094ac:	ea6e      	xor	v0,v1
7f0094ae:	5a01      	sltiu	v0,1
7f0094b0:	6798      	move	a0,t8
7f0094b2:	6a01      	li	v0,1
7f0094b4:	ec4e      	xor	a0,v0
7f0094b6:	2427      	beqz	a0,7f009506 <main+0x572>
7f0094b8:	b320      	lw	v1,7f009538 <main+0x5a4>
7f0094ba:	9b45      	lw	v0,20(v1)
7f0094bc:	4aff      	addiu	v0,-1
7f0094be:	db45      	sw	v0,20(v1)
7f0094c0:	5200      	slti	v0,0
7f0094c2:	6107      	btnez	7f0094d2 <main+0x53e>
7f0094c4:	6743      	move	v0,v1
7f0094c6:	9b66      	lw	v1,24(v1)
7f0094c8:	6c0a      	li	a0,10
7f0094ca:	c380      	sb	a0,0(v1)
7f0094cc:	4b01      	addiu	v1,1
7f0094ce:	da66      	sw	v1,24(v0)
7f0094d0:	1028      	b	7f009522 <main+0x58e>
7f0094d2:	b31a      	lw	v1,7f009538 <main+0x5a4>
7f0094d4:	ab92      	lhu	a0,36(v1)
7f0094d6:	6b80      	li	v1,128
7f0094d8:	eb8c      	and	v1,a0
7f0094da:	2310      	beqz	v1,7f0094fc <main+0x568>
7f0094dc:	ea4b      	neg	v0
7f0094de:	b317      	lw	v1,7f009538 <main+0x5a4>
7f0094e0:	9b68      	lw	v1,32(v1)
7f0094e2:	ea62      	slt	v0,v1
7f0094e4:	600b      	bteqz	7f0094fc <main+0x568>
7f0094e6:	b315      	lw	v1,7f009538 <main+0x5a4>
7f0094e8:	9b46      	lw	v0,24(v1)
7f0094ea:	6c0a      	li	a0,10
7f0094ec:	c280      	sb	a0,0(v0)
7f0094ee:	9b46      	lw	v0,24(v1)
7f0094f0:	a280      	lbu	a0,0(v0)
7f0094f2:	43a7      	addiu	a1,v1,7
7f0094f4:	181e 2788 	jal	7f009e20 <_flsbuf>
7f0094f8:	4d0d      	addiu	a1,13
7f0094fa:	1013      	b	7f009522 <main+0x58e>
7f0094fc:	b52d      	lw	a1,7f0095b0 <main+0x61c>
7f0094fe:	181e 2788 	jal	7f009e20 <_flsbuf>
7f009502:	6c0a      	li	a0,10
7f009504:	100e      	b	7f009522 <main+0x58e>
7f009506:	b20d      	lw	v0,7f009538 <main+0x5a4>
7f009508:	b528      	lw	a1,7f0095a8 <main+0x614>
7f00950a:	67dc      	move	a2,gp
7f00950c:	f090 4e1c 	addiu	a2,-32612
7f009510:	1c1e 2857 	jalx	7f00a15c <ioctl>
7f009514:	8a89      	lh	a0,18(v0)
7f009516:	b40b      	lw	a0,7f009540 <main+0x5ac>
7f009518:	1c1e 29f2 	jalx	7f00a7c8 <setjmp>
7f00951c:	6500      	nop
7f00951e:	f69f 2205 	beqz	v0,7f00922c <main+0x298>
7f009522:	181e 20e8 	jal	7f0083a0 <goodbye>
7f009526:	6c00      	li	a0,0
7f009528:	6474      	restore	32,ra,s0-s1
7f00952a:	e820      	jr	ra
7f00952c:	6a00      	li	v0,0
7f00952e:	9309      	lw	v1,36(sp)
7f009530:	4b04      	addiu	v1,4
7f009532:	d309      	sw	v1,36(sp)
7f009534:	9b80      	lw	a0,0(v1)
7f009536:	15c3      	b	7f0090be <main+0x12a>
7f009538:	e618      	daddu	a2,s0
7f00953a:	7f00      	sd	s0,0(a3)
7f00953c:	7408      	cmpi	a0,8
7f00953e:	4006      	addiu	s0,s0,6
7f009540:	2094      	beqz	s0,7f00946a <main+0x4d6>
7f009542:	7f01      	sd	s0,8(a3)
7f009544:	8301      	lb	s0,1(v1)
7f009546:	7f00      	sd	s0,0(a3)
7f009548:	e140      	daddu	s0,s1,v0
7f00954a:	7f00      	sd	s0,0(a3)
7f00954c:	e3c5      	addu	s1,v1,a2
7f00954e:	7f00      	sd	s0,0(a3)
7f009550:	e3c0      	daddu	s0,v1,a2
7f009552:	7f00      	sd	s0,0(a3)
7f009554:	e154      	daddu	a1,s1,v0
7f009556:	7f00      	sd	s0,0(a3)
7f009558:	e158      	daddu	a2,s1,v0
7f00955a:	7f00      	sd	s0,0(a3)
7f00955c:	e3a0      	daddu	s0,v1,a1
7f00955e:	7f00      	sd	s0,0(a3)
7f009560:	e168      	daddu	v0,s1,v1
7f009562:	7f00      	sd	s0,0(a3)
7f009564:	f1b0 7f00 	sd	s0,-32352(a3)
7f009568:	e514      	daddu	a1,s0
7f00956a:	7f00      	sd	s0,0(a3)
7f00956c:	e194      	daddu	a1,s1,a0
7f00956e:	7f00      	sd	s0,0(a3)
7f009570:	8211      	lb	s0,17(v0)
7f009572:	7f00      	sd	s0,0(a3)
7f009574:	8c45      	lh	v0,10(a0)
7f009576:	7f00      	sd	s0,0(a3)
7f009578:	e1a0      	daddu	s0,s1,a1
7f00957a:	7f00      	sd	s0,0(a3)
7f00957c:	747c      	cmpi	a0,124
7f00957e:	4004      	addiu	s0,s0,4
7f009580:	747e      	cmpi	a0,126
7f009582:	8004      	lb	s0,4(s0)
7f009584:	e1a8      	daddu	v0,s1,a1
7f009586:	7f00      	sd	s0,0(a3)
7f009588:	f844      	ld	v0,32(sp)
7f00958a:	7f00      	sd	s0,0(a3)
7f00958c:	20cc      	beqz	s0,7f009526 <main+0x592>
7f00958e:	7f01      	sd	s0,8(a3)
7f009590:	8281      	lb	a0,1(v0)
7f009592:	7f00      	sd	s0,0(a3)
7f009594:	80e1      	lb	a3,1(s0)
7f009596:	7f00      	sd	s0,0(a3)
7f009598:	805d      	lb	v0,29(s0)
7f00959a:	7f00      	sd	s0,0(a3)
7f00959c:	848d      	lb	a0,13(a0)
7f00959e:	7f00      	sd	s0,0(a3)
7f0095a0:	8081      	lb	a0,1(s0)
7f0095a2:	7f00      	sd	s0,0(a3)
7f0095a4:	e1bc      	daddu	a3,s1,a1
7f0095a6:	7f00      	sd	s0,0(a3)
7f0095a8:	7409      	cmpi	a0,9
7f0095aa:	8006      	lb	s0,6(s0)
7f0095ac:	e1c0      	daddu	s0,s1,a2
7f0095ae:	7f00      	sd	s0,0(a3)
7f0095b0:	e62c      	daddu	v1,a2,s1
7f0095b2:	7f00      	sd	s0,0(a3)

7f0095b4 <alarm>:
7f0095b4:	64c7      	save	56,ra
7f0095b6:	6a00      	li	v0,0
7f0095b8:	d406      	sw	a0,24(sp)
7f0095ba:	0504      	addiu	a1,sp,16
7f0095bc:	6782      	move	a0,v0
7f0095be:	0608      	addiu	a2,sp,32
7f0095c0:	d205      	sw	v0,20(sp)
7f0095c2:	d204      	sw	v0,16(sp)
7f0095c4:	1c1e 29ed 	jalx	7f00a7b4 <setitimer>
7f0095c8:	d207      	sw	v0,28(sp)
7f0095ca:	5200      	slti	v0,0
7f0095cc:	6107      	btnez	7f0095dc <alarm+0x28>
7f0095ce:	920b      	lw	v0,44(sp)
7f0095d0:	2203      	beqz	v0,7f0095d8 <alarm+0x24>
7f0095d2:	920a      	lw	v0,40(sp)
7f0095d4:	4a01      	addiu	v0,1
7f0095d6:	d20a      	sw	v0,40(sp)
7f0095d8:	920a      	lw	v0,40(sp)
7f0095da:	1002      	b	7f0095e0 <alarm+0x2c>
7f0095dc:	6a01      	li	v0,1
7f0095de:	ea4b      	neg	v0
7f0095e0:	6447      	restore	56,ra
7f0095e2:	e8a0      	jrc	ra

7f0095e4 <atol>:
7f0095e4:	8440      	lb	v0,0(a0)
7f0095e6:	722b      	cmpi	v0,43
7f0095e8:	600d      	bteqz	7f009604 <atol+0x20>
7f0095ea:	522c      	slti	v0,44
7f0095ec:	6005      	bteqz	7f0095f8 <atol+0x14>
7f0095ee:	7209      	cmpi	v0,9
7f0095f0:	6007      	bteqz	7f009600 <atol+0x1c>
7f0095f2:	7220      	cmpi	v0,32
7f0095f4:	6005      	bteqz	7f009600 <atol+0x1c>
7f0095f6:	1009      	b	7f00960a <atol+0x26>
7f0095f8:	722d      	cmpi	v0,45
7f0095fa:	6b01      	li	v1,1
7f0095fc:	6004      	bteqz	7f009606 <atol+0x22>
7f0095fe:	1005      	b	7f00960a <atol+0x26>
7f009600:	4c01      	addiu	a0,1
7f009602:	17f0      	b	7f0095e4 <atol>
7f009604:	6b00      	li	v1,0
7f009606:	4c01      	addiu	a0,1
7f009608:	1001      	b	7f00960c <atol+0x28>
7f00960a:	6b00      	li	v1,0
7f00960c:	6a00      	li	v0,0
7f00960e:	1005      	b	7f00961a <atol+0x36>
7f009610:	6e0a      	li	a2,10
7f009612:	ead8      	mult	v0,a2
7f009614:	4c01      	addiu	a0,1
7f009616:	ea12      	mflo	v0
7f009618:	e549      	addu	v0,a1,v0
7f00961a:	84a0      	lb	a1,0(a0)
7f00961c:	4dd0      	addiu	a1,-48
7f00961e:	67c5      	move	a2,a1
7f009620:	ee11      	zeb	a2
7f009622:	5e0a      	sltiu	a2,10
7f009624:	61f5      	btnez	7f009610 <atol+0x2c>
7f009626:	2301      	beqz	v1,7f00962a <atol+0x46>
7f009628:	ea4b      	neg	v0
7f00962a:	e8a0      	jrc	ra

7f00962c <close>:
7f00962c:	0000018c 	syscall	0x6
7f009630:	3c097f01 	lui	t1,0x7f01
7f009634:	ad28e8fc 	sw	t0,-5892(t1)
7f009638:	03e00008 	jr	ra
7f00963c:	00000000 	nop

7f009640 <detzcode>:
7f009640:	6b00      	li	v1,0
7f009642:	6743      	move	v0,v1
7f009644:	e475      	addu	a1,a0,v1
7f009646:	a5a0      	lbu	a1,0(a1)
7f009648:	4b01      	addiu	v1,1
7f00964a:	3240      	sll	v0,8
7f00964c:	7304      	cmpi	v1,4
7f00964e:	eaad      	or	v0,a1
7f009650:	61f9      	btnez	7f009644 <detzcode+0x4>
7f009652:	e8a0      	jrc	ra

7f009654 <tzload>:
7f009654:	64f7      	save	56,ra,s0-s1
7f009656:	0104      	addiu	s1,sp,16
7f009658:	6704      	move	s0,a0
7f00965a:	2c01      	bnez	a0,7f00965e <tzload+0xa>
7f00965c:	b083      	lw	s0,7f009868 <tzload+0x214>
7f00965e:	8040      	lb	v0,0(s0)
7f009660:	722f      	cmpi	v0,47
7f009662:	6021      	bteqz	7f0096a6 <tzload+0x52>
7f009664:	1c1e 2a81 	jalx	7f00aa04 <strlen>
7f009668:	6790      	move	a0,s0
7f00966a:	4a10      	addiu	v0,16
7f00966c:	f100 5a00 	sltiu	v0,256
7f009670:	f0e0 6014 	bteqz	7f00985c <tzload+0x208>
7f009674:	63df      	addiu	sp,-264
7f009676:	0204      	addiu	v0,sp,16
7f009678:	6782      	move	a0,v0
7f00967a:	b57d      	lw	a1,7f00986c <tzload+0x218>
7f00967c:	181e 2a7d 	jal	7f00a9f4 <strcpy>
7f009680:	d940      	sw	v0,0(s1)
7f009682:	b57c      	lw	a1,7f009870 <tzload+0x21c>
7f009684:	181e 2a76 	jal	7f00a9d8 <strcat>
7f009688:	9980      	lw	a0,0(s1)
7f00968a:	9980      	lw	a0,0(s1)
7f00968c:	181e 2a76 	jal	7f00a9d8 <strcat>
7f009690:	67b0      	move	a1,s0
7f009692:	6a00      	li	v0,0
7f009694:	1004      	b	7f00969e <tzload+0x4a>
7f009696:	732e      	cmpi	v1,46
7f009698:	4801      	addiu	s0,1
7f00969a:	6101      	btnez	7f00969e <tzload+0x4a>
7f00969c:	6a01      	li	v0,1
7f00969e:	8060      	lb	v1,0(s0)
7f0096a0:	2bfa      	bnez	v1,7f009696 <tzload+0x42>
7f0096a2:	9900      	lw	s0,0(s1)
7f0096a4:	2206      	beqz	v0,7f0096b2 <tzload+0x5e>
7f0096a6:	6790      	move	a0,s0
7f0096a8:	1c1e 2ad5 	jalx	7f00ab54 <access>
7f0096ac:	6d04      	li	a1,4
7f0096ae:	f0c0 2a15 	bnez	v0,7f00985c <tzload+0x208>
7f0096b2:	6790      	move	a0,s0
7f0096b4:	1c1e 28d5 	jalx	7f00a354 <open>
7f0096b8:	6d00      	li	a1,0
7f0096ba:	6702      	move	s0,v0
7f0096bc:	4a01      	addiu	v0,1
7f0096be:	f0c0 220d 	beqz	v0,7f00985c <tzload+0x208>
7f0096c2:	f01f 6300 	addiu	sp,-2048
7f0096c6:	0404      	addiu	a0,sp,16
7f0096c8:	d980      	sw	a0,0(s1)
7f0096ca:	99a0      	lw	a1,0(s1)
7f0096cc:	f7e0 6e14 	li	a2,2036
7f0096d0:	1c1e 29c2 	jalx	7f00a708 <read>
7f0096d4:	6790      	move	a0,s0
7f0096d6:	6790      	move	a0,s0
7f0096d8:	1c1e 258b 	jalx	7f00962c <close>
7f0096dc:	d941      	sw	v0,4(s1)
7f0096de:	f0a0 2a1d 	bnez	v0,7f00985c <tzload+0x208>
7f0096e2:	99e1      	lw	a3,4(s1)
7f0096e4:	5f2c      	sltiu	a3,44
7f0096e6:	f0a0 6119 	btnez	7f00985c <tzload+0x208>
7f0096ea:	9980      	lw	a0,0(s1)
7f0096ec:	b062      	lw	s0,7f009874 <tzload+0x220>
7f0096ee:	181e 2590 	jal	7f009640 <detzcode>
7f0096f2:	4c20      	addiu	a0,32
7f0096f4:	9980      	lw	a0,0(s1)
7f0096f6:	d840      	sw	v0,0(s0)
7f0096f8:	d945      	sw	v0,20(s1)
7f0096fa:	181e 2590 	jal	7f009640 <detzcode>
7f0096fe:	4c24      	addiu	a0,36
7f009700:	9980      	lw	a0,0(s1)
7f009702:	d841      	sw	v0,4(s0)
7f009704:	d944      	sw	v0,16(s1)
7f009706:	181e 2590 	jal	7f009640 <detzcode>
7f00970a:	4c28      	addiu	a0,40
7f00970c:	99c5      	lw	a2,20(s1)
7f00970e:	67e2      	move	a3,v0
7f009710:	d842      	sw	v0,8(s0)
7f009712:	f160 5613 	slti	a2,371
7f009716:	9964      	lw	v1,16(s1)
7f009718:	f0a0 6000 	bteqz	7f00985c <tzload+0x208>
7f00971c:	f080 231e 	beqz	v1,7f00985c <tzload+0x208>
7f009720:	530b      	slti	v1,11
7f009722:	f080 601b 	bteqz	7f00985c <tzload+0x208>
7f009726:	5233      	slti	v0,51
7f009728:	f080 6018 	bteqz	7f00985c <tzload+0x208>
7f00972c:	4287      	addiu	a0,v0,7
7f00972e:	6a05      	li	v0,5
7f009730:	ee58      	mult	a2,v0
7f009732:	4c25      	addiu	a0,37
7f009734:	ea12      	mflo	v0
7f009736:	e449      	addu	v0,a0,v0
7f009738:	6c06      	li	a0,6
7f00973a:	eb98      	mult	v1,a0
7f00973c:	ec12      	mflo	a0
7f00973e:	e289      	addu	v0,a0
7f009740:	9981      	lw	a0,4(s1)
7f009742:	ec43      	sltu	a0,v0
7f009744:	f080 610a 	btnez	7f00985c <tzload+0x208>
7f009748:	4047      	addiu	v0,s0,7
7f00974a:	4a05      	addiu	v0,5
7f00974c:	d941      	sw	v0,4(s1)
7f00974e:	6d00      	li	a1,0
7f009750:	1010      	b	7f009772 <tzload+0x11e>
7f009752:	6790      	move	a0,s0
7f009754:	d964      	sw	v1,16(s1)
7f009756:	d9a2      	sw	a1,8(s1)
7f009758:	d9c5      	sw	a2,20(s1)
7f00975a:	181e 2590 	jal	7f009640 <detzcode>
7f00975e:	d9e3      	sw	a3,12(s1)
7f009760:	9981      	lw	a0,4(s1)
7f009762:	99a2      	lw	a1,8(s1)
7f009764:	99e3      	lw	a3,12(s1)
7f009766:	99c5      	lw	a2,20(s1)
7f009768:	9964      	lw	v1,16(s1)
7f00976a:	dc40      	sw	v0,0(a0)
7f00976c:	4c04      	addiu	a0,4
7f00976e:	4d01      	addiu	a1,1
7f009770:	d981      	sw	a0,4(s1)
7f009772:	9900      	lw	s0,0(s1)
7f009774:	32a8      	sll	v0,a1,2
7f009776:	edc2      	slt	a1,a2
7f009778:	482c      	addiu	s0,44
7f00977a:	e041      	addu	s0,v0
7f00977c:	61ea      	btnez	7f009752 <tzload+0xfe>
7f00977e:	6a00      	li	v0,0
7f009780:	1007      	b	7f009790 <tzload+0x13c>
7f009782:	a0a0      	lbu	a1,0(s0)
7f009784:	b43c      	lw	a0,7f009874 <tzload+0x220>
7f009786:	e291      	addu	a0,v0,a0
7f009788:	f5c0 c4b4 	sb	a1,1492(a0)
7f00978c:	4801      	addiu	s0,1
7f00978e:	4a01      	addiu	v0,1
7f009790:	eac2      	slt	v0,a2
7f009792:	61f7      	btnez	7f009782 <tzload+0x12e>
7f009794:	6a00      	li	v0,0
7f009796:	b539      	lw	a1,7f009878 <tzload+0x224>
7f009798:	d940      	sw	v0,0(s1)
7f00979a:	1015      	b	7f0097c6 <tzload+0x172>
7f00979c:	6790      	move	a0,s0
7f00979e:	d964      	sw	v1,16(s1)
7f0097a0:	d9a2      	sw	a1,8(s1)
7f0097a2:	d9c5      	sw	a2,20(s1)
7f0097a4:	181e 2590 	jal	7f009640 <detzcode>
7f0097a8:	d9e3      	sw	a3,12(s1)
7f0097aa:	99a2      	lw	a1,8(s1)
7f0097ac:	9980      	lw	a0,0(s1)
7f0097ae:	99e3      	lw	a3,12(s1)
7f0097b0:	dd40      	sw	v0,0(a1)
7f0097b2:	a044      	lbu	v0,4(s0)
7f0097b4:	99c5      	lw	a2,20(s1)
7f0097b6:	9964      	lw	v1,16(s1)
7f0097b8:	dd41      	sw	v0,4(a1)
7f0097ba:	a045      	lbu	v0,5(s0)
7f0097bc:	4c01      	addiu	a0,1
7f0097be:	4806      	addiu	s0,6
7f0097c0:	dd42      	sw	v0,8(a1)
7f0097c2:	d980      	sw	a0,0(s1)
7f0097c4:	4d0c      	addiu	a1,12
7f0097c6:	9940      	lw	v0,0(s1)
7f0097c8:	ea62      	slt	v0,v1
7f0097ca:	61e8      	btnez	7f00979c <tzload+0x148>
7f0097cc:	6a00      	li	v0,0
7f0097ce:	1006      	b	7f0097dc <tzload+0x188>
7f0097d0:	a0a0      	lbu	a1,0(s0)
7f0097d2:	e451      	addu	a0,v0
7f0097d4:	4801      	addiu	s0,1
7f0097d6:	f7c0 c4a0 	sb	a1,1984(a0)
7f0097da:	4a01      	addiu	v0,1
7f0097dc:	eae2      	slt	v0,a3
7f0097de:	b426      	lw	a0,7f009874 <tzload+0x220>
7f0097e0:	61f7      	btnez	7f0097d0 <tzload+0x17c>
7f0097e2:	e449      	addu	v0,a0,v0
7f0097e4:	6c00      	li	a0,0
7f0097e6:	f7c0 c280 	sb	a0,1984(v0)
7f0097ea:	6a00      	li	v0,0
7f0097ec:	1007      	b	7f0097fc <tzload+0x1a8>
7f0097ee:	b422      	lw	a0,7f009874 <tzload+0x220>
7f0097f0:	e291      	addu	a0,v0,a0
7f0097f2:	f5c0 a494 	lbu	a0,1492(a0)
7f0097f6:	ec62      	slt	a0,v1
7f0097f8:	6031      	bteqz	7f00985c <tzload+0x208>
7f0097fa:	4a01      	addiu	v0,1
7f0097fc:	eac2      	slt	v0,a2
7f0097fe:	61f7      	btnez	7f0097ee <tzload+0x19a>
7f009800:	b41f      	lw	a0,7f00987c <tzload+0x228>
7f009802:	6a00      	li	v0,0
7f009804:	1005      	b	7f009810 <tzload+0x1bc>
7f009806:	9ca0      	lw	a1,0(a0)
7f009808:	4c0c      	addiu	a0,12
7f00980a:	ede2      	slt	a1,a3
7f00980c:	6027      	bteqz	7f00985c <tzload+0x208>
7f00980e:	4a01      	addiu	v0,1
7f009810:	ea62      	slt	v0,v1
7f009812:	61f9      	btnez	7f009806 <tzload+0x1b2>
7f009814:	675c      	move	v0,gp
7f009816:	b41b      	lw	a0,7f009880 <tzload+0x22c>
7f009818:	f030 4a00 	addiu	v0,-32736
7f00981c:	da81      	sw	a0,4(v0)
7f00981e:	4448      	addiu	v0,a0,-8
7f009820:	4aa4      	addiu	v0,-92
7f009822:	67c4      	move	a2,a0
7f009824:	6d01      	li	a1,1
7f009826:	100f      	b	7f009846 <tzload+0x1f2>
7f009828:	f7ff 9afc 	lw	a3,-4(v0)
7f00982c:	9a00      	lw	s0,0(v0)
7f00982e:	651f      	move	t8,a3
7f009830:	b711      	lw	a3,7f009874 <tzload+0x220>
7f009832:	6004      	bteqz	7f00983c <tzload+0x1e8>
7f009834:	f7c0 4080 	addiu	a0,s0,1984
7f009838:	e791      	addu	a0,a3,a0
7f00983a:	1003      	b	7f009842 <tzload+0x1ee>
7f00983c:	f7c0 40c0 	addiu	a2,s0,1984
7f009840:	e7d9      	addu	a2,a3,a2
7f009842:	4d01      	addiu	a1,1
7f009844:	4a0c      	addiu	v0,12
7f009846:	ed62      	slt	a1,v1
7f009848:	61ef      	btnez	7f009828 <tzload+0x1d4>
7f00984a:	675c      	move	v0,gp
7f00984c:	f030 4a00 	addiu	v0,-32736
7f009850:	da81      	sw	a0,4(v0)
7f009852:	675c      	move	v0,gp
7f009854:	f030 dac0 	sw	a2,-32736(v0)
7f009858:	6a00      	li	v0,0
7f00985a:	1002      	b	7f009860 <tzload+0x20c>
7f00985c:	6a01      	li	v0,1
7f00985e:	ea4b      	neg	v0
7f009860:	65b9      	move	sp,s1
7f009862:	6475      	restore	40,ra,s0-s1
7f009864:	e8a0      	jrc	ra
7f009866:	6500      	nop
7f009868:	e250      	daddu	a0,v0,v0
7f00986a:	7f00      	sd	s0,0(a3)
7f00986c:	e260      	daddu	s0,v0,v1
7f00986e:	7f00      	sd	s0,0(a3)
7f009870:	e270      	daddu	a0,v0,v1
7f009872:	7f00      	sd	s0,0(a3)
7f009874:	e934      	dsllv	s1,s1
7f009876:	7f00      	sd	s0,0(a3)
7f009878:	f07c 7f00 	sd	s0,-8096(a3)
7f00987c:	f084 7f00 	sd	s0,8320(a3)
7f009880:	f0f4 7f00 	sd	s0,-24352(a3)

7f009884 <asctime>:
7f009884:	9cc6      	lw	a2,24(a0)
7f009886:	6b03      	li	v1,3
7f009888:	9c44      	lw	v0,16(a0)
7f00988a:	ebd8      	mult	v1,a2
7f00988c:	64c6      	save	48,ra
7f00988e:	b70e      	lw	a3,7f0098c4 <asctime+0x40>
7f009890:	b50e      	lw	a1,7f0098c8 <asctime+0x44>
7f009892:	ee12      	mflo	a2
7f009894:	eb58      	mult	v1,v0
7f009896:	9c63      	lw	v1,12(a0)
7f009898:	d304      	sw	v1,16(sp)
7f00989a:	9c62      	lw	v1,8(a0)
7f00989c:	d305      	sw	v1,20(sp)
7f00989e:	9c61      	lw	v1,4(a0)
7f0098a0:	d306      	sw	v1,24(sp)
7f0098a2:	9c60      	lw	v1,0(a0)
7f0098a4:	d307      	sw	v1,28(sp)
7f0098a6:	9c65      	lw	v1,20(a0)
7f0098a8:	ea12      	mflo	v0
7f0098aa:	b409      	lw	a0,7f0098cc <asctime+0x48>
7f0098ac:	e75d      	addu	a3,v0
7f0098ae:	f760 4b0c 	addiu	v1,1900
7f0098b2:	d308      	sw	v1,32(sp)
7f0098b4:	b307      	lw	v1,7f0098d0 <asctime+0x4c>
7f0098b6:	181e 2a6a 	jal	7f00a9a8 <sprintf>
7f0098ba:	e3d9      	addu	a2,v1,a2
7f0098bc:	6446      	restore	48,ra
7f0098be:	b204      	lw	v0,7f0098cc <asctime+0x48>
7f0098c0:	e8a0      	jrc	ra
7f0098c2:	6500      	nop
7f0098c4:	e4d8      	daddu	a2,a0,a2
7f0098c6:	7f00      	sd	s0,0(a3)
7f0098c8:	e274      	daddu	a1,v0,v1
7f0098ca:	7f00      	sd	s0,0(a3)
7f0098cc:	f128 7f00 	sd	s0,16672(a3)
7f0098d0:	e4fc      	daddu	a3,a0,a3
7f0098d2:	7f00      	sd	s0,0(a3)

7f0098d4 <tzset>:
7f0098d4:	64e5      	save	40,ra,s0
7f0098d6:	6a01      	li	v0,1
7f0098d8:	671c      	move	s0,gp
7f0098da:	b41f      	lw	a0,7f009954 <tzset+0x80>
7f0098dc:	f050 d840 	sw	v0,-32704(s0)
7f0098e0:	181e 284d 	jal	7f00a134 <getenv>
7f0098e4:	6500      	nop
7f0098e6:	2206      	beqz	v0,7f0098f4 <tzset+0x20>
7f0098e8:	8260      	lb	v1,0(v0)
7f0098ea:	231e      	beqz	v1,7f009928 <tzset+0x54>
7f0098ec:	181e 2595 	jal	7f009654 <tzload>
7f0098f0:	6782      	move	a0,v0
7f0098f2:	222d      	beqz	v0,7f00994e <tzset+0x7a>
7f0098f4:	181e 2595 	jal	7f009654 <tzload>
7f0098f8:	6c00      	li	a0,0
7f0098fa:	2229      	beqz	v0,7f00994e <tzset+0x7a>
7f0098fc:	0404      	addiu	a0,sp,16
7f0098fe:	1c1e 2852 	jalx	7f00a148 <gettimeofday>
7f009902:	0506      	addiu	a1,sp,24
7f009904:	2a11      	bnez	v0,7f009928 <tzset+0x54>
7f009906:	9406      	lw	a0,24(sp)
7f009908:	6d3c      	li	a1,60
7f00990a:	edab      	neg	a1
7f00990c:	ecb8      	mult	a0,a1
7f00990e:	b313      	lw	v1,7f009958 <tzset+0x84>
7f009910:	db40      	sw	v0,0(v1)
7f009912:	f740 db50 	sw	v0,1872(v1)
7f009916:	ed12      	mflo	a1
7f009918:	f740 dba8 	sw	a1,1864(v1)
7f00991c:	181e 2a97 	jal	7f00aa5c <tztab>
7f009920:	6d00      	li	a1,0
7f009922:	67a2      	move	a1,v0
7f009924:	b40e      	lw	a0,7f00995c <tzset+0x88>
7f009926:	1009      	b	7f00993a <tzset+0x66>
7f009928:	b20c      	lw	v0,7f009958 <tzset+0x84>
7f00992a:	6b00      	li	v1,0
7f00992c:	da60      	sw	v1,0(v0)
7f00992e:	f740 da68 	sw	v1,1864(v0)
7f009932:	f740 da70 	sw	v1,1872(v0)
7f009936:	b40a      	lw	a0,7f00995c <tzset+0x88>
7f009938:	b50a      	lw	a1,7f009960 <tzset+0x8c>
7f00993a:	181e 2a7d 	jal	7f00a9f4 <strcpy>
7f00993e:	6500      	nop
7f009940:	6770      	move	v1,s0
7f009942:	b207      	lw	v0,7f00995c <tzset+0x88>
7f009944:	f030 4b00 	addiu	v1,-32736
7f009948:	db41      	sw	v0,4(v1)
7f00994a:	f030 d840 	sw	v0,-32736(s0)
7f00994e:	6465      	restore	40,ra,s0
7f009950:	e8a0      	jrc	ra
7f009952:	6500      	nop
7f009954:	e294      	daddu	a1,v0,a0
7f009956:	7f00      	sd	s0,0(a3)
7f009958:	e934      	dsllv	s1,s1
7f00995a:	7f00      	sd	s0,0(a3)
7f00995c:	f0f4 7f00 	sd	s0,-24352(a3)
7f009960:	e298      	daddu	a2,v0,a0
7f009962:	7f00      	sd	s0,0(a3)

7f009964 <offtime>:
7f009964:	9c60      	lw	v1,0(a0)
7f009966:	b445      	lw	a0,7f009a78 <offtime+0x114>
7f009968:	eb9a      	div	zero,v1,a0
7f00996a:	2c01      	bnez	a0,7f00996e <offtime+0xa>
7f00996c:	e8e5      	break	7
7f00996e:	ea10      	mfhi	v0
7f009970:	e2a9      	addu	v0,a1
7f009972:	eb12      	mflo	v1
7f009974:	1002      	b	7f00997a <offtime+0x16>
7f009976:	e289      	addu	v0,a0
7f009978:	4bff      	addiu	v1,-1
7f00997a:	5200      	slti	v0,0
7f00997c:	61fc      	btnez	7f009976 <offtime+0x12>
7f00997e:	1003      	b	7f009986 <offtime+0x22>
7f009980:	b43f      	lw	a0,7f009a7c <offtime+0x118>
7f009982:	4b01      	addiu	v1,1
7f009984:	e289      	addu	v0,a0
7f009986:	b43f      	lw	a0,7f009a80 <offtime+0x11c>
7f009988:	ec42      	slt	a0,v0
7f00998a:	61fa      	btnez	7f009980 <offtime+0x1c>
7f00998c:	f601 6e10 	li	a2,3600
7f009990:	eada      	div	zero,v0,a2
7f009992:	2e01      	bnez	a2,7f009996 <offtime+0x32>
7f009994:	e8e5      	break	7
7f009996:	b43c      	lw	a0,7f009a84 <offtime+0x120>
7f009998:	ee12      	mflo	a2
7f00999a:	dcc2      	sw	a2,8(a0)
7f00999c:	6e3c      	li	a2,60
7f00999e:	ea10      	mfhi	v0
7f0099a0:	eada      	div	zero,v0,a2
7f0099a2:	2e01      	bnez	a2,7f0099a6 <offtime+0x42>
7f0099a4:	e8e5      	break	7
7f0099a6:	ea10      	mfhi	v0
7f0099a8:	dc40      	sw	v0,0(a0)
7f0099aa:	6a07      	li	v0,7
7f0099ac:	ee12      	mflo	a2
7f0099ae:	dcc1      	sw	a2,4(a0)
7f0099b0:	43c4      	addiu	a2,v1,4
7f0099b2:	ee5a      	div	zero,a2,v0
7f0099b4:	2a01      	bnez	v0,7f0099b8 <offtime+0x54>
7f0099b6:	e8e5      	break	7
7f0099b8:	ea10      	mfhi	v0
7f0099ba:	5200      	slti	v0,0
7f0099bc:	dc46      	sw	v0,24(a0)
7f0099be:	6002      	bteqz	7f0099c4 <offtime+0x60>
7f0099c0:	4a07      	addiu	v0,7
7f0099c2:	dc46      	sw	v0,24(a0)
7f0099c4:	5300      	slti	v1,0
7f0099c6:	611e      	btnez	7f009a04 <offtime+0xa0>
7f0099c8:	f7a0 6a12 	li	v0,1970
7f0099cc:	6c03      	li	a0,3
7f0099ce:	ec4c      	and	a0,v0
7f0099d0:	2c08      	bnez	a0,7f0099e2 <offtime+0x7e>
7f0099d2:	6c64      	li	a0,100
7f0099d4:	ea9a      	div	zero,v0,a0
7f0099d6:	2c01      	bnez	a0,7f0099da <offtime+0x76>
7f0099d8:	e8e5      	break	7
7f0099da:	6c01      	li	a0,1
7f0099dc:	ee10      	mfhi	a2
7f0099de:	651e      	move	t8,a2
7f0099e0:	6108      	btnez	7f0099f2 <offtime+0x8e>
7f0099e2:	f180 6c10 	li	a0,400
7f0099e6:	ea9a      	div	zero,v0,a0
7f0099e8:	2c01      	bnez	a0,7f0099ec <offtime+0x88>
7f0099ea:	e8e5      	break	7
7f0099ec:	ec10      	mfhi	a0
7f0099ee:	5c01      	sltiu	a0,1
7f0099f0:	6798      	move	a0,t8
7f0099f2:	3688      	sll	a2,a0,2
7f0099f4:	b725      	lw	a3,7f009a88 <offtime+0x124>
7f0099f6:	e7d9      	addu	a2,a3,a2
7f0099f8:	9ec0      	lw	a2,0(a2)
7f0099fa:	ebc2      	slt	v1,a2
7f0099fc:	6120      	btnez	7f009a3e <offtime+0xda>
7f0099fe:	4a01      	addiu	v0,1
7f009a00:	e3cf      	subu	v1,a2
7f009a02:	17e4      	b	7f0099cc <offtime+0x68>
7f009a04:	f7a0 6a12 	li	v0,1970
7f009a08:	4aff      	addiu	v0,-1
7f009a0a:	6c03      	li	a0,3
7f009a0c:	ec4c      	and	a0,v0
7f009a0e:	2c08      	bnez	a0,7f009a20 <offtime+0xbc>
7f009a10:	6c64      	li	a0,100
7f009a12:	ea9a      	div	zero,v0,a0
7f009a14:	2c01      	bnez	a0,7f009a18 <offtime+0xb4>
7f009a16:	e8e5      	break	7
7f009a18:	6c01      	li	a0,1
7f009a1a:	ee10      	mfhi	a2
7f009a1c:	651e      	move	t8,a2
7f009a1e:	6108      	btnez	7f009a30 <offtime+0xcc>
7f009a20:	f180 6c10 	li	a0,400
7f009a24:	ea9a      	div	zero,v0,a0
7f009a26:	2c01      	bnez	a0,7f009a2a <offtime+0xc6>
7f009a28:	e8e5      	break	7
7f009a2a:	ec10      	mfhi	a0
7f009a2c:	5c01      	sltiu	a0,1
7f009a2e:	6798      	move	a0,t8
7f009a30:	3688      	sll	a2,a0,2
7f009a32:	b716      	lw	a3,7f009a88 <offtime+0x124>
7f009a34:	e7d9      	addu	a2,a3,a2
7f009a36:	9ec0      	lw	a2,0(a2)
7f009a38:	e3cd      	addu	v1,a2
7f009a3a:	5300      	slti	v1,0
7f009a3c:	61e5      	btnez	7f009a08 <offtime+0xa4>
7f009a3e:	b612      	lw	a2,7f009a84 <offtime+0x120>
7f009a40:	f09f 4a14 	addiu	v0,-1900
7f009a44:	de45      	sw	v0,20(a2)
7f009a46:	6a30      	li	v0,48
7f009a48:	ec58      	mult	a0,v0
7f009a4a:	b211      	lw	v0,7f009a8c <offtime+0x128>
7f009a4c:	de67      	sw	v1,28(a2)
7f009a4e:	6e00      	li	a2,0
7f009a50:	ec12      	mflo	a0
7f009a52:	e451      	addu	a0,v0
7f009a54:	1002      	b	7f009a5a <offtime+0xf6>
7f009a56:	e34f      	subu	v1,v0
7f009a58:	4e01      	addiu	a2,1
7f009a5a:	9c40      	lw	v0,0(a0)
7f009a5c:	4c04      	addiu	a0,4
7f009a5e:	eb42      	slt	v1,v0
7f009a60:	60fa      	bteqz	7f009a56 <offtime+0xf2>
7f009a62:	b209      	lw	v0,7f009a84 <offtime+0x120>
7f009a64:	4b01      	addiu	v1,1
7f009a66:	da63      	sw	v1,12(v0)
7f009a68:	6b00      	li	v1,0
7f009a6a:	da68      	sw	v1,32(v0)
7f009a6c:	b309      	lw	v1,7f009a90 <offtime+0x12c>
7f009a6e:	dac4      	sw	a2,16(v0)
7f009a70:	da6a      	sw	v1,40(v0)
7f009a72:	e820      	jr	ra
7f009a74:	daa9      	sw	a1,36(v0)
7f009a76:	6500      	nop
7f009a78:	5180      	slti	s1,128
7f009a7a:	0001      	addiu	s0,sp,4
7f009a7c:	ae80      	lhu	a0,0(a2)
7f009a7e:	fffe      	daddiu	a3,sp,120
7f009a80:	517f      	slti	s1,127
7f009a82:	0001      	addiu	s0,sp,4
7f009a84:	e908      	dsrl	s0,1
7f009a86:	7f00      	sd	s0,0(a3)
7f009a88:	e29c      	daddu	a3,v0,a0
7f009a8a:	7f00      	sd	s0,0(a3)
7f009a8c:	e478      	daddu	a2,a0,v1
7f009a8e:	7f00      	sd	s0,0(a3)
7f009a90:	df7c      	sw	v1,112(a3)
7f009a92:	7f00      	sd	s0,0(a3)

7f009a94 <gmtime>:
7f009a94:	64c3      	save	24,ra
7f009a96:	181e 2659 	jal	7f009964 <offtime>
7f009a9a:	6d00      	li	a1,0
7f009a9c:	b304      	lw	v1,7f009aac <gmtime+0x18>
7f009a9e:	679c      	move	a0,gp
7f009aa0:	6443      	restore	24,ra
7f009aa2:	f030 dc60 	sw	v1,-32736(a0)
7f009aa6:	e820      	jr	ra
7f009aa8:	da6a      	sw	v1,40(v0)
7f009aaa:	6500      	nop
7f009aac:	e298      	daddu	a2,v0,a0
7f009aae:	7f00      	sd	s0,0(a3)

7f009ab0 <localtime>:
7f009ab0:	64f6      	save	48,ra,s0-s1
7f009ab2:	673c      	move	s1,gp
7f009ab4:	f050 9940 	lw	v0,-32704(s1)
7f009ab8:	6704      	move	s0,a0
7f009aba:	2a03      	bnez	v0,7f009ac2 <localtime+0x12>
7f009abc:	181e 2635 	jal	7f0098d4 <tzset>
7f009ac0:	6500      	nop
7f009ac2:	b220      	lw	v0,7f009b40 <localtime+0x90>
7f009ac4:	98a0      	lw	a1,0(s0)
7f009ac6:	9a80      	lw	a0,0(v0)
7f009ac8:	d504      	sw	a1,16(sp)
7f009aca:	2406      	beqz	a0,7f009ad8 <localtime+0x28>
7f009acc:	9a43      	lw	v0,12(v0)
7f009ace:	ed42      	slt	a1,v0
7f009ad0:	6103      	btnez	7f009ad8 <localtime+0x28>
7f009ad2:	b31d      	lw	v1,7f009b44 <localtime+0x94>
7f009ad4:	6a01      	li	v0,1
7f009ad6:	100f      	b	7f009af6 <localtime+0x46>
7f009ad8:	b31c      	lw	v1,7f009b48 <localtime+0x98>
7f009ada:	6a00      	li	v0,0
7f009adc:	1004      	b	7f009ae6 <localtime+0x36>
7f009ade:	4a01      	addiu	v0,1
7f009ae0:	ea82      	slt	v0,a0
7f009ae2:	4b0c      	addiu	v1,12
7f009ae4:	600f      	bteqz	7f009b04 <localtime+0x54>
7f009ae6:	9ba0      	lw	a1,0(v1)
7f009ae8:	2dfa      	bnez	a1,7f009ade <localtime+0x2e>
7f009aea:	100d      	b	7f009b06 <localtime+0x56>
7f009aec:	9bc0      	lw	a2,0(v1)
7f009aee:	4b04      	addiu	v1,4
7f009af0:	edc2      	slt	a1,a2
7f009af2:	6103      	btnez	7f009afa <localtime+0x4a>
7f009af4:	4a01      	addiu	v0,1
7f009af6:	ea82      	slt	v0,a0
7f009af8:	61f9      	btnez	7f009aec <localtime+0x3c>
7f009afa:	b312      	lw	v1,7f009b40 <localtime+0x90>
7f009afc:	e349      	addu	v0,v1,v0
7f009afe:	f5c0 a253 	lbu	v0,1491(v0)
7f009b02:	1001      	b	7f009b06 <localtime+0x56>
7f009b04:	6a00      	li	v0,0
7f009b06:	680c      	li	s0,12
7f009b08:	ea18      	mult	v0,s0
7f009b0a:	b30e      	lw	v1,7f009b40 <localtime+0x90>
7f009b0c:	0404      	addiu	a0,sp,16
7f009b0e:	f030 4900 	addiu	s1,-32736
7f009b12:	e812      	mflo	s0
7f009b14:	e301      	addu	s0,v1,s0
7f009b16:	f740 98a8 	lw	a1,1864(s0)
7f009b1a:	181e 2659 	jal	7f009964 <offtime>
7f009b1e:	d306      	sw	v1,24(sp)
7f009b20:	f740 988c 	lw	a0,1868(s0)
7f009b24:	f740 98b0 	lw	a1,1872(s0)
7f009b28:	9306      	lw	v1,24(sp)
7f009b2a:	da88      	sw	a0,32(v0)
7f009b2c:	f7c0 4d00 	addiu	a1,1984
7f009b30:	3488      	sll	a0,2
7f009b32:	e56d      	addu	v1,a1,v1
7f009b34:	e425      	addu	s1,a0,s1
7f009b36:	d960      	sw	v1,0(s1)
7f009b38:	6476      	restore	48,ra,s0-s1
7f009b3a:	e820      	jr	ra
7f009b3c:	da6a      	sw	v1,40(v0)
7f009b3e:	6500      	nop
7f009b40:	e934      	dsllv	s1,s1
7f009b42:	7f00      	sd	s0,0(a3)
7f009b44:	e944      	sllv	v0,s1
7f009b46:	7f00      	sd	s0,0(a3)
7f009b48:	f080 7f00 	sd	s0,128(a3)

7f009b4c <ctime>:
7f009b4c:	64c3      	save	24,ra
7f009b4e:	181e 26ac 	jal	7f009ab0 <localtime>
7f009b52:	6500      	nop
7f009b54:	181e 2621 	jal	7f009884 <asctime>
7f009b58:	6782      	move	a0,v0
7f009b5a:	6443      	restore	24,ra
7f009b5c:	e8a0      	jrc	ra
7f009b5e:	6500      	nop

7f009b60 <exit>:
7f009b60:	675c      	move	v0,gp
7f009b62:	64f4      	save	32,ra,s0-s1
7f009b64:	6724      	move	s1,a0
7f009b66:	f0d0 9a10 	lw	s0,-32560(v0)
7f009b6a:	1003      	b	7f009b72 <exit+0x12>
7f009b6c:	9841      	lw	v0,4(s0)
7f009b6e:	eac0      	jalrc	v0
7f009b70:	9800      	lw	s0,0(s0)
7f009b72:	28fc      	bnez	s0,7f009b6c <exit+0xc>
7f009b74:	181e 2783 	jal	7f009e0c <_cleanup>
7f009b78:	6500      	nop
7f009b7a:	1c1e 2ad4 	jalx	7f00ab50 <_exit>
7f009b7e:	6791      	move	a0,s1

7f009b80 <atexit>:
7f009b80:	64f5      	save	40,ra,s0-s1
7f009b82:	671c      	move	s0,gp
7f009b84:	f0d0 9830 	lw	s1,-32560(s0)
7f009b88:	6764      	move	v1,a0
7f009b8a:	2108      	beqz	s1,7f009b9c <atexit+0x1c>
7f009b8c:	6c08      	li	a0,8
7f009b8e:	181e 2867 	jal	7f00a19c <malloc>
7f009b92:	d304      	sw	v1,16(sp)
7f009b94:	9304      	lw	v1,16(sp)
7f009b96:	220a      	beqz	v0,7f009bac <atexit+0x2c>
7f009b98:	da20      	sw	s1,0(v0)
7f009b9a:	1003      	b	7f009ba2 <atexit+0x22>
7f009b9c:	6750      	move	v0,s0
7f009b9e:	f050 4a04 	addiu	v0,-32700
7f009ba2:	da61      	sw	v1,4(v0)
7f009ba4:	f0d0 d850 	sw	v0,-32560(s0)
7f009ba8:	6a00      	li	v0,0
7f009baa:	1002      	b	7f009bb0 <atexit+0x30>
7f009bac:	6a01      	li	v0,1
7f009bae:	ea4b      	neg	v0
7f009bb0:	6475      	restore	40,ra,s0-s1
7f009bb2:	e8a0      	jrc	ra
7f009bb4:	e8a0      	jrc	ra
7f009bb6:	6500      	nop

7f009bb8 <_filbuf>:
7f009bb8:	8c68      	lh	v1,16(a0)
7f009bba:	6aff      	li	v0,255
7f009bbc:	4a01      	addiu	v0,1
7f009bbe:	ea6c      	and	v0,v1
7f009bc0:	64fc      	save	96,ra,s0-s1
7f009bc2:	6704      	move	s0,a0
7f009bc4:	2203      	beqz	v0,7f009bcc <_filbuf+0x14>
7f009bc6:	6a01      	li	v0,1
7f009bc8:	ea6d      	or	v0,v1
7f009bca:	cc48      	sh	v0,16(a0)
7f009bcc:	a848      	lhu	v0,16(s0)
7f009bce:	6b01      	li	v1,1
7f009bd0:	eb4c      	and	v1,v0
7f009bd2:	2374      	beqz	v1,7f009cbc <_filbuf+0x104>
7f009bd4:	6b50      	li	v1,80
7f009bd6:	ea6c      	and	v0,v1
7f009bd8:	2a71      	bnez	v0,7f009cbc <_filbuf+0x104>
7f009bda:	9842      	lw	v0,8(s0)
7f009bdc:	2a26      	bnez	v0,7f009c2a <_filbuf+0x72>
7f009bde:	a848      	lhu	v0,16(s0)
7f009be0:	6b04      	li	v1,4
7f009be2:	ea6c      	and	v0,v1
7f009be4:	2209      	beqz	v0,7f009bf8 <_filbuf+0x40>
7f009be6:	675c      	move	v0,gp
7f009be8:	f030 9a68 	lw	v1,-32728(v0)
7f009bec:	0204      	addiu	v0,sp,16
7f009bee:	2302      	beqz	v1,7f009bf4 <_filbuf+0x3c>
7f009bf0:	8849      	lh	v0,18(s0)
7f009bf2:	e349      	addu	v0,v1,v0
7f009bf4:	d842      	sw	v0,8(s0)
7f009bf6:	17f1      	b	7f009bda <_filbuf+0x22>
7f009bf8:	8889      	lh	a0,18(s0)
7f009bfa:	1c1e 282c 	jalx	7f00a0b0 <fstat>
7f009bfe:	0505      	addiu	a1,sp,20
7f009c00:	5200      	slti	v0,0
7f009c02:	6103      	btnez	7f009c0a <_filbuf+0x52>
7f009c04:	9110      	lw	s1,64(sp)
7f009c06:	5101      	slti	s1,1
7f009c08:	6002      	bteqz	7f009c0e <_filbuf+0x56>
7f009c0a:	f400 6900 	li	s1,1024
7f009c0e:	181e 2867 	jal	7f00a19c <malloc>
7f009c12:	6791      	move	a0,s1
7f009c14:	d842      	sw	v0,8(s0)
7f009c16:	a868      	lhu	v1,16(s0)
7f009c18:	2a04      	bnez	v0,7f009c22 <_filbuf+0x6a>
7f009c1a:	6a04      	li	v0,4
7f009c1c:	ea6d      	or	v0,v1
7f009c1e:	c848      	sh	v0,16(s0)
7f009c20:	17dc      	b	7f009bda <_filbuf+0x22>
7f009c22:	6a08      	li	v0,8
7f009c24:	ea6d      	or	v0,v1
7f009c26:	c848      	sh	v0,16(s0)
7f009c28:	d823      	sw	s1,12(s0)
7f009c2a:	b227      	lw	v0,7f009cc4 <_filbuf+0x10c>
7f009c2c:	e04f      	subu	v1,s0,v0
7f009c2e:	2b11      	bnez	v1,7f009c52 <_filbuf+0x9a>
7f009c30:	aa52      	lhu	v0,36(v0)
7f009c32:	6b80      	li	v1,128
7f009c34:	ea6c      	and	v0,v1
7f009c36:	2204      	beqz	v0,7f009c40 <_filbuf+0x88>
7f009c38:	b424      	lw	a0,7f009cc8 <_filbuf+0x110>
7f009c3a:	181e 27d8 	jal	7f009f60 <fflush>
7f009c3e:	6500      	nop
7f009c40:	b221      	lw	v0,7f009cc4 <_filbuf+0x10c>
7f009c42:	aa5c      	lhu	v0,56(v0)
7f009c44:	6b80      	li	v1,128
7f009c46:	ea6c      	and	v0,v1
7f009c48:	2204      	beqz	v0,7f009c52 <_filbuf+0x9a>
7f009c4a:	b421      	lw	a0,7f009ccc <_filbuf+0x114>
7f009c4c:	181e 27d8 	jal	7f009f60 <fflush>
7f009c50:	6500      	nop
7f009c52:	a848      	lhu	v0,16(s0)
7f009c54:	6b04      	li	v1,4
7f009c56:	8889      	lh	a0,18(s0)
7f009c58:	ea6c      	and	v0,v1
7f009c5a:	98a2      	lw	a1,8(s0)
7f009c5c:	6e01      	li	a2,1
7f009c5e:	2a01      	bnez	v0,7f009c62 <_filbuf+0xaa>
7f009c60:	98c3      	lw	a2,12(s0)
7f009c62:	1c1e 29c2 	jalx	7f00a708 <read>
7f009c66:	6500      	nop
7f009c68:	d840      	sw	v0,0(s0)
7f009c6a:	a848      	lhu	v0,16(s0)
7f009c6c:	9862      	lw	v1,8(s0)
7f009c6e:	6c04      	li	a0,4
7f009c70:	ea8c      	and	v0,a0
7f009c72:	d861      	sw	v1,4(s0)
7f009c74:	2204      	beqz	v0,7f009c7e <_filbuf+0xc6>
7f009c76:	0204      	addiu	v0,sp,16
7f009c78:	ea6e      	xor	v0,v1
7f009c7a:	2a01      	bnez	v0,7f009c7e <_filbuf+0xc6>
7f009c7c:	d842      	sw	v0,8(s0)
7f009c7e:	9840      	lw	v0,0(s0)
7f009c80:	426f      	addiu	v1,v0,-1
7f009c82:	5300      	slti	v1,0
7f009c84:	d860      	sw	v1,0(s0)
7f009c86:	6015      	bteqz	7f009cb2 <_filbuf+0xfa>
7f009c88:	a868      	lhu	v1,16(s0)
7f009c8a:	2a0c      	bnez	v0,7f009ca4 <_filbuf+0xec>
7f009c8c:	6a10      	li	v0,16
7f009c8e:	ea6d      	or	v0,v1
7f009c90:	6bff      	li	v1,255
7f009c92:	eab1      	seh	v0
7f009c94:	4b01      	addiu	v1,1
7f009c96:	eb4c      	and	v1,v0
7f009c98:	c848      	sh	v0,16(s0)
7f009c9a:	2307      	beqz	v1,7f009caa <_filbuf+0xf2>
7f009c9c:	6b02      	li	v1,2
7f009c9e:	eb6b      	neg	v1
7f009ca0:	ea6c      	and	v0,v1
7f009ca2:	1002      	b	7f009ca8 <_filbuf+0xf0>
7f009ca4:	6a20      	li	v0,32
7f009ca6:	ea6d      	or	v0,v1
7f009ca8:	c848      	sh	v0,16(s0)
7f009caa:	6a00      	li	v0,0
7f009cac:	d840      	sw	v0,0(s0)
7f009cae:	4aff      	addiu	v0,-1
7f009cb0:	1007      	b	7f009cc0 <_filbuf+0x108>
7f009cb2:	9861      	lw	v1,4(s0)
7f009cb4:	a340      	lbu	v0,0(v1)
7f009cb6:	4b01      	addiu	v1,1
7f009cb8:	d861      	sw	v1,4(s0)
7f009cba:	1002      	b	7f009cc0 <_filbuf+0x108>
7f009cbc:	6a01      	li	v0,1
7f009cbe:	ea4b      	neg	v0
7f009cc0:	647c      	restore	96,ra,s0-s1
7f009cc2:	e8a0      	jrc	ra
7f009cc4:	e618      	daddu	a2,s0
7f009cc6:	7f00      	sd	s0,0(a3)
7f009cc8:	e62c      	daddu	v1,a2,s1
7f009cca:	7f00      	sd	s0,0(a3)
7f009ccc:	e640      	daddu	s0,a2,v0
7f009cce:	7f00      	sd	s0,0(a3)

7f009cd0 <_f_morefiles>:
7f009cd0:	64f4      	save	32,ra,s0-s1
7f009cd2:	1c1e 2831 	jalx	7f00a0c4 <getdtablesize>
7f009cd6:	673c      	move	s1,gp
7f009cd8:	6782      	move	a0,v0
7f009cda:	6d04      	li	a1,4
7f009cdc:	181e 2ada 	jal	7f00ab68 <calloc>
7f009ce0:	6702      	move	s0,v0
7f009ce2:	f050 d94c 	sw	v0,-32692(s1)
7f009ce6:	6b00      	li	v1,0
7f009ce8:	2213      	beqz	v0,7f009d10 <_f_morefiles+0x40>
7f009cea:	3308      	sll	v1,s0,2
7f009cec:	e26d      	addu	v1,v0,v1
7f009cee:	4287      	addiu	a0,v0,7
7f009cf0:	f050 d970 	sw	v1,-32688(s1)
7f009cf4:	4c49      	addiu	a0,73
7f009cf6:	b309      	lw	v1,7f009d18 <_f_morefiles+0x48>
7f009cf8:	da60      	sw	v1,0(v0)
7f009cfa:	4a04      	addiu	v0,4
7f009cfc:	ea8a      	cmp	v0,a0
7f009cfe:	4b14      	addiu	v1,20
7f009d00:	61fb      	btnez	7f009cf8 <_f_morefiles+0x28>
7f009d02:	6790      	move	a0,s0
7f009d04:	181e 2ada 	jal	7f00ab68 <calloc>
7f009d08:	6d01      	li	a1,1
7f009d0a:	f030 d948 	sw	v0,-32728(s1)
7f009d0e:	6b01      	li	v1,1
7f009d10:	6474      	restore	32,ra,s0-s1
7f009d12:	e820      	jr	ra
7f009d14:	6743      	move	v0,v1
7f009d16:	6500      	nop
7f009d18:	e618      	daddu	a2,s0
7f009d1a:	7f00      	sd	s0,0(a3)

7f009d1c <_findiop>:
7f009d1c:	64f4      	save	32,ra,s0-s1
7f009d1e:	671c      	move	s0,gp
7f009d20:	f050 984c 	lw	v0,-32692(s0)
7f009d24:	2a10      	bnez	v0,7f009d46 <_findiop+0x2a>
7f009d26:	b417      	lw	a0,7f009d80 <_findiop+0x64>
7f009d28:	b217      	lw	v0,7f009d84 <_findiop+0x68>
7f009d2a:	aa68      	lhu	v1,16(v0)
7f009d2c:	6dff      	li	a1,255
7f009d2e:	4d04      	addiu	a1,4
7f009d30:	ebac      	and	v1,a1
7f009d32:	2324      	beqz	v1,7f009d7c <_findiop+0x60>
7f009d34:	4a14      	addiu	v0,20
7f009d36:	ea8a      	cmp	v0,a0
7f009d38:	61f8      	btnez	7f009d2a <_findiop+0xe>
7f009d3a:	181e 2734 	jal	7f009cd0 <_f_morefiles>
7f009d3e:	6500      	nop
7f009d40:	2a02      	bnez	v0,7f009d46 <_findiop+0x2a>
7f009d42:	6a0c      	li	v0,12
7f009d44:	1009      	b	7f009d58 <_findiop+0x3c>
7f009d46:	f050 982c 	lw	s1,-32692(s0)
7f009d4a:	f050 9850 	lw	v0,-32688(s0)
7f009d4e:	1008      	b	7f009d60 <_findiop+0x44>
7f009d50:	4904      	addiu	s1,4
7f009d52:	e943      	sltu	s1,v0
7f009d54:	6105      	btnez	7f009d60 <_findiop+0x44>
7f009d56:	6a18      	li	v0,24
7f009d58:	f0d0 d84c 	sw	v0,-32564(s0)
7f009d5c:	6a00      	li	v0,0
7f009d5e:	100e      	b	7f009d7c <_findiop+0x60>
7f009d60:	9960      	lw	v1,0(s1)
7f009d62:	2306      	beqz	v1,7f009d70 <_findiop+0x54>
7f009d64:	ab68      	lhu	v1,16(v1)
7f009d66:	6cff      	li	a0,255
7f009d68:	4c04      	addiu	a0,4
7f009d6a:	eb8c      	and	v1,a0
7f009d6c:	2bf1      	bnez	v1,7f009d50 <_findiop+0x34>
7f009d6e:	1005      	b	7f009d7a <_findiop+0x5e>
7f009d70:	6c01      	li	a0,1
7f009d72:	181e 2ada 	jal	7f00ab68 <calloc>
7f009d76:	6d14      	li	a1,20
7f009d78:	d940      	sw	v0,0(s1)
7f009d7a:	9940      	lw	v0,0(s1)
7f009d7c:	6474      	restore	32,ra,s0-s1
7f009d7e:	e8a0      	jrc	ra
7f009d80:	e7a8      	daddu	v0,a3,a1
7f009d82:	7f00      	sd	s0,0(a3)
7f009d84:	e618      	daddu	a2,s0
7f009d86:	7f00      	sd	s0,0(a3)

7f009d88 <f_prealloc>:
7f009d88:	64f4      	save	32,ra,s0-s1
7f009d8a:	673c      	move	s1,gp
7f009d8c:	f050 994c 	lw	v0,-32692(s1)
7f009d90:	2a04      	bnez	v0,7f009d9a <f_prealloc+0x12>
7f009d92:	181e 2734 	jal	7f009cd0 <_f_morefiles>
7f009d96:	6500      	nop
7f009d98:	220f      	beqz	v0,7f009db8 <f_prealloc+0x30>
7f009d9a:	f050 990c 	lw	s0,-32692(s1)
7f009d9e:	1008      	b	7f009db0 <f_prealloc+0x28>
7f009da0:	9840      	lw	v0,0(s0)
7f009da2:	2a05      	bnez	v0,7f009dae <f_prealloc+0x26>
7f009da4:	6c01      	li	a0,1
7f009da6:	181e 2ada 	jal	7f00ab68 <calloc>
7f009daa:	6d14      	li	a1,20
7f009dac:	d840      	sw	v0,0(s0)
7f009dae:	4804      	addiu	s0,4
7f009db0:	f050 9950 	lw	v0,-32688(s1)
7f009db4:	e843      	sltu	s0,v0
7f009db6:	61f4      	btnez	7f009da0 <f_prealloc+0x18>
7f009db8:	6474      	restore	32,ra,s0-s1
7f009dba:	e8a0      	jrc	ra

7f009dbc <_fwalk>:
7f009dbc:	f004 64f4 	save	a0,32,ra,s0-s1
7f009dc0:	673c      	move	s1,gp
7f009dc2:	f050 990c 	lw	s0,-32692(s1)
7f009dc6:	2818      	bnez	s0,7f009df8 <_fwalk+0x3c>
7f009dc8:	b10f      	lw	s1,7f009e04 <_fwalk+0x48>
7f009dca:	b010      	lw	s0,7f009e08 <_fwalk+0x4c>
7f009dcc:	a848      	lhu	v0,16(s0)
7f009dce:	6bff      	li	v1,255
7f009dd0:	4b04      	addiu	v1,4
7f009dd2:	ea6c      	and	v0,v1
7f009dd4:	2203      	beqz	v0,7f009ddc <_fwalk+0x20>
7f009dd6:	9308      	lw	v1,32(sp)
7f009dd8:	eb40      	jalr	v1
7f009dda:	6790      	move	a0,s0
7f009ddc:	4814      	addiu	s0,20
7f009dde:	e82a      	cmp	s0,s1
7f009de0:	61f5      	btnez	7f009dcc <_fwalk+0x10>
7f009de2:	100e      	b	7f009e00 <_fwalk+0x44>
7f009de4:	9880      	lw	a0,0(s0)
7f009de6:	2407      	beqz	a0,7f009df6 <_fwalk+0x3a>
7f009de8:	ac48      	lhu	v0,16(a0)
7f009dea:	6bff      	li	v1,255
7f009dec:	4b04      	addiu	v1,4
7f009dee:	ea6c      	and	v0,v1
7f009df0:	2202      	beqz	v0,7f009df6 <_fwalk+0x3a>
7f009df2:	9308      	lw	v1,32(sp)
7f009df4:	ebc0      	jalrc	v1
7f009df6:	4804      	addiu	s0,4
7f009df8:	f050 9950 	lw	v0,-32688(s1)
7f009dfc:	e843      	sltu	s0,v0
7f009dfe:	61f2      	btnez	7f009de4 <_fwalk+0x28>
7f009e00:	6474      	restore	32,ra,s0-s1
7f009e02:	e8a0      	jrc	ra
7f009e04:	e7a8      	daddu	v0,a3,a1
7f009e06:	7f00      	sd	s0,0(a3)
7f009e08:	e618      	daddu	a2,s0
7f009e0a:	7f00      	sd	s0,0(a3)

7f009e0c <_cleanup>:
7f009e0c:	64c3      	save	24,ra
7f009e0e:	b404      	lw	a0,7f009e1c <_cleanup+0x10>
7f009e10:	181e 276f 	jal	7f009dbc <_fwalk>
7f009e14:	6500      	nop
7f009e16:	6443      	restore	24,ra
7f009e18:	e8a0      	jrc	ra
7f009e1a:	6500      	nop
7f009e1c:	9fad      	lw	a1,52(a3)
7f009e1e:	7f00      	sd	s0,0(a3)

7f009e20 <_flsbuf>:
7f009e20:	8d68      	lh	v1,16(a1)
7f009e22:	6aff      	li	v0,255
7f009e24:	4a01      	addiu	v0,1
7f009e26:	64fe      	save	112,ra,s0-s1
7f009e28:	ec11      	zeb	a0
7f009e2a:	ea6c      	and	v0,v1
7f009e2c:	6705      	move	s0,a1
7f009e2e:	d414      	sw	a0,80(sp)
7f009e30:	2206      	beqz	v0,7f009e3e <_flsbuf+0x1e>
7f009e32:	6a02      	li	v0,2
7f009e34:	ea6d      	or	v0,v1
7f009e36:	6b12      	li	v1,18
7f009e38:	eb6b      	neg	v1
7f009e3a:	ea6c      	and	v0,v1
7f009e3c:	cd48      	sh	v0,16(a1)
7f009e3e:	a848      	lhu	v0,16(s0)
7f009e40:	6b02      	li	v1,2
7f009e42:	ea6c      	and	v0,v1
7f009e44:	f080 2204 	beqz	v0,7f009f50 <_flsbuf+0x130>
7f009e48:	a848      	lhu	v0,16(s0)
7f009e4a:	6b80      	li	v1,128
7f009e4c:	eb4c      	and	v1,v0
7f009e4e:	231e      	beqz	v1,7f009e8c <_flsbuf+0x6c>
7f009e50:	675d      	move	v0,sp
7f009e52:	98e1      	lw	a3,4(s0)
7f009e54:	f040 a250 	lbu	v0,80(v0)
7f009e58:	9862      	lw	v1,8(s0)
7f009e5a:	c740      	sb	v0,0(a3)
7f009e5c:	9843      	lw	v0,12(s0)
7f009e5e:	4f01      	addiu	a3,1
7f009e60:	d8e1      	sw	a3,4(s0)
7f009e62:	e349      	addu	v0,v1,v0
7f009e64:	ef43      	sltu	a3,v0
7f009e66:	6003      	bteqz	7f009e6e <_flsbuf+0x4e>
7f009e68:	9414      	lw	a0,80(sp)
7f009e6a:	740a      	cmpi	a0,10
7f009e6c:	616f      	btnez	7f009f4c <_flsbuf+0x12c>
7f009e6e:	8889      	lh	a0,18(s0)
7f009e70:	e77f      	subu	a3,v1
7f009e72:	67a3      	move	a1,v1
7f009e74:	67c7      	move	a2,a3
7f009e76:	d316      	sw	v1,88(sp)
7f009e78:	1c1e 2aca 	jalx	7f00ab28 <write>
7f009e7c:	d715      	sw	a3,84(sp)
7f009e7e:	9316      	lw	v1,88(sp)
7f009e80:	6722      	move	s1,v0
7f009e82:	6a00      	li	v0,0
7f009e84:	d861      	sw	v1,4(s0)
7f009e86:	d840      	sw	v0,0(s0)
7f009e88:	9715      	lw	a3,84(sp)
7f009e8a:	1059      	b	7f009f3e <_flsbuf+0x11e>
7f009e8c:	6c04      	li	a0,4
7f009e8e:	ea8c      	and	v0,a0
7f009e90:	220f      	beqz	v0,7f009eb0 <_flsbuf+0x90>
7f009e92:	675d      	move	v0,sp
7f009e94:	f040 a290 	lbu	a0,80(v0)
7f009e98:	0504      	addiu	a1,sp,16
7f009e9a:	6e01      	li	a2,1
7f009e9c:	c290      	sb	a0,16(v0)
7f009e9e:	8889      	lh	a0,18(s0)
7f009ea0:	1c1e 2aca 	jalx	7f00ab28 <write>
7f009ea4:	d316      	sw	v1,88(sp)
7f009ea6:	9316      	lw	v1,88(sp)
7f009ea8:	6722      	move	s1,v0
7f009eaa:	6f01      	li	a3,1
7f009eac:	d860      	sw	v1,0(s0)
7f009eae:	1047      	b	7f009f3e <_flsbuf+0x11e>
7f009eb0:	9862      	lw	v1,8(s0)
7f009eb2:	2b2a      	bnez	v1,7f009f08 <_flsbuf+0xe8>
7f009eb4:	8889      	lh	a0,18(s0)
7f009eb6:	1c1e 282c 	jalx	7f00a0b0 <fstat>
7f009eba:	0505      	addiu	a1,sp,20
7f009ebc:	5200      	slti	v0,0
7f009ebe:	6103      	btnez	7f009ec6 <_flsbuf+0xa6>
7f009ec0:	9110      	lw	s1,64(sp)
7f009ec2:	5101      	slti	s1,1
7f009ec4:	6002      	bteqz	7f009eca <_flsbuf+0xaa>
7f009ec6:	f400 6900 	li	s1,1024
7f009eca:	181e 2867 	jal	7f00a19c <malloc>
7f009ece:	6791      	move	a0,s1
7f009ed0:	6762      	move	v1,v0
7f009ed2:	d842      	sw	v0,8(s0)
7f009ed4:	a888      	lhu	a0,16(s0)
7f009ed6:	2a04      	bnez	v0,7f009ee0 <_flsbuf+0xc0>
7f009ed8:	6a04      	li	v0,4
7f009eda:	ea8d      	or	v0,a0
7f009edc:	c848      	sh	v0,16(s0)
7f009ede:	17b4      	b	7f009e48 <_flsbuf+0x28>
7f009ee0:	6a08      	li	v0,8
7f009ee2:	ea8d      	or	v0,a0
7f009ee4:	c848      	sh	v0,16(s0)
7f009ee6:	b21d      	lw	v0,7f009f58 <_flsbuf+0x138>
7f009ee8:	e04b      	subu	v0,s0,v0
7f009eea:	d823      	sw	s1,12(s0)
7f009eec:	2a1d      	bnez	v0,7f009f28 <_flsbuf+0x108>
7f009eee:	b11c      	lw	s1,7f009f5c <_flsbuf+0x13c>
7f009ef0:	8993      	lh	a0,38(s1)
7f009ef2:	181e 285c 	jal	7f00a170 <isatty>
7f009ef6:	d316      	sw	v1,88(sp)
7f009ef8:	9316      	lw	v1,88(sp)
7f009efa:	2216      	beqz	v0,7f009f28 <_flsbuf+0x108>
7f009efc:	a992      	lhu	a0,36(s1)
7f009efe:	6a80      	li	v0,128
7f009f00:	d966      	sw	v1,24(s1)
7f009f02:	ea8d      	or	v0,a0
7f009f04:	c952      	sh	v0,36(s1)
7f009f06:	17a0      	b	7f009e48 <_flsbuf+0x28>
7f009f08:	9821      	lw	s1,4(s0)
7f009f0a:	e167      	subu	s1,v1
7f009f0c:	5101      	slti	s1,1
7f009f0e:	67f1      	move	a3,s1
7f009f10:	610d      	btnez	7f009f2c <_flsbuf+0x10c>
7f009f12:	8889      	lh	a0,18(s0)
7f009f14:	d861      	sw	v1,4(s0)
7f009f16:	67a3      	move	a1,v1
7f009f18:	67d1      	move	a2,s1
7f009f1a:	1c1e 2aca 	jalx	7f00ab28 <write>
7f009f1e:	d316      	sw	v1,88(sp)
7f009f20:	67f1      	move	a3,s1
7f009f22:	9316      	lw	v1,88(sp)
7f009f24:	6722      	move	s1,v0
7f009f26:	1002      	b	7f009f2c <_flsbuf+0x10c>
7f009f28:	6f00      	li	a3,0
7f009f2a:	6727      	move	s1,a3
7f009f2c:	9843      	lw	v0,12(s0)
7f009f2e:	4aff      	addiu	v0,-1
7f009f30:	d840      	sw	v0,0(s0)
7f009f32:	675d      	move	v0,sp
7f009f34:	f040 a250 	lbu	v0,80(v0)
7f009f38:	c340      	sb	v0,0(v1)
7f009f3a:	4b01      	addiu	v1,1
7f009f3c:	d861      	sw	v1,4(s0)
7f009f3e:	e9ee      	xor	s1,a3
7f009f40:	2105      	beqz	s1,7f009f4c <_flsbuf+0x12c>
7f009f42:	a868      	lhu	v1,16(s0)
7f009f44:	6a20      	li	v0,32
7f009f46:	ea6d      	or	v0,v1
7f009f48:	c848      	sh	v0,16(s0)
7f009f4a:	1002      	b	7f009f50 <_flsbuf+0x130>
7f009f4c:	9214      	lw	v0,80(sp)
7f009f4e:	1002      	b	7f009f54 <_flsbuf+0x134>
7f009f50:	6a01      	li	v0,1
7f009f52:	ea4b      	neg	v0
7f009f54:	647e      	restore	112,ra,s0-s1
7f009f56:	e8a0      	jrc	ra
7f009f58:	e62c      	daddu	v1,a2,s1
7f009f5a:	7f00      	sd	s0,0(a3)
7f009f5c:	e618      	daddu	a2,s0
7f009f5e:	7f00      	sd	s0,0(a3)

7f009f60 <fflush>:
7f009f60:	64f4      	save	32,ra,s0-s1
7f009f62:	6704      	move	s0,a0
7f009f64:	ac88      	lhu	a0,16(a0)
7f009f66:	6b06      	li	v1,6
7f009f68:	6a02      	li	v0,2
7f009f6a:	eb8c      	and	v1,a0
7f009f6c:	eb4e      	xor	v1,v0
7f009f6e:	6a00      	li	v0,0
7f009f70:	2b1b      	bnez	v1,7f009fa8 <fflush+0x48>
7f009f72:	98a2      	lw	a1,8(s0)
7f009f74:	6743      	move	v0,v1
7f009f76:	2518      	beqz	a1,7f009fa8 <fflush+0x48>
7f009f78:	9821      	lw	s1,4(s0)
7f009f7a:	e1a7      	subu	s1,a1
7f009f7c:	5101      	slti	s1,1
7f009f7e:	6114      	btnez	7f009fa8 <fflush+0x48>
7f009f80:	6a84      	li	v0,132
7f009f82:	ec4c      	and	a0,v0
7f009f84:	d8a1      	sw	a1,4(s0)
7f009f86:	6a00      	li	v0,0
7f009f88:	2c01      	bnez	a0,7f009f8c <fflush+0x2c>
7f009f8a:	9843      	lw	v0,12(s0)
7f009f8c:	8889      	lh	a0,18(s0)
7f009f8e:	67d1      	move	a2,s1
7f009f90:	1c1e 2aca 	jalx	7f00ab28 <write>
7f009f94:	d840      	sw	v0,0(s0)
7f009f96:	e94e      	xor	s1,v0
7f009f98:	6a00      	li	v0,0
7f009f9a:	2106      	beqz	s1,7f009fa8 <fflush+0x48>
7f009f9c:	a868      	lhu	v1,16(s0)
7f009f9e:	6a20      	li	v0,32
7f009fa0:	ea6d      	or	v0,v1
7f009fa2:	c848      	sh	v0,16(s0)
7f009fa4:	6a01      	li	v0,1
7f009fa6:	ea4b      	neg	v0
7f009fa8:	6474      	restore	32,ra,s0-s1
7f009faa:	e8a0      	jrc	ra

7f009fac <fclose>:
7f009fac:	ac48      	lhu	v0,16(a0)
7f009fae:	6bff      	li	v1,255
7f009fb0:	4b04      	addiu	v1,4
7f009fb2:	eb4c      	and	v1,v0
7f009fb4:	64f4      	save	32,ra,s0-s1
7f009fb6:	6704      	move	s0,a0
7f009fb8:	2316      	beqz	v1,7f009fe6 <fclose+0x3a>
7f009fba:	6b40      	li	v1,64
7f009fbc:	ea6c      	and	v0,v1
7f009fbe:	2a13      	bnez	v0,7f009fe6 <fclose+0x3a>
7f009fc0:	181e 27d8 	jal	7f009f60 <fflush>
7f009fc4:	6500      	nop
7f009fc6:	8889      	lh	a0,18(s0)
7f009fc8:	1c1e 258b 	jalx	7f00962c <close>
7f009fcc:	6722      	move	s1,v0
7f009fce:	5200      	slti	v0,0
7f009fd0:	6002      	bteqz	7f009fd6 <fclose+0x2a>
7f009fd2:	6901      	li	s1,1
7f009fd4:	e92b      	neg	s1
7f009fd6:	a848      	lhu	v0,16(s0)
7f009fd8:	6b08      	li	v1,8
7f009fda:	ea6c      	and	v0,v1
7f009fdc:	2206      	beqz	v0,7f009fea <fclose+0x3e>
7f009fde:	181e 28af 	jal	7f00a2bc <free>
7f009fe2:	9882      	lw	a0,8(s0)
7f009fe4:	1002      	b	7f009fea <fclose+0x3e>
7f009fe6:	6901      	li	s1,1
7f009fe8:	e92b      	neg	s1
7f009fea:	6a00      	li	v0,0
7f009fec:	d840      	sw	v0,0(s0)
7f009fee:	d842      	sw	v0,8(s0)
7f009ff0:	d841      	sw	v0,4(s0)
7f009ff2:	d843      	sw	v0,12(s0)
7f009ff4:	c848      	sh	v0,16(s0)
7f009ff6:	c849      	sh	v0,18(s0)
7f009ff8:	6751      	move	v0,s1
7f009ffa:	6474      	restore	32,ra,s0-s1
7f009ffc:	e8a0      	jrc	ra
7f009ffe:	6500      	nop

7f00a000 <fopen>:
7f00a000:	f008 64f5 	save	a0-a1,40,ra,s0-s1
7f00a004:	181e 2747 	jal	7f009d1c <_findiop>
7f00a008:	d404      	sw	a0,16(sp)
7f00a00a:	6702      	move	s0,v0
7f00a00c:	9404      	lw	a0,16(sp)
7f00a00e:	2242      	beqz	v0,7f00a094 <fopen+0x94>
7f00a010:	920b      	lw	v0,44(sp)
7f00a012:	6b2b      	li	v1,43
7f00a014:	8221      	lb	s1,1(v0)
7f00a016:	8240      	lb	v0,0(v0)
7f00a018:	e96e      	xor	s1,v1
7f00a01a:	5901      	sltiu	s1,1
7f00a01c:	6738      	move	s1,t8
7f00a01e:	7272      	cmpi	v0,114
7f00a020:	6009      	bteqz	7f00a034 <fopen+0x34>
7f00a022:	7277      	cmpi	v0,119
7f00a024:	600b      	bteqz	7f00a03c <fopen+0x3c>
7f00a026:	7261      	cmpi	v0,97
7f00a028:	6134      	btnez	7f00a092 <fopen+0x92>
7f00a02a:	5901      	sltiu	s1,1
7f00a02c:	67b8      	move	a1,t8
7f00a02e:	f200 6a02 	li	v0,514
7f00a032:	1008      	b	7f00a044 <fopen+0x44>
7f00a034:	6d00      	li	a1,0
7f00a036:	2107      	beqz	s1,7f00a046 <fopen+0x46>
7f00a038:	6d02      	li	a1,2
7f00a03a:	1005      	b	7f00a046 <fopen+0x46>
7f00a03c:	5901      	sltiu	s1,1
7f00a03e:	67b8      	move	a1,t8
7f00a040:	f600 6a02 	li	v0,1538
7f00a044:	e2b7      	subu	a1,v0,a1
7f00a046:	f1a0 6e16 	li	a2,438
7f00a04a:	1c1e 28d5 	jalx	7f00a354 <open>
7f00a04e:	6500      	nop
7f00a050:	5200      	slti	v0,0
7f00a052:	6762      	move	v1,v0
7f00a054:	611e      	btnez	7f00a092 <fopen+0x92>
7f00a056:	940b      	lw	a0,44(sp)
7f00a058:	8440      	lb	v0,0(a0)
7f00a05a:	7261      	cmpi	v0,97
7f00a05c:	6107      	btnez	7f00a06c <fopen+0x6c>
7f00a05e:	6783      	move	a0,v1
7f00a060:	6d00      	li	a1,0
7f00a062:	6e02      	li	a2,2
7f00a064:	1c1e 2862 	jalx	7f00a188 <lseek>
7f00a068:	d304      	sw	v1,16(sp)
7f00a06a:	9304      	lw	v1,16(sp)
7f00a06c:	6a00      	li	v0,0
7f00a06e:	d840      	sw	v0,0(s0)
7f00a070:	c869      	sh	v1,18(s0)
7f00a072:	d843      	sw	v0,12(s0)
7f00a074:	2103      	beqz	s1,7f00a07c <fopen+0x7c>
7f00a076:	f100 6a00 	li	v0,256
7f00a07a:	1006      	b	7f00a088 <fopen+0x88>
7f00a07c:	930b      	lw	v1,44(sp)
7f00a07e:	8340      	lb	v0,0(v1)
7f00a080:	7272      	cmpi	v0,114
7f00a082:	6a01      	li	v0,1
7f00a084:	6001      	bteqz	7f00a088 <fopen+0x88>
7f00a086:	6a02      	li	v0,2
7f00a088:	c848      	sh	v0,16(s0)
7f00a08a:	6a00      	li	v0,0
7f00a08c:	d841      	sw	v0,4(s0)
7f00a08e:	d842      	sw	v0,8(s0)
7f00a090:	1001      	b	7f00a094 <fopen+0x94>
7f00a092:	6800      	li	s0,0
7f00a094:	6750      	move	v0,s0
7f00a096:	6475      	restore	40,ra,s0-s1
7f00a098:	e8a0      	jrc	ra
7f00a09a:	6500      	nop

7f00a09c <fork>:
7f00a09c:	0000008c 	syscall	0x2
7f00a0a0:	3c097f01 	lui	t1,0x7f01
7f00a0a4:	ad28e8fc 	sw	t0,-5892(t1)
7f00a0a8:	03e00008 	jr	ra
7f00a0ac:	00000000 	nop

7f00a0b0 <fstat>:
7f00a0b0:	00000f8c 	syscall	0x3e
7f00a0b4:	3c097f01 	lui	t1,0x7f01
7f00a0b8:	ad28e8fc 	sw	t0,-5892(t1)
7f00a0bc:	03e00008 	jr	ra
7f00a0c0:	00000000 	nop

7f00a0c4 <getdtablesize>:
7f00a0c4:	0000164c 	syscall	0x59
7f00a0c8:	3c097f01 	lui	t1,0x7f01
7f00a0cc:	ad28e8fc 	sw	t0,-5892(t1)
7f00a0d0:	03e00008 	jr	ra
7f00a0d4:	00000000 	nop

7f00a0d8 <_findenv>:
7f00a0d8:	f008 64f6 	save	a0-a1,48,ra,s0-s1
7f00a0dc:	67e4      	move	a3,a0
7f00a0de:	6744      	move	v0,a0
7f00a0e0:	6900      	li	s1,0
7f00a0e2:	1002      	b	7f00a0e8 <_findenv+0x10>
7f00a0e4:	4901      	addiu	s1,1
7f00a0e6:	4a01      	addiu	v0,1
7f00a0e8:	8260      	lb	v1,0(v0)
7f00a0ea:	2302      	beqz	v1,7f00a0f0 <_findenv+0x18>
7f00a0ec:	733d      	cmpi	v1,61
7f00a0ee:	61fa      	btnez	7f00a0e4 <_findenv+0xc>
7f00a0f0:	675c      	move	v0,gp
7f00a0f2:	f070 9a5c 	lw	v0,-32644(v0)
7f00a0f6:	d204      	sw	v0,16(sp)
7f00a0f8:	6762      	move	v1,v0
7f00a0fa:	1016      	b	7f00a128 <_findenv+0x50>
7f00a0fc:	67a7      	move	a1,a3
7f00a0fe:	6790      	move	a0,s0
7f00a100:	67d1      	move	a2,s1
7f00a102:	d305      	sw	v1,20(sp)
7f00a104:	181e 2a87 	jal	7f00aa1c <strncmp>
7f00a108:	d706      	sw	a3,24(sp)
7f00a10a:	9305      	lw	v1,20(sp)
7f00a10c:	9706      	lw	a3,24(sp)
7f00a10e:	2a0b      	bnez	v0,7f00a126 <_findenv+0x4e>
7f00a110:	e021      	addu	s0,s1
7f00a112:	8040      	lb	v0,0(s0)
7f00a114:	723d      	cmpi	v0,61
7f00a116:	6107      	btnez	7f00a126 <_findenv+0x4e>
7f00a118:	9204      	lw	v0,16(sp)
7f00a11a:	e34f      	subu	v1,v0
7f00a11c:	920d      	lw	v0,52(sp)
7f00a11e:	336b      	sra	v1,2
7f00a120:	da60      	sw	v1,0(v0)
7f00a122:	4041      	addiu	v0,s0,1
7f00a124:	1004      	b	7f00a12e <_findenv+0x56>
7f00a126:	4b04      	addiu	v1,4
7f00a128:	9b00      	lw	s0,0(v1)
7f00a12a:	28e8      	bnez	s0,7f00a0fc <_findenv+0x24>
7f00a12c:	6a00      	li	v0,0
7f00a12e:	6476      	restore	48,ra,s0-s1
7f00a130:	e8a0      	jrc	ra
7f00a132:	6500      	nop

7f00a134 <getenv>:
7f00a134:	64c4      	save	32,ra
7f00a136:	181e 2836 	jal	7f00a0d8 <_findenv>
7f00a13a:	0504      	addiu	a1,sp,16
7f00a13c:	6444      	restore	32,ra
7f00a13e:	e8a0      	jrc	ra

7f00a140 <getlogin>:
7f00a140:	e820      	jr	ra
7f00a142:	6a00      	li	v0,0

7f00a144 <setlogin>:
7f00a144:	e820      	jr	ra
7f00a146:	6a00      	li	v0,0

7f00a148 <gettimeofday>:
7f00a148:	00001d0c 	syscall	0x74
7f00a14c:	3c097f01 	lui	t1,0x7f01
7f00a150:	ad28e8fc 	sw	t0,-5892(t1)
7f00a154:	03e00008 	jr	ra
7f00a158:	00000000 	nop

7f00a15c <ioctl>:
7f00a15c:	00000d8c 	syscall	0x36
7f00a160:	3c097f01 	lui	t1,0x7f01
7f00a164:	ad28e8fc 	sw	t0,-5892(t1)
7f00a168:	03e00008 	jr	ra
7f00a16c:	00000000 	nop

7f00a170 <isatty>:
7f00a170:	b505      	lw	a1,7f00a184 <isatty+0x14>
7f00a172:	64c4      	save	32,ra
7f00a174:	1c1e 2857 	jalx	7f00a15c <ioctl>
7f00a178:	0604      	addiu	a2,sp,16
7f00a17a:	ea4f      	not	v0
7f00a17c:	6444      	restore	32,ra
7f00a17e:	f7c0 3242 	srl	v0,31
7f00a182:	e8a0      	jrc	ra
7f00a184:	7408      	cmpi	a0,8
7f00a186:	4006      	addiu	s0,s0,6

7f00a188 <lseek>:
7f00a188:	000004cc 	syscall	0x13
7f00a18c:	3c097f01 	lui	t1,0x7f01
7f00a190:	ad28e8fc 	sw	t0,-5892(t1)
7f00a194:	03e00008 	jr	ra
7f00a198:	00000000 	nop

7f00a19c <malloc>:
7f00a19c:	64f5      	save	40,ra,s0-s1
7f00a19e:	6a00      	li	v0,0
7f00a1a0:	671c      	move	s0,gp
7f00a1a2:	f080 2409 	beqz	a0,7f00a2b8 <malloc+0x11c>
7f00a1a6:	f050 985c 	lw	v0,-32676(s0)
7f00a1aa:	2a11      	bnez	v0,7f00a1ce <malloc+0x32>
7f00a1ac:	6d01      	li	a1,1
7f00a1ae:	6770      	move	v1,s0
7f00a1b0:	f070 4b00 	addiu	v1,-32672
7f00a1b4:	6745      	move	v0,a1
7f00a1b6:	ea6d      	or	v0,v1
7f00a1b8:	f050 d85c 	sw	v0,-32676(s0)
7f00a1bc:	6750      	move	v0,s0
7f00a1be:	f050 4a1c 	addiu	v0,-32676
7f00a1c2:	ed4d      	or	a1,v0
7f00a1c4:	daa1      	sw	a1,4(v0)
7f00a1c6:	f070 d864 	sw	v1,-32668(s0)
7f00a1ca:	f050 d858 	sw	v0,-32680(s0)
7f00a1ce:	4467      	addiu	v1,a0,7
7f00a1d0:	336a      	srl	v1,2
7f00a1d2:	3368      	sll	v1,2
7f00a1d4:	f050 9838 	lw	s1,-32680(s0)
7f00a1d8:	f3f0 434f 	addiu	v0,v1,1023
7f00a1dc:	d204      	sw	v0,16(sp)
7f00a1de:	f070 9884 	lw	a0,-32668(s0)
7f00a1e2:	6a00      	li	v0,0
7f00a1e4:	f070 d848 	sw	v0,-32664(s0)
7f00a1e8:	650c      	move	t0,a0
7f00a1ea:	9980      	lw	a0,0(s1)
7f00a1ec:	6d01      	li	a1,1
7f00a1ee:	67d1      	move	a2,s1
7f00a1f0:	ecac      	and	a0,a1
7f00a1f2:	2402      	beqz	a0,7f00a1f8 <malloc+0x5c>
7f00a1f4:	100c      	b	7f00a20e <malloc+0x72>
7f00a1f6:	d980      	sw	a0,0(s1)
7f00a1f8:	99a0      	lw	a1,0(s1)
7f00a1fa:	6f01      	li	a3,1
7f00a1fc:	9d80      	lw	a0,0(a1)
7f00a1fe:	ef8c      	and	a3,a0
7f00a200:	651f      	move	t8,a3
7f00a202:	60f9      	bteqz	7f00a1f6 <malloc+0x5a>
7f00a204:	e171      	addu	a0,s1,v1
7f00a206:	ed83      	sltu	a1,a0
7f00a208:	6102      	btnez	7f00a20e <malloc+0x72>
7f00a20a:	5300      	slti	v1,0
7f00a20c:	6045      	bteqz	7f00a298 <malloc+0xfc>
7f00a20e:	9920      	lw	s1,0(s1)
7f00a210:	6c02      	li	a0,2
7f00a212:	ec8b      	neg	a0
7f00a214:	e98c      	and	s1,a0
7f00a216:	ee23      	sltu	a2,s1
7f00a218:	61e8      	btnez	7f00a1ea <malloc+0x4e>
7f00a21a:	6788      	move	a0,t0
7f00a21c:	ee8e      	xor	a2,a0
7f00a21e:	2e05      	bnez	a2,7f00a22a <malloc+0x8e>
7f00a220:	6790      	move	a0,s0
7f00a222:	f050 4c1c 	addiu	a0,-32676
7f00a226:	e193      	subu	a0,s1,a0
7f00a228:	2403      	beqz	a0,7f00a230 <malloc+0x94>
7f00a22a:	f070 d848 	sw	v0,-32664(s0)
7f00a22e:	1043      	b	7f00a2b6 <malloc+0x11a>
7f00a230:	4a01      	addiu	v0,1
7f00a232:	5202      	slti	v0,2
7f00a234:	61da      	btnez	7f00a1ea <malloc+0x4e>
7f00a236:	6c00      	li	a0,0
7f00a238:	f070 d848 	sw	v0,-32664(s0)
7f00a23c:	181e 29d6 	jal	7f00a758 <sbrk>
7f00a240:	d305      	sw	v1,20(sp)
7f00a242:	9504      	lw	a1,16(sp)
7f00a244:	e2b1      	addu	a0,v0,a1
7f00a246:	3482      	srl	a0,8
7f00a248:	348a      	srl	a0,2
7f00a24a:	3480      	sll	a0,8
7f00a24c:	3488      	sll	a0,2
7f00a24e:	e453      	subu	a0,v0
7f00a250:	348a      	srl	a0,2
7f00a252:	f070 d888 	sw	a0,-32664(s0)
7f00a256:	3488      	sll	a0,2
7f00a258:	5400      	slti	a0,0
7f00a25a:	612d      	btnez	7f00a2b6 <malloc+0x11a>
7f00a25c:	181e 29d6 	jal	7f00a758 <sbrk>
7f00a260:	6500      	nop
7f00a262:	4281      	addiu	a0,v0,1
7f00a264:	9305      	lw	v1,20(sp)
7f00a266:	2427      	beqz	a0,7f00a2b6 <malloc+0x11a>
7f00a268:	f070 9884 	lw	a0,-32668(s0)
7f00a26c:	44a4      	addiu	a1,a0,4
7f00a26e:	eaaa      	cmp	v0,a1
7f00a270:	dc40      	sw	v0,0(a0)
7f00a272:	6003      	bteqz	7f00a27a <malloc+0xde>
7f00a274:	6d01      	li	a1,1
7f00a276:	ed4d      	or	a1,v0
7f00a278:	dca0      	sw	a1,0(a0)
7f00a27a:	f070 9888 	lw	a0,-32664(s0)
7f00a27e:	67b0      	move	a1,s0
7f00a280:	f050 4d1c 	addiu	a1,-32676
7f00a284:	4cff      	addiu	a0,-1
7f00a286:	3488      	sll	a0,2
7f00a288:	e291      	addu	a0,v0,a0
7f00a28a:	da80      	sw	a0,0(v0)
7f00a28c:	6a01      	li	v0,1
7f00a28e:	eaad      	or	v0,a1
7f00a290:	f070 d884 	sw	a0,-32668(s0)
7f00a294:	dc40      	sw	v0,0(a0)
7f00a296:	17a3      	b	7f00a1de <malloc+0x42>
7f00a298:	eca3      	sltu	a0,a1
7f00a29a:	f070 d848 	sw	v0,-32664(s0)
7f00a29e:	f050 d898 	sw	a0,-32680(s0)
7f00a2a2:	6004      	bteqz	7f00a2ac <malloc+0x110>
7f00a2a4:	9c40      	lw	v0,0(a0)
7f00a2a6:	dca0      	sw	a1,0(a0)
7f00a2a8:	f050 d854 	sw	v0,-32684(s0)
7f00a2ac:	6a01      	li	v0,1
7f00a2ae:	ea8d      	or	v0,a0
7f00a2b0:	d940      	sw	v0,0(s1)
7f00a2b2:	4144      	addiu	v0,s1,4
7f00a2b4:	1001      	b	7f00a2b8 <malloc+0x11c>
7f00a2b6:	6a00      	li	v0,0
7f00a2b8:	6475      	restore	40,ra,s0-s1
7f00a2ba:	e8a0      	jrc	ra

7f00a2bc <free>:
7f00a2bc:	2409      	beqz	a0,7f00a2d0 <free+0x14>
7f00a2be:	4cfc      	addiu	a0,-4
7f00a2c0:	675c      	move	v0,gp
7f00a2c2:	f050 da98 	sw	a0,-32680(v0)
7f00a2c6:	9c40      	lw	v0,0(a0)
7f00a2c8:	6b02      	li	v1,2
7f00a2ca:	eb6b      	neg	v1
7f00a2cc:	ea6c      	and	v0,v1
7f00a2ce:	dc40      	sw	v0,0(a0)
7f00a2d0:	e8a0      	jrc	ra
7f00a2d2:	6500      	nop

7f00a2d4 <realloc>:
7f00a2d4:	64f5      	save	40,ra,s0-s1
7f00a2d6:	6704      	move	s0,a0
7f00a2d8:	6725      	move	s1,a1
7f00a2da:	2c04      	bnez	a0,7f00a2e4 <realloc+0x10>
7f00a2dc:	181e 2867 	jal	7f00a19c <malloc>
7f00a2e0:	6785      	move	a0,a1
7f00a2e2:	1035      	b	7f00a34e <realloc+0x7a>
7f00a2e4:	444c      	addiu	v0,a0,-4
7f00a2e6:	9a60      	lw	v1,0(v0)
7f00a2e8:	6c01      	li	a0,1
7f00a2ea:	eb8c      	and	v1,a0
7f00a2ec:	2305      	beqz	v1,7f00a2f8 <realloc+0x24>
7f00a2ee:	6790      	move	a0,s0
7f00a2f0:	181e 28af 	jal	7f00a2bc <free>
7f00a2f4:	d204      	sw	v0,16(sp)
7f00a2f6:	9204      	lw	v0,16(sp)
7f00a2f8:	9a60      	lw	v1,0(v0)
7f00a2fa:	6791      	move	a0,s1
7f00a2fc:	181e 2867 	jal	7f00a19c <malloc>
7f00a300:	d304      	sw	v1,16(sp)
7f00a302:	6782      	move	a0,v0
7f00a304:	9304      	lw	v1,16(sp)
7f00a306:	6a00      	li	v0,0
7f00a308:	2422      	beqz	a0,7f00a34e <realloc+0x7a>
7f00a30a:	ec0a      	cmp	a0,s0
7f00a30c:	6744      	move	v0,a0
7f00a30e:	601f      	bteqz	7f00a34e <realloc+0x7a>
7f00a310:	4903      	addiu	s1,3
7f00a312:	e30f      	subu	v1,s0
7f00a314:	312a      	srl	s1,2
7f00a316:	336b      	sra	v1,2
7f00a318:	e963      	sltu	s1,v1
7f00a31a:	6001      	bteqz	7f00a31e <realloc+0x4a>
7f00a31c:	6771      	move	v1,s1
7f00a31e:	67a4      	move	a1,a0
7f00a320:	6750      	move	v0,s0
7f00a322:	1005      	b	7f00a32e <realloc+0x5a>
7f00a324:	9ac0      	lw	a2,0(v0)
7f00a326:	4bff      	addiu	v1,-1
7f00a328:	4a04      	addiu	v0,4
7f00a32a:	ddc0      	sw	a2,0(a1)
7f00a32c:	4d04      	addiu	a1,4
7f00a32e:	2bfa      	bnez	v1,7f00a324 <realloc+0x50>
7f00a330:	ec03      	sltu	a0,s0
7f00a332:	6744      	move	v0,a0
7f00a334:	600c      	bteqz	7f00a34e <realloc+0x7a>
7f00a336:	3128      	sll	s1,2
7f00a338:	e425      	addu	s1,a0,s1
7f00a33a:	e903      	sltu	s1,s0
7f00a33c:	6108      	btnez	7f00a34e <realloc+0x7a>
7f00a33e:	e103      	subu	s0,s1,s0
7f00a340:	677c      	move	v1,gp
7f00a342:	300b      	sra	s0,2
7f00a344:	f050 9b74 	lw	v1,-32684(v1)
7f00a348:	3008      	sll	s0,2
7f00a34a:	e401      	addu	s0,a0,s0
7f00a34c:	d860      	sw	v1,0(s0)
7f00a34e:	6475      	restore	40,ra,s0-s1
7f00a350:	e8a0      	jrc	ra
7f00a352:	6500      	nop

7f00a354 <open>:
7f00a354:	0000014c 	syscall	0x5
7f00a358:	3c097f01 	lui	t1,0x7f01
7f00a35c:	ad28e8fc 	sw	t0,-5892(t1)
7f00a360:	03e00008 	jr	ra
7f00a364:	00000000 	nop

7f00a368 <pipe>:
7f00a368:	00000a8c 	syscall	0x2a
7f00a36c:	0bc028e1 	j	7f00a384 <pipe+0x1c>
7f00a370:	00000000 	nop
7f00a374:	ac820000 	sw	v0,0(a0)
7f00a378:	ac830004 	sw	v1,4(a0)
7f00a37c:	03e00008 	jr	ra
7f00a380:	00001021 	move	v0,zero
7f00a384:	3c097f01 	lui	t1,0x7f01
7f00a388:	03e00008 	jr	ra
7f00a38c:	ad28e8fc 	sw	t0,-5892(t1)

7f00a390 <printf>:
7f00a390:	f00e 64c4 	save	a0-a3,32,ra
7f00a394:	0509      	addiu	a1,sp,36
7f00a396:	b607      	lw	a2,7f00a3b0 <printf+0x20>
7f00a398:	181e 2b27 	jal	7f00ac9c <_doprnt>
7f00a39c:	d504      	sw	a1,16(sp)
7f00a39e:	b206      	lw	v0,7f00a3b4 <printf+0x24>
7f00a3a0:	aa52      	lhu	v0,36(v0)
7f00a3a2:	6b20      	li	v1,32
7f00a3a4:	6444      	restore	32,ra
7f00a3a6:	ea6c      	and	v0,v1
7f00a3a8:	5a01      	sltiu	v0,1
7f00a3aa:	6758      	move	v0,t8
7f00a3ac:	e820      	jr	ra
7f00a3ae:	4aff      	addiu	v0,-1
7f00a3b0:	e62c      	daddu	v1,a2,s1
7f00a3b2:	7f00      	sd	s0,0(a3)
7f00a3b4:	e618      	daddu	a2,s0
7f00a3b6:	7f00      	sd	s0,0(a3)

7f00a3b8 <puts>:
7f00a3b8:	64e3      	save	24,ra,s0
7f00a3ba:	6704      	move	s0,a0
7f00a3bc:	1020      	b	7f00a3fe <puts+0x46>
7f00a3be:	9a65      	lw	v1,20(v0)
7f00a3c0:	4bff      	addiu	v1,-1
7f00a3c2:	5300      	slti	v1,0
7f00a3c4:	da65      	sw	v1,20(v0)
7f00a3c6:	6103      	btnez	7f00a3ce <puts+0x16>
7f00a3c8:	9a66      	lw	v1,24(v0)
7f00a3ca:	c380      	sb	a0,0(v1)
7f00a3cc:	100d      	b	7f00a3e8 <puts+0x30>
7f00a3ce:	aab2      	lhu	a1,36(v0)
7f00a3d0:	6e80      	li	a2,128
7f00a3d2:	edcc      	and	a1,a2
7f00a3d4:	250f      	beqz	a1,7f00a3f4 <puts+0x3c>
7f00a3d6:	9aa8      	lw	a1,32(v0)
7f00a3d8:	eb6b      	neg	v1
7f00a3da:	eba2      	slt	v1,a1
7f00a3dc:	600b      	bteqz	7f00a3f4 <puts+0x3c>
7f00a3de:	9a66      	lw	v1,24(v0)
7f00a3e0:	740a      	cmpi	a0,10
7f00a3e2:	c380      	sb	a0,0(v1)
7f00a3e4:	6004      	bteqz	7f00a3ee <puts+0x36>
7f00a3e6:	9a66      	lw	v1,24(v0)
7f00a3e8:	4b01      	addiu	v1,1
7f00a3ea:	da66      	sw	v1,24(v0)
7f00a3ec:	1008      	b	7f00a3fe <puts+0x46>
7f00a3ee:	9a46      	lw	v0,24(v0)
7f00a3f0:	a280      	lbu	a0,0(v0)
7f00a3f2:	1001      	b	7f00a3f6 <puts+0x3e>
7f00a3f4:	ec11      	zeb	a0
7f00a3f6:	b515      	lw	a1,7f00a448 <puts+0x90>
7f00a3f8:	181e 2788 	jal	7f009e20 <_flsbuf>
7f00a3fc:	6500      	nop
7f00a3fe:	8080      	lb	a0,0(s0)
7f00a400:	b213      	lw	v0,7f00a44c <puts+0x94>
7f00a402:	4801      	addiu	s0,1
7f00a404:	2cdc      	bnez	a0,7f00a3be <puts+0x6>
7f00a406:	9a65      	lw	v1,20(v0)
7f00a408:	4bff      	addiu	v1,-1
7f00a40a:	5300      	slti	v1,0
7f00a40c:	da65      	sw	v1,20(v0)
7f00a40e:	6107      	btnez	7f00a41e <puts+0x66>
7f00a410:	9a66      	lw	v1,24(v0)
7f00a412:	6c0a      	li	a0,10
7f00a414:	c380      	sb	a0,0(v1)
7f00a416:	4b01      	addiu	v1,1
7f00a418:	da66      	sw	v1,24(v0)
7f00a41a:	6a0a      	li	v0,10
7f00a41c:	1013      	b	7f00a444 <puts+0x8c>
7f00a41e:	aa92      	lhu	a0,36(v0)
7f00a420:	6d80      	li	a1,128
7f00a422:	ecac      	and	a0,a1
7f00a424:	240a      	beqz	a0,7f00a43a <puts+0x82>
7f00a426:	9a88      	lw	a0,32(v0)
7f00a428:	eb6b      	neg	v1
7f00a42a:	eb82      	slt	v1,a0
7f00a42c:	6006      	bteqz	7f00a43a <puts+0x82>
7f00a42e:	9a66      	lw	v1,24(v0)
7f00a430:	6c0a      	li	a0,10
7f00a432:	c380      	sb	a0,0(v1)
7f00a434:	9a46      	lw	v0,24(v0)
7f00a436:	a280      	lbu	a0,0(v0)
7f00a438:	1001      	b	7f00a43c <puts+0x84>
7f00a43a:	6c0a      	li	a0,10
7f00a43c:	b503      	lw	a1,7f00a448 <puts+0x90>
7f00a43e:	181e 2788 	jal	7f009e20 <_flsbuf>
7f00a442:	6500      	nop
7f00a444:	6463      	restore	24,ra,s0
7f00a446:	e8a0      	jrc	ra
7f00a448:	e62c      	daddu	v1,a2,s1
7f00a44a:	7f00      	sd	s0,0(a3)
7f00a44c:	e618      	daddu	a2,s0
7f00a44e:	7f00      	sd	s0,0(a3)

7f00a450 <qst>:
7f00a450:	f008 64f6 	save	a0-a1,48,ra,s0-s1
7f00a454:	67e4      	move	a3,a0
7f00a456:	671c      	move	s0,gp
7f00a458:	e587      	subu	s1,a1,a0
7f00a45a:	f070 984c 	lw	v0,-32660(s0)
7f00a45e:	e95b      	divu	zero,s1,v0
7f00a460:	2a01      	bnez	v0,7f00a464 <qst+0x14>
7f00a462:	e8e5      	break	7
7f00a464:	eb12      	mflo	v1
7f00a466:	3366      	srl	v1,1
7f00a468:	eb58      	mult	v1,v0
7f00a46a:	f070 9858 	lw	v0,-32648(s0)
7f00a46e:	e943      	sltu	s1,v0
7f00a470:	eb12      	mflo	v1
7f00a472:	e76d      	addu	v1,a3,v1
7f00a474:	613d      	btnez	7f00a4f0 <qst+0xa0>
7f00a476:	f070 9850 	lw	v0,-32656(s0)
7f00a47a:	6787      	move	a0,a3
7f00a47c:	67a3      	move	a1,v1
7f00a47e:	d304      	sw	v1,16(sp)
7f00a480:	ea40      	jalr	v0
7f00a482:	d706      	sw	a3,24(sp)
7f00a484:	9304      	lw	v1,16(sp)
7f00a486:	5201      	slti	v0,1
7f00a488:	9706      	lw	a3,24(sp)
7f00a48a:	6723      	move	s1,v1
7f00a48c:	6101      	btnez	7f00a490 <qst+0x40>
7f00a48e:	6727      	move	s1,a3
7f00a490:	920d      	lw	v0,52(sp)
7f00a492:	f070 98cc 	lw	a2,-32660(s0)
7f00a496:	d304      	sw	v1,16(sp)
7f00a498:	d706      	sw	a3,24(sp)
7f00a49a:	e2db      	subu	a2,v0,a2
7f00a49c:	f070 9850 	lw	v0,-32656(s0)
7f00a4a0:	67a6      	move	a1,a2
7f00a4a2:	d605      	sw	a2,20(sp)
7f00a4a4:	ea40      	jalr	v0
7f00a4a6:	6791      	move	a0,s1
7f00a4a8:	5201      	slti	v0,1
7f00a4aa:	9304      	lw	v1,16(sp)
7f00a4ac:	9605      	lw	a2,20(sp)
7f00a4ae:	9706      	lw	a3,24(sp)
7f00a4b0:	6112      	btnez	7f00a4d6 <qst+0x86>
7f00a4b2:	e9ea      	cmp	s1,a3
7f00a4b4:	6727      	move	s1,a3
7f00a4b6:	6101      	btnez	7f00a4ba <qst+0x6a>
7f00a4b8:	6723      	move	s1,v1
7f00a4ba:	f070 9850 	lw	v0,-32656(s0)
7f00a4be:	67a6      	move	a1,a2
7f00a4c0:	d304      	sw	v1,16(sp)
7f00a4c2:	d605      	sw	a2,20(sp)
7f00a4c4:	d706      	sw	a3,24(sp)
7f00a4c6:	ea40      	jalr	v0
7f00a4c8:	6791      	move	a0,s1
7f00a4ca:	5200      	slti	v0,0
7f00a4cc:	9304      	lw	v1,16(sp)
7f00a4ce:	9605      	lw	a2,20(sp)
7f00a4d0:	9706      	lw	a3,24(sp)
7f00a4d2:	6001      	bteqz	7f00a4d6 <qst+0x86>
7f00a4d4:	6726      	move	s1,a2
7f00a4d6:	e96a      	cmp	s1,v1
7f00a4d8:	600b      	bteqz	7f00a4f0 <qst+0xa0>
7f00a4da:	f070 988c 	lw	a0,-32660(s0)
7f00a4de:	6743      	move	v0,v1
7f00a4e0:	82a0      	lb	a1,0(v0)
7f00a4e2:	a1c0      	lbu	a2,0(s1)
7f00a4e4:	4cff      	addiu	a0,-1
7f00a4e6:	c2c0      	sb	a2,0(v0)
7f00a4e8:	c1a0      	sb	a1,0(s1)
7f00a4ea:	4a01      	addiu	v0,1
7f00a4ec:	4901      	addiu	s1,1
7f00a4ee:	2cf8      	bnez	a0,7f00a4e0 <qst+0x90>
7f00a4f0:	f070 98cc 	lw	a2,-32660(s0)
7f00a4f4:	940d      	lw	a0,52(sp)
7f00a4f6:	6727      	move	s1,a3
7f00a4f8:	e4db      	subu	a2,a0,a2
7f00a4fa:	1003      	b	7f00a502 <qst+0xb2>
7f00a4fc:	f070 984c 	lw	v0,-32660(s0)
7f00a500:	e145      	addu	s1,v0
7f00a502:	e963      	sltu	s1,v1
7f00a504:	6026      	bteqz	7f00a552 <qst+0x102>
7f00a506:	f070 9850 	lw	v0,-32656(s0)
7f00a50a:	67a3      	move	a1,v1
7f00a50c:	d304      	sw	v1,16(sp)
7f00a50e:	d605      	sw	a2,20(sp)
7f00a510:	d706      	sw	a3,24(sp)
7f00a512:	ea40      	jalr	v0
7f00a514:	6791      	move	a0,s1
7f00a516:	5201      	slti	v0,1
7f00a518:	9304      	lw	v1,16(sp)
7f00a51a:	9605      	lw	a2,20(sp)
7f00a51c:	9706      	lw	a3,24(sp)
7f00a51e:	6019      	bteqz	7f00a552 <qst+0x102>
7f00a520:	17ed      	b	7f00a4fc <qst+0xac>
7f00a522:	f070 9850 	lw	v0,-32656(s0)
7f00a526:	6783      	move	a0,v1
7f00a528:	67a6      	move	a1,a2
7f00a52a:	d304      	sw	v1,16(sp)
7f00a52c:	d605      	sw	a2,20(sp)
7f00a52e:	ea40      	jalr	v0
7f00a530:	d706      	sw	a3,24(sp)
7f00a532:	5201      	slti	v0,1
7f00a534:	f070 988c 	lw	a0,-32660(s0)
7f00a538:	9304      	lw	v1,16(sp)
7f00a53a:	9605      	lw	a2,20(sp)
7f00a53c:	9706      	lw	a3,24(sp)
7f00a53e:	6002      	bteqz	7f00a544 <qst+0xf4>
7f00a540:	e69b      	subu	a2,a0
7f00a542:	1007      	b	7f00a552 <qst+0x102>
7f00a544:	e195      	addu	a1,s1,a0
7f00a546:	e96a      	cmp	s1,v1
7f00a548:	652d      	move	t1,a1
7f00a54a:	600e      	bteqz	7f00a568 <qst+0x118>
7f00a54c:	6746      	move	v0,a2
7f00a54e:	e69b      	subu	a2,a0
7f00a550:	100d      	b	7f00a56c <qst+0x11c>
7f00a552:	ebc3      	sltu	v1,a2
7f00a554:	61e6      	btnez	7f00a522 <qst+0xd2>
7f00a556:	e96a      	cmp	s1,v1
7f00a558:	f070 984c 	lw	v0,-32660(s0)
7f00a55c:	6015      	bteqz	7f00a588 <qst+0x138>
7f00a55e:	e65b      	subu	a2,v0
7f00a560:	6529      	move	t1,s1
7f00a562:	6743      	move	v0,v1
7f00a564:	6771      	move	v1,s1
7f00a566:	1002      	b	7f00a56c <qst+0x11c>
7f00a568:	6766      	move	v1,a2
7f00a56a:	6746      	move	v0,a2
7f00a56c:	f070 988c 	lw	a0,-32660(s0)
7f00a570:	81a0      	lb	a1,0(s1)
7f00a572:	4cff      	addiu	a0,-1
7f00a574:	651d      	move	t8,a1
7f00a576:	a2a0      	lbu	a1,0(v0)
7f00a578:	c1a0      	sb	a1,0(s1)
7f00a57a:	67b8      	move	a1,t8
7f00a57c:	c2a0      	sb	a1,0(v0)
7f00a57e:	4901      	addiu	s1,1
7f00a580:	4a01      	addiu	v0,1
7f00a582:	2cf6      	bnez	a0,7f00a570 <qst+0x120>
7f00a584:	6729      	move	s1,t1
7f00a586:	17bd      	b	7f00a502 <qst+0xb2>
7f00a588:	940d      	lw	a0,52(sp)
7f00a58a:	e359      	addu	a2,v1,v0
7f00a58c:	e3e7      	subu	s1,v1,a3
7f00a58e:	e4cb      	subu	v0,a0,a2
7f00a590:	ea23      	sltu	v0,s1
7f00a592:	f070 9894 	lw	a0,-32652(s0)
7f00a596:	610d      	btnez	7f00a5b2 <qst+0x162>
7f00a598:	e983      	sltu	s1,a0
7f00a59a:	6722      	move	s1,v0
7f00a59c:	6116      	btnez	7f00a5ca <qst+0x17a>
7f00a59e:	6787      	move	a0,a3
7f00a5a0:	67a3      	move	a1,v1
7f00a5a2:	d204      	sw	v0,16(sp)
7f00a5a4:	181e 2914 	jal	7f00a450 <qst>
7f00a5a8:	d605      	sw	a2,20(sp)
7f00a5aa:	9204      	lw	v0,16(sp)
7f00a5ac:	9605      	lw	a2,20(sp)
7f00a5ae:	6722      	move	s1,v0
7f00a5b0:	100c      	b	7f00a5ca <qst+0x17a>
7f00a5b2:	ea83      	sltu	v0,a0
7f00a5b4:	610c      	btnez	7f00a5ce <qst+0x17e>
7f00a5b6:	950d      	lw	a1,52(sp)
7f00a5b8:	6786      	move	a0,a2
7f00a5ba:	d304      	sw	v1,16(sp)
7f00a5bc:	181e 2914 	jal	7f00a450 <qst>
7f00a5c0:	d706      	sw	a3,24(sp)
7f00a5c2:	9304      	lw	v1,16(sp)
7f00a5c4:	9706      	lw	a3,24(sp)
7f00a5c6:	d30d      	sw	v1,52(sp)
7f00a5c8:	1003      	b	7f00a5d0 <qst+0x180>
7f00a5ca:	67e6      	move	a3,a2
7f00a5cc:	1001      	b	7f00a5d0 <qst+0x180>
7f00a5ce:	d30d      	sw	v1,52(sp)
7f00a5d0:	f070 9854 	lw	v0,-32652(s0)
7f00a5d4:	e943      	sltu	s1,v0
7f00a5d6:	f75f 6000 	bteqz	7f00a45a <qst+0xa>
7f00a5da:	6476      	restore	48,ra,s0-s1
7f00a5dc:	e8a0      	jrc	ra
7f00a5de:	6500      	nop

7f00a5e0 <qsort>:
7f00a5e0:	5502      	slti	a1,2
7f00a5e2:	64f6      	save	48,ra,s0-s1
7f00a5e4:	671c      	move	s0,gp
7f00a5e6:	6724      	move	s1,a0
7f00a5e8:	6178      	btnez	7f00a6da <qsort+0xfa>
7f00a5ea:	32c8      	sll	v0,a2,2
7f00a5ec:	f070 d854 	sw	v0,-32652(s0)
7f00a5f0:	6a06      	li	v0,6
7f00a5f2:	ee58      	mult	a2,v0
7f00a5f4:	f070 d8cc 	sw	a2,-32660(s0)
7f00a5f8:	5504      	slti	a1,4
7f00a5fa:	f070 d8f0 	sw	a3,-32656(s0)
7f00a5fe:	ea12      	mflo	v0
7f00a600:	f070 d858 	sw	v0,-32648(s0)
7f00a604:	eeb8      	mult	a2,a1
7f00a606:	ee12      	mflo	a2
7f00a608:	e4d9      	addu	a2,a0,a2
7f00a60a:	d604      	sw	a2,16(sp)
7f00a60c:	67e6      	move	a3,a2
7f00a60e:	6106      	btnez	7f00a61c <qsort+0x3c>
7f00a610:	181e 2914 	jal	7f00a450 <qst>
7f00a614:	67a6      	move	a1,a2
7f00a616:	f070 98f4 	lw	a3,-32652(s0)
7f00a61a:	e1fd      	addu	a3,s1,a3
7f00a61c:	67d1      	move	a2,s1
7f00a61e:	6771      	move	v1,s1
7f00a620:	100e      	b	7f00a63e <qsort+0x5e>
7f00a622:	f070 9850 	lw	v0,-32656(s0)
7f00a626:	6783      	move	a0,v1
7f00a628:	67a6      	move	a1,a2
7f00a62a:	d307      	sw	v1,28(sp)
7f00a62c:	d605      	sw	a2,20(sp)
7f00a62e:	ea40      	jalr	v0
7f00a630:	d706      	sw	a3,24(sp)
7f00a632:	5201      	slti	v0,1
7f00a634:	9307      	lw	v1,28(sp)
7f00a636:	9605      	lw	a2,20(sp)
7f00a638:	9706      	lw	a3,24(sp)
7f00a63a:	6101      	btnez	7f00a63e <qsort+0x5e>
7f00a63c:	6766      	move	v1,a2
7f00a63e:	f070 984c 	lw	v0,-32660(s0)
7f00a642:	e659      	addu	a2,v0
7f00a644:	eee3      	sltu	a2,a3
7f00a646:	61ed      	btnez	7f00a622 <qsort+0x42>
7f00a648:	eb2a      	cmp	v1,s1
7f00a64a:	6041      	bteqz	7f00a6ce <qsort+0xee>
7f00a64c:	e151      	addu	a0,s1,v0
7f00a64e:	6751      	move	v0,s1
7f00a650:	1006      	b	7f00a65e <qsort+0x7e>
7f00a652:	83a0      	lb	a1,0(v1)
7f00a654:	a2c0      	lbu	a2,0(v0)
7f00a656:	c3c0      	sb	a2,0(v1)
7f00a658:	c2a0      	sb	a1,0(v0)
7f00a65a:	4b01      	addiu	v1,1
7f00a65c:	4a01      	addiu	v0,1
7f00a65e:	ea83      	sltu	v0,a0
7f00a660:	61f8      	btnez	7f00a652 <qsort+0x72>
7f00a662:	1035      	b	7f00a6ce <qsort+0xee>
7f00a664:	6771      	move	v1,s1
7f00a666:	f070 984c 	lw	v0,-32660(s0)
7f00a66a:	67b1      	move	a1,s1
7f00a66c:	e34f      	subu	v1,v0
7f00a66e:	f070 9850 	lw	v0,-32656(s0)
7f00a672:	6783      	move	a0,v1
7f00a674:	ea40      	jalr	v0
7f00a676:	d307      	sw	v1,28(sp)
7f00a678:	5201      	slti	v0,1
7f00a67a:	9307      	lw	v1,28(sp)
7f00a67c:	60f4      	bteqz	7f00a666 <qsort+0x86>
7f00a67e:	f070 988c 	lw	a0,-32660(s0)
7f00a682:	e38d      	addu	v1,a0
7f00a684:	eb2a      	cmp	v1,s1
7f00a686:	658b      	move	t4,v1
7f00a688:	6022      	bteqz	7f00a6ce <qsort+0xee>
7f00a68a:	e189      	addu	v0,s1,a0
7f00a68c:	ed8f      	not	a1,a0
7f00a68e:	e2b5      	addu	a1,v0,a1
7f00a690:	101a      	b	7f00a6c6 <qsort+0xe6>
7f00a692:	8260      	lb	v1,0(v0)
7f00a694:	ed8b      	neg	a1,a0
7f00a696:	650d      	move	t0,a1
7f00a698:	656b      	move	t3,v1
7f00a69a:	67ed      	move	a3,t5
7f00a69c:	67c2      	move	a2,v0
7f00a69e:	1005      	b	7f00a6aa <qsort+0xca>
7f00a6a0:	67a9      	move	a1,t1
7f00a6a2:	a5a0      	lbu	a1,0(a1)
7f00a6a4:	67ca      	move	a2,t2
7f00a6a6:	e68d      	addu	v1,a2,a0
7f00a6a8:	c3a0      	sb	a1,0(v1)
7f00a6aa:	67a8      	move	a1,t0
7f00a6ac:	6768      	move	v1,t0
7f00a6ae:	e66d      	addu	v1,a2,v1
7f00a6b0:	e7bd      	addu	a3,a1
7f00a6b2:	654b      	move	t2,v1
7f00a6b4:	67ac      	move	a1,t4
7f00a6b6:	e78d      	addu	v1,a3,a0
7f00a6b8:	eba3      	sltu	v1,a1
7f00a6ba:	652b      	move	t1,v1
7f00a6bc:	60f1      	bteqz	7f00a6a0 <qsort+0xc0>
7f00a6be:	676b      	move	v1,t3
7f00a6c0:	67ad      	move	a1,t5
7f00a6c2:	c660      	sb	v1,0(a2)
7f00a6c4:	4dff      	addiu	a1,-1
7f00a6c6:	4aff      	addiu	v0,-1
7f00a6c8:	ea23      	sltu	v0,s1
7f00a6ca:	65ad      	move	t5,a1
7f00a6cc:	60e2      	bteqz	7f00a692 <qsort+0xb2>
7f00a6ce:	f070 984c 	lw	v0,-32660(s0)
7f00a6d2:	9604      	lw	a2,16(sp)
7f00a6d4:	e145      	addu	s1,v0
7f00a6d6:	e9c3      	sltu	s1,a2
7f00a6d8:	61c5      	btnez	7f00a664 <qsort+0x84>
7f00a6da:	6476      	restore	48,ra,s0-s1
7f00a6dc:	e8a0      	jrc	ra
7f00a6de:	6500      	nop

7f00a6e0 <srand>:
7f00a6e0:	675c      	move	v0,gp
7f00a6e2:	f030 da8c 	sw	a0,-32724(v0)
7f00a6e6:	e8a0      	jrc	ra

7f00a6e8 <rand>:
7f00a6e8:	677c      	move	v1,gp
7f00a6ea:	f030 9b4c 	lw	v0,-32724(v1)
7f00a6ee:	b406      	lw	a0,7f00a704 <rand+0x1c>
7f00a6f0:	ea98      	mult	v0,a0
7f00a6f2:	ea12      	mflo	v0
7f00a6f4:	f026 4a19 	addiu	v0,12345
7f00a6f8:	f030 db4c 	sw	v0,-32724(v1)
7f00a6fc:	3244      	sll	v0,1
7f00a6fe:	f440 3242 	srl	v0,17
7f00a702:	e8a0      	jrc	ra
7f00a704:	4e6d      	addiu	a2,109
7f00a706:	41c6      	addiu	a2,s1,6

7f00a708 <read>:
7f00a708:	000000cc 	syscall	0x3
7f00a70c:	3c097f01 	lui	t1,0x7f01
7f00a710:	ad28e8fc 	sw	t0,-5892(t1)
7f00a714:	03e00008 	jr	ra
7f00a718:	00000000 	nop

7f00a71c <rewind>:
7f00a71c:	64e3      	save	24,ra,s0
7f00a71e:	181e 27d8 	jal	7f009f60 <fflush>
7f00a722:	6704      	move	s0,a0
7f00a724:	8889      	lh	a0,18(s0)
7f00a726:	6d00      	li	a1,0
7f00a728:	1c1e 2862 	jalx	7f00a188 <lseek>
7f00a72c:	67c5      	move	a2,a1
7f00a72e:	6a00      	li	v0,0
7f00a730:	d840      	sw	v0,0(s0)
7f00a732:	9842      	lw	v0,8(s0)
7f00a734:	a868      	lhu	v1,16(s0)
7f00a736:	d841      	sw	v0,4(s0)
7f00a738:	6a31      	li	v0,49
7f00a73a:	ea4b      	neg	v0
7f00a73c:	ea6c      	and	v0,v1
7f00a73e:	6bff      	li	v1,255
7f00a740:	eab1      	seh	v0
7f00a742:	4b01      	addiu	v1,1
7f00a744:	eb4c      	and	v1,v0
7f00a746:	c848      	sh	v0,16(s0)
7f00a748:	2304      	beqz	v1,7f00a752 <rewind+0x36>
7f00a74a:	6b04      	li	v1,4
7f00a74c:	eb6b      	neg	v1
7f00a74e:	ea6c      	and	v0,v1
7f00a750:	c848      	sh	v0,16(s0)
7f00a752:	6463      	restore	24,ra,s0
7f00a754:	e8a0      	jrc	ra
7f00a756:	6500      	nop

7f00a758 <sbrk>:
7f00a758:	64f5      	save	40,ra,s0-s1
7f00a75a:	673c      	move	s1,gp
7f00a75c:	f030 9970 	lw	v1,-32720(s1)
7f00a760:	240a      	beqz	a0,7f00a776 <sbrk+0x1e>
7f00a762:	e381      	addu	s0,v1,a0
7f00a764:	6790      	move	a0,s0
7f00a766:	1c1e 2acf 	jalx	7f00ab3c <_brk>
7f00a76a:	d304      	sw	v1,16(sp)
7f00a76c:	4a01      	addiu	v0,1
7f00a76e:	9304      	lw	v1,16(sp)
7f00a770:	2202      	beqz	v0,7f00a776 <sbrk+0x1e>
7f00a772:	f030 d910 	sw	s0,-32720(s1)
7f00a776:	6475      	restore	40,ra,s0-s1
7f00a778:	e820      	jr	ra
7f00a77a:	6743      	move	v0,v1

7f00a77c <brk>:
7f00a77c:	b208      	lw	v0,7f00a79c <brk+0x20>
7f00a77e:	ec43      	sltu	a0,v0
7f00a780:	64e3      	save	24,ra,s0
7f00a782:	6704      	move	s0,a0
7f00a784:	6001      	bteqz	7f00a788 <brk+0xc>
7f00a786:	6702      	move	s0,v0
7f00a788:	1c1e 2acf 	jalx	7f00ab3c <_brk>
7f00a78c:	6790      	move	a0,s0
7f00a78e:	4261      	addiu	v1,v0,1
7f00a790:	2303      	beqz	v1,7f00a798 <brk+0x1c>
7f00a792:	677c      	move	v1,gp
7f00a794:	f030 db10 	sw	s0,-32720(v1)
7f00a798:	6463      	restore	24,ra,s0
7f00a79a:	e8a0      	jrc	ra
7f00a79c:	306c      	sll	s0,v1,3
7f00a79e:	7f01      	sd	s0,8(a3)

7f00a7a0 <setbuf>:
7f00a7a0:	5d01      	sltiu	a1,1
7f00a7a2:	67d8      	move	a2,t8
7f00a7a4:	64c3      	save	24,ra
7f00a7a6:	f400 6f00 	li	a3,1024
7f00a7aa:	181e 2a26 	jal	7f00a898 <setvbuf>
7f00a7ae:	36c8      	sll	a2,2
7f00a7b0:	6443      	restore	24,ra
7f00a7b2:	e8a0      	jrc	ra

7f00a7b4 <setitimer>:
7f00a7b4:	000014cc 	syscall	0x53
7f00a7b8:	3c097f01 	lui	t1,0x7f01
7f00a7bc:	ad28e8fc 	sw	t0,-5892(t1)
7f00a7c0:	03e00008 	jr	ra
7f00a7c4:	00000000 	nop

7f00a7c8 <setjmp>:
7f00a7c8:	27bdffe8 	addiu	sp,sp,-24
7f00a7cc:	afbf0014 	sw	ra,20(sp)
7f00a7d0:	afa40018 	sw	a0,24(sp)
7f00a7d4:	24860034 	addiu	a2,a0,52
7f00a7d8:	24040001 	li	a0,1
7f00a7dc:	0fc02a65 	jal	7f00a994 <sigprocmask>
7f00a7e0:	00002821 	move	a1,zero
7f00a7e4:	8fa40018 	lw	a0,24(sp)
7f00a7e8:	8fbf0014 	lw	ra,20(sp)
7f00a7ec:	27bd0018 	addiu	sp,sp,24
7f00a7f0:	24080001 	li	t0,1
7f00a7f4:	ac880030 	sw	t0,48(a0)
7f00a7f8:	ac900000 	sw	s0,0(a0)
7f00a7fc:	ac910004 	sw	s1,4(a0)
7f00a800:	ac920008 	sw	s2,8(a0)
7f00a804:	ac93000c 	sw	s3,12(a0)
7f00a808:	ac940010 	sw	s4,16(a0)
7f00a80c:	ac950014 	sw	s5,20(a0)
7f00a810:	ac960018 	sw	s6,24(a0)
7f00a814:	ac97001c 	sw	s7,28(a0)
7f00a818:	ac9e0020 	sw	s8,32(a0)
7f00a81c:	ac9f0024 	sw	ra,36(a0)
7f00a820:	ac9c0028 	sw	gp,40(a0)
7f00a824:	ac9d002c 	sw	sp,44(a0)
7f00a828:	03e00008 	jr	ra
7f00a82c:	00001021 	move	v0,zero

7f00a830 <longjmp>:
7f00a830:	27bdffe8 	addiu	sp,sp,-24
7f00a834:	afbf0014 	sw	ra,20(sp)
7f00a838:	afa40018 	sw	a0,24(sp)
7f00a83c:	afa5001c 	sw	a1,28(sp)
7f00a840:	24850034 	addiu	a1,a0,52
7f00a844:	00003021 	move	a2,zero
7f00a848:	0fc02a65 	jal	7f00a994 <sigprocmask>
7f00a84c:	24040003 	li	a0,3
7f00a850:	8fa5001c 	lw	a1,28(sp)
7f00a854:	8fa40018 	lw	a0,24(sp)
7f00a858:	8fbf0014 	lw	ra,20(sp)
7f00a85c:	27bd0018 	addiu	sp,sp,24
7f00a860:	8c900000 	lw	s0,0(a0)
7f00a864:	8c910004 	lw	s1,4(a0)
7f00a868:	8c920008 	lw	s2,8(a0)
7f00a86c:	8c93000c 	lw	s3,12(a0)
7f00a870:	8c940010 	lw	s4,16(a0)
7f00a874:	8c950014 	lw	s5,20(a0)
7f00a878:	8c960018 	lw	s6,24(a0)
7f00a87c:	8c97001c 	lw	s7,28(a0)
7f00a880:	8c9e0020 	lw	s8,32(a0)
7f00a884:	8c9f0024 	lw	ra,36(a0)
7f00a888:	8c9c0028 	lw	gp,40(a0)
7f00a88c:	8c9d002c 	lw	sp,44(a0)
7f00a890:	03e00008 	jr	ra
7f00a894:	00a01021 	move	v0,a1

7f00a898 <setvbuf>:
7f00a898:	7604      	cmpi	a2,4
7f00a89a:	f00c 64f5 	save	a0-a2,40,ra,s0-s1
7f00a89e:	6704      	move	s0,a0
7f00a8a0:	6005      	bteqz	7f00a8ac <setvbuf+0x14>
7f00a8a2:	2602      	beqz	a2,7f00a8a8 <setvbuf+0x10>
7f00a8a4:	7680      	cmpi	a2,128
7f00a8a6:	6156      	btnez	7f00a954 <setvbuf+0xbc>
7f00a8a8:	5700      	slti	a3,0
7f00a8aa:	6154      	btnez	7f00a954 <setvbuf+0xbc>
7f00a8ac:	6790      	move	a0,s0
7f00a8ae:	d504      	sw	a1,16(sp)
7f00a8b0:	181e 27d8 	jal	7f009f60 <fflush>
7f00a8b4:	d705      	sw	a3,20(sp)
7f00a8b6:	8828      	lh	s1,16(s0)
7f00a8b8:	6a00      	li	v0,0
7f00a8ba:	d843      	sw	v0,12(s0)
7f00a8bc:	d840      	sw	v0,0(s0)
7f00a8be:	6a08      	li	v0,8
7f00a8c0:	ea2c      	and	v0,s1
7f00a8c2:	9504      	lw	a1,16(sp)
7f00a8c4:	9705      	lw	a3,20(sp)
7f00a8c6:	2205      	beqz	v0,7f00a8d2 <setvbuf+0x3a>
7f00a8c8:	181e 28af 	jal	7f00a2bc <free>
7f00a8cc:	9882      	lw	a0,8(s0)
7f00a8ce:	9705      	lw	a3,20(sp)
7f00a8d0:	9504      	lw	a1,16(sp)
7f00a8d2:	6a8d      	li	v0,141
7f00a8d4:	ea4b      	neg	v0
7f00a8d6:	e94c      	and	s1,v0
7f00a8d8:	920c      	lw	v0,48(sp)
7f00a8da:	7204      	cmpi	v0,4
7f00a8dc:	6019      	bteqz	7f00a910 <setvbuf+0x78>
7f00a8de:	2703      	beqz	a3,7f00a8e6 <setvbuf+0x4e>
7f00a8e0:	6a00      	li	v0,0
7f00a8e2:	2d27      	bnez	a1,7f00a932 <setvbuf+0x9a>
7f00a8e4:	1002      	b	7f00a8ea <setvbuf+0x52>
7f00a8e6:	f400 6f00 	li	a3,1024
7f00a8ea:	6787      	move	a0,a3
7f00a8ec:	181e 2867 	jal	7f00a19c <malloc>
7f00a8f0:	d705      	sw	a3,20(sp)
7f00a8f2:	67a2      	move	a1,v0
7f00a8f4:	9705      	lw	a3,20(sp)
7f00a8f6:	6a00      	li	v0,0
7f00a8f8:	2d1a      	bnez	a1,7f00a92e <setvbuf+0x96>
7f00a8fa:	f400 7700 	cmpi	a3,1024
7f00a8fe:	600a      	bteqz	7f00a914 <setvbuf+0x7c>
7f00a900:	f400 6c00 	li	a0,1024
7f00a904:	181e 2867 	jal	7f00a19c <malloc>
7f00a908:	6500      	nop
7f00a90a:	67a2      	move	a1,v0
7f00a90c:	2a0c      	bnez	v0,7f00a926 <setvbuf+0x8e>
7f00a90e:	1002      	b	7f00a914 <setvbuf+0x7c>
7f00a910:	6a00      	li	v0,0
7f00a912:	1002      	b	7f00a918 <setvbuf+0x80>
7f00a914:	6a01      	li	v0,1
7f00a916:	ea4b      	neg	v0
7f00a918:	6b04      	li	v1,4
7f00a91a:	eb2d      	or	v1,s1
7f00a91c:	c868      	sh	v1,16(s0)
7f00a91e:	6b00      	li	v1,0
7f00a920:	d861      	sw	v1,4(s0)
7f00a922:	d862      	sw	v1,8(s0)
7f00a924:	1019      	b	7f00a958 <setvbuf+0xc0>
7f00a926:	6a01      	li	v0,1
7f00a928:	ea4b      	neg	v0
7f00a92a:	f400 6f00 	li	a3,1024
7f00a92e:	6b08      	li	v1,8
7f00a930:	e96d      	or	s1,v1
7f00a932:	930c      	lw	v1,48(sp)
7f00a934:	7380      	cmpi	v1,128
7f00a936:	6102      	btnez	7f00a93c <setvbuf+0xa4>
7f00a938:	6b80      	li	v1,128
7f00a93a:	e96d      	or	s1,v1
7f00a93c:	6bff      	li	v1,255
7f00a93e:	4b01      	addiu	v1,1
7f00a940:	eb2c      	and	v1,s1
7f00a942:	2303      	beqz	v1,7f00a94a <setvbuf+0xb2>
7f00a944:	6b04      	li	v1,4
7f00a946:	eb6b      	neg	v1
7f00a948:	e96c      	and	s1,v1
7f00a94a:	c828      	sh	s1,16(s0)
7f00a94c:	d8a1      	sw	a1,4(s0)
7f00a94e:	d8a2      	sw	a1,8(s0)
7f00a950:	d8e3      	sw	a3,12(s0)
7f00a952:	1002      	b	7f00a958 <setvbuf+0xc0>
7f00a954:	6a01      	li	v0,1
7f00a956:	ea4b      	neg	v0
7f00a958:	6475      	restore	40,ra,s0-s1
7f00a95a:	e8a0      	jrc	ra

7f00a95c <signal>:
7f00a95c:	64c6      	save	48,ra
7f00a95e:	6a00      	li	v0,0
7f00a960:	446f      	addiu	v1,a0,-1
7f00a962:	d205      	sw	v0,20(sp)
7f00a964:	d206      	sw	v0,24(sp)
7f00a966:	6a01      	li	v0,1
7f00a968:	eb44      	sllv	v0,v1
7f00a96a:	677c      	move	v1,gp
7f00a96c:	f0d0 9b74 	lw	v1,-32556(v1)
7f00a970:	d504      	sw	a1,16(sp)
7f00a972:	ea6c      	and	v0,v1
7f00a974:	2a02      	bnez	v0,7f00a97a <signal+0x1e>
7f00a976:	6a02      	li	v0,2
7f00a978:	d206      	sw	v0,24(sp)
7f00a97a:	0504      	addiu	a1,sp,16
7f00a97c:	1c1e 30d3 	jalx	7f00c34c <sigaction>
7f00a980:	0607      	addiu	a2,sp,28
7f00a982:	5200      	slti	v0,0
7f00a984:	6102      	btnez	7f00a98a <signal+0x2e>
7f00a986:	9207      	lw	v0,28(sp)
7f00a988:	1002      	b	7f00a98e <signal+0x32>
7f00a98a:	6a01      	li	v0,1
7f00a98c:	ea4b      	neg	v0
7f00a98e:	6446      	restore	48,ra
7f00a990:	e8a0      	jrc	ra
7f00a992:	6500      	nop

7f00a994 <sigprocmask>:
7f00a994:	0000080c 	syscall	0x20
7f00a998:	3c097f01 	lui	t1,0x7f01
7f00a99c:	ad28e8fc 	sw	t0,-5892(t1)
7f00a9a0:	03e00008 	jr	ra
7f00a9a4:	00000000 	nop

7f00a9a8 <sprintf>:
7f00a9a8:	f00e 64e6 	save	a0-a3,48,ra,s0
7f00a9ac:	677d      	move	v1,sp
7f00a9ae:	6a42      	li	v0,66
7f00a9b0:	cb52      	sh	v0,36(v1)
7f00a9b2:	f7ef 6a1f 	li	v0,32767
7f00a9b6:	d205      	sw	v0,20(sp)
7f00a9b8:	020e      	addiu	v0,sp,56
7f00a9ba:	6704      	move	s0,a0
7f00a9bc:	d406      	sw	a0,24(sp)
7f00a9be:	0605      	addiu	a2,sp,20
7f00a9c0:	6785      	move	a0,a1
7f00a9c2:	67a2      	move	a1,v0
7f00a9c4:	181e 2b27 	jal	7f00ac9c <_doprnt>
7f00a9c8:	d204      	sw	v0,16(sp)
7f00a9ca:	9206      	lw	v0,24(sp)
7f00a9cc:	6b00      	li	v1,0
7f00a9ce:	c260      	sb	v1,0(v0)
7f00a9d0:	9206      	lw	v0,24(sp)
7f00a9d2:	e20b      	subu	v0,s0
7f00a9d4:	6466      	restore	48,ra,s0
7f00a9d6:	e8a0      	jrc	ra

7f00a9d8 <strcat>:
7f00a9d8:	6744      	move	v0,a0
7f00a9da:	6764      	move	v1,a0
7f00a9dc:	1001      	b	7f00a9e0 <strcat+0x8>
7f00a9de:	6766      	move	v1,a2
7f00a9e0:	8380      	lb	a0,0(v1)
7f00a9e2:	43c1      	addiu	a2,v1,1
7f00a9e4:	2cfc      	bnez	a0,7f00a9de <strcat+0x6>
7f00a9e6:	8580      	lb	a0,0(a1)
7f00a9e8:	4d01      	addiu	a1,1
7f00a9ea:	c380      	sb	a0,0(v1)
7f00a9ec:	4b01      	addiu	v1,1
7f00a9ee:	2cfb      	bnez	a0,7f00a9e6 <strcat+0xe>
7f00a9f0:	e8a0      	jrc	ra
7f00a9f2:	6500      	nop

7f00a9f4 <strcpy>:
7f00a9f4:	6744      	move	v0,a0
7f00a9f6:	6764      	move	v1,a0
7f00a9f8:	8580      	lb	a0,0(a1)
7f00a9fa:	4d01      	addiu	a1,1
7f00a9fc:	c380      	sb	a0,0(v1)
7f00a9fe:	4b01      	addiu	v1,1
7f00aa00:	2cfb      	bnez	a0,7f00a9f8 <strcpy+0x4>
7f00aa02:	e8a0      	jrc	ra

7f00aa04 <strlen>:
7f00aa04:	24830001 	addiu	v1,a0,1
7f00aa08:	80820000 	lb	v0,0(a0)
7f00aa0c:	1440fffe 	bnez	v0,7f00aa08 <strlen+0x4>
7f00aa10:	24840001 	addiu	a0,a0,1
7f00aa14:	03e00008 	jr	ra
7f00aa18:	00831023 	subu	v0,a0,v1

7f00aa1c <strncmp>:
7f00aa1c:	260b      	beqz	a2,7f00aa34 <strncmp+0x18>
7f00aa1e:	8440      	lb	v0,0(a0)
7f00aa20:	8560      	lb	v1,0(a1)
7f00aa22:	ea6a      	cmp	v0,v1
7f00aa24:	6002      	bteqz	7f00aa2a <strncmp+0xe>
7f00aa26:	e820      	jr	ra
7f00aa28:	e26b      	subu	v0,v1
7f00aa2a:	4eff      	addiu	a2,-1
7f00aa2c:	2205      	beqz	v0,7f00aa38 <strncmp+0x1c>
7f00aa2e:	4d01      	addiu	a1,1
7f00aa30:	4c01      	addiu	a0,1
7f00aa32:	17f4      	b	7f00aa1c <strncmp>
7f00aa34:	e820      	jr	ra
7f00aa36:	6a00      	li	v0,0
7f00aa38:	e820      	jr	ra
7f00aa3a:	6a00      	li	v0,0

7f00aa3c <time>:
7f00aa3c:	64e4      	save	32,ra,s0
7f00aa3e:	6d00      	li	a1,0
7f00aa40:	6704      	move	s0,a0
7f00aa42:	1c1e 2852 	jalx	7f00a148 <gettimeofday>
7f00aa46:	0404      	addiu	a0,sp,16
7f00aa48:	5200      	slti	v0,0
7f00aa4a:	6104      	btnez	7f00aa54 <time+0x18>
7f00aa4c:	9204      	lw	v0,16(sp)
7f00aa4e:	2004      	beqz	s0,7f00aa58 <time+0x1c>
7f00aa50:	d840      	sw	v0,0(s0)
7f00aa52:	1002      	b	7f00aa58 <time+0x1c>
7f00aa54:	6a01      	li	v0,1
7f00aa56:	ea4b      	neg	v0
7f00aa58:	6464      	restore	32,ra,s0
7f00aa5a:	e8a0      	jrc	ra

7f00aa5c <tztab>:
7f00aa5c:	64c4      	save	32,ra
7f00aa5e:	b311      	lw	v1,7f00aaa0 <tztab+0x44>
7f00aa60:	1008      	b	7f00aa72 <tztab+0x16>
7f00aa62:	ea8e      	xor	v0,a0
7f00aa64:	2a05      	bnez	v0,7f00aa70 <tztab+0x14>
7f00aa66:	2502      	beqz	a1,7f00aa6c <tztab+0x10>
7f00aa68:	9b42      	lw	v0,8(v1)
7f00aa6a:	1001      	b	7f00aa6e <tztab+0x12>
7f00aa6c:	9b41      	lw	v0,4(v1)
7f00aa6e:	2a15      	bnez	v0,7f00aa9a <tztab+0x3e>
7f00aa70:	4b0c      	addiu	v1,12
7f00aa72:	9b40      	lw	v0,0(v1)
7f00aa74:	42c1      	addiu	a2,v0,1
7f00aa76:	2ef5      	bnez	a2,7f00aa62 <tztab+0x6>
7f00aa78:	5400      	slti	a0,0
7f00aa7a:	6e2d      	li	a2,45
7f00aa7c:	6002      	bteqz	7f00aa82 <tztab+0x26>
7f00aa7e:	ec8b      	neg	a0
7f00aa80:	6e2b      	li	a2,43
7f00aa82:	6f3c      	li	a3,60
7f00aa84:	ecfa      	div	zero,a0,a3
7f00aa86:	2f01      	bnez	a3,7f00aa8a <tztab+0x2e>
7f00aa88:	e8e5      	break	7
7f00aa8a:	b507      	lw	a1,7f00aaa4 <tztab+0x48>
7f00aa8c:	ec10      	mfhi	a0
7f00aa8e:	d404      	sw	a0,16(sp)
7f00aa90:	b406      	lw	a0,7f00aaa8 <tztab+0x4c>
7f00aa92:	181e 2a6a 	jal	7f00a9a8 <sprintf>
7f00aa96:	ef12      	mflo	a3
7f00aa98:	b204      	lw	v0,7f00aaa8 <tztab+0x4c>
7f00aa9a:	6444      	restore	32,ra
7f00aa9c:	e8a0      	jrc	ra
7f00aa9e:	6500      	nop
7f00aaa0:	e7a8      	daddu	v0,a3,a1
7f00aaa2:	7f00      	sd	s0,0(a3)
7f00aaa4:	e2a4      	daddu	s1,v0,a1
7f00aaa6:	7f00      	sd	s0,0(a3)
7f00aaa8:	f158 7f00 	sd	s0,-16064(a3)

7f00aaac <timezone>:
7f00aaac:	64f5      	save	40,ra,s0-s1
7f00aaae:	6704      	move	s0,a0
7f00aab0:	b412      	lw	a0,7f00aaf8 <timezone+0x4c>
7f00aab2:	181e 284d 	jal	7f00a134 <getenv>
7f00aab6:	6725      	move	s1,a1
7f00aab8:	2218      	beqz	v0,7f00aaea <timezone+0x3e>
7f00aaba:	6782      	move	a0,v0
7f00aabc:	6d2c      	li	a1,44
7f00aabe:	1c1e 3094 	jalx	7f00c250 <index>
7f00aac2:	d204      	sw	v0,16(sp)
7f00aac4:	9304      	lw	v1,16(sp)
7f00aac6:	6702      	move	s0,v0
7f00aac8:	6743      	move	v0,v1
7f00aaca:	2013      	beqz	s0,7f00aaf2 <timezone+0x46>
7f00aacc:	2102      	beqz	s1,7f00aad2 <timezone+0x26>
7f00aace:	4041      	addiu	v0,s0,1
7f00aad0:	1010      	b	7f00aaf2 <timezone+0x46>
7f00aad2:	c020      	sb	s1,0(s0)
7f00aad4:	b40a      	lw	a0,7f00aafc <timezone+0x50>
7f00aad6:	67a2      	move	a1,v0
7f00aad8:	181e 30dc 	jal	7f00c370 <strncpy>
7f00aadc:	6e31      	li	a2,49
7f00aade:	b208      	lw	v0,7f00aafc <timezone+0x50>
7f00aae0:	6b2c      	li	v1,44
7f00aae2:	f020 c231 	sb	s1,49(v0)
7f00aae6:	c060      	sb	v1,0(s0)
7f00aae8:	1004      	b	7f00aaf2 <timezone+0x46>
7f00aaea:	6790      	move	a0,s0
7f00aaec:	181e 2a97 	jal	7f00aa5c <tztab>
7f00aaf0:	67b1      	move	a1,s1
7f00aaf2:	6475      	restore	40,ra,s0-s1
7f00aaf4:	e8a0      	jrc	ra
7f00aaf6:	6500      	nop
7f00aaf8:	e2b4      	daddu	a1,v0,a1
7f00aafa:	7f00      	sd	s0,0(a3)
7f00aafc:	f158 7f00 	sd	s0,-16064(a3)

7f00ab00 <wait>:
7f00ab00:	67a4      	move	a1,a0
7f00ab02:	6e00      	li	a2,0
7f00ab04:	6c01      	li	a0,1
7f00ab06:	64c3      	save	24,ra
7f00ab08:	ec8b      	neg	a0
7f00ab0a:	1c1e 2ac5 	jalx	7f00ab14 <wait4>
7f00ab0e:	67e6      	move	a3,a2
7f00ab10:	6443      	restore	24,ra
7f00ab12:	e8a0      	jrc	ra

7f00ab14 <wait4>:
7f00ab14:	000001cc 	syscall	0x7
7f00ab18:	3c097f01 	lui	t1,0x7f01
7f00ab1c:	ad28e8fc 	sw	t0,-5892(t1)
7f00ab20:	03e00008 	jr	ra
7f00ab24:	00000000 	nop

7f00ab28 <write>:
7f00ab28:	0000010c 	syscall	0x4
7f00ab2c:	3c097f01 	lui	t1,0x7f01
7f00ab30:	ad28e8fc 	sw	t0,-5892(t1)
7f00ab34:	03e00008 	jr	ra
7f00ab38:	00000000 	nop

7f00ab3c <_brk>:
7f00ab3c:	0000114c 	syscall	0x45
7f00ab40:	3c097f01 	lui	t1,0x7f01
7f00ab44:	ad28e8fc 	sw	t0,-5892(t1)
7f00ab48:	03e00008 	jr	ra
7f00ab4c:	00000000 	nop

7f00ab50 <_exit>:
7f00ab50:	0000004c 	syscall	0x1

7f00ab54 <access>:
7f00ab54:	0000084c 	syscall	0x21
7f00ab58:	3c097f01 	lui	t1,0x7f01
7f00ab5c:	ad28e8fc 	sw	t0,-5892(t1)
7f00ab60:	03e00008 	jr	ra
7f00ab64:	00000000 	nop

7f00ab68 <calloc>:
7f00ab68:	ed98      	mult	a1,a0
7f00ab6a:	64f4      	save	32,ra,s0-s1
7f00ab6c:	ec12      	mflo	a0
7f00ab6e:	181e 2867 	jal	7f00a19c <malloc>
7f00ab72:	e912      	mflo	s1
7f00ab74:	6702      	move	s0,v0
7f00ab76:	2205      	beqz	v0,7f00ab82 <calloc+0x1a>
7f00ab78:	6782      	move	a0,v0
7f00ab7a:	6d00      	li	a1,0
7f00ab7c:	1c1e 309d 	jalx	7f00c274 <memset>
7f00ab80:	67d1      	move	a2,s1
7f00ab82:	6750      	move	v0,s0
7f00ab84:	6474      	restore	32,ra,s0-s1
7f00ab86:	e8a0      	jrc	ra

7f00ab88 <cfree>:
7f00ab88:	64c3      	save	24,ra
7f00ab8a:	181e 28af 	jal	7f00a2bc <free>
7f00ab8e:	6500      	nop
7f00ab90:	6443      	restore	24,ra
7f00ab92:	e8a0      	jrc	ra

7f00ab94 <ksprintn>:
7f00ab94:	64b1      	save	8,s0-s1
7f00ab96:	6a00      	li	v0,0
7f00ab98:	9306      	lw	v1,24(sp)
7f00ab9a:	c440      	sb	v0,0(a0)
7f00ab9c:	6744      	move	v0,a0
7f00ab9e:	eddb      	divu	zero,a1,a2
7f00aba0:	2e01      	bnez	a2,7f00aba4 <ksprintn+0x10>
7f00aba2:	e8e5      	break	7
7f00aba4:	690f      	li	s1,15
7f00aba6:	6519      	move	t8,s1
7f00aba8:	6738      	move	s1,t8
7f00abaa:	4a01      	addiu	v0,1
7f00abac:	e810      	mfhi	s0
7f00abae:	e82c      	and	s0,s1
7f00abb0:	4027      	addiu	s1,s0,7
7f00abb2:	580a      	sltiu	s0,10
7f00abb4:	4929      	addiu	s1,41
7f00abb6:	6102      	btnez	7f00abbc <ksprintn+0x28>
7f00abb8:	4027      	addiu	s1,s0,7
7f00abba:	4950      	addiu	s1,80
7f00abbc:	eddb      	divu	zero,a1,a2
7f00abbe:	2e01      	bnez	a2,7f00abc2 <ksprintn+0x2e>
7f00abc0:	e8e5      	break	7
7f00abc2:	4fff      	addiu	a3,-1
7f00abc4:	5701      	slti	a3,1
7f00abc6:	c220      	sb	s1,0(v0)
7f00abc8:	ed12      	mflo	a1
7f00abca:	60e9      	bteqz	7f00ab9e <ksprintn+0xa>
7f00abcc:	2de8      	bnez	a1,7f00ab9e <ksprintn+0xa>
7f00abce:	2302      	beqz	v1,7f00abd4 <ksprintn+0x40>
7f00abd0:	e293      	subu	a0,v0,a0
7f00abd2:	c380      	sb	a0,0(v1)
7f00abd4:	6431      	restore	8,s0-s1
7f00abd6:	e8a0      	jrc	ra

7f00abd8 <cvtround>:
7f00abd8:	64f6      	save	48,ra,s0-s1
7f00abda:	d50d      	sw	a1,52(sp)
7f00abdc:	b52d      	lw	a1,7f00ac90 <cvtround+0xb8>
7f00abde:	6764      	move	v1,a0
7f00abe0:	675d      	move	v0,sp
7f00abe2:	f040 a200 	lbu	s0,64(v0)
7f00abe6:	d60e      	sw	a2,56(sp)
7f00abe8:	d306      	sw	v1,24(sp)
7f00abea:	1c1e 332d 	jalx	7f00ccb4 <__eqsf2>
7f00abee:	6727      	move	s1,a3
7f00abf0:	9306      	lw	v1,24(sp)
7f00abf2:	2209      	beqz	v0,7f00ac06 <cvtround+0x2e>
7f00abf4:	b528      	lw	a1,7f00ac94 <cvtround+0xbc>
7f00abf6:	1c1e 33bb 	jalx	7f00ceec <__mulsf3>
7f00abfa:	6783      	move	a0,v1
7f00abfc:	6782      	move	a0,v0
7f00abfe:	181e 30b8 	jal	7f00c2e0 <modf>
7f00ac02:	0504      	addiu	a1,sp,16
7f00ac04:	1005      	b	7f00ac10 <cvtround+0x38>
7f00ac06:	4088      	addiu	a0,s0,-8
7f00ac08:	1c1e 3627 	jalx	7f00d89c <__floatsisf>
7f00ac0c:	4cd8      	addiu	a0,-40
7f00ac0e:	d204      	sw	v0,16(sp)
7f00ac10:	b522      	lw	a1,7f00ac98 <cvtround+0xc0>
7f00ac12:	1c1e 334b 	jalx	7f00cd2c <__gesf2>
7f00ac16:	9404      	lw	a0,16(sp)
7f00ac18:	5201      	slti	v0,1
7f00ac1a:	6123      	btnez	7f00ac62 <cvtround+0x8a>
7f00ac1c:	a140      	lbu	v0,0(s1)
7f00ac1e:	722e      	cmpi	v0,46
7f00ac20:	6778      	move	v1,t8
7f00ac22:	5b01      	sltiu	v1,1
7f00ac24:	6758      	move	v0,t8
7f00ac26:	e147      	subu	s1,v0
7f00ac28:	a140      	lbu	v0,0(s1)
7f00ac2a:	4a01      	addiu	v0,1
7f00ac2c:	ea11      	zeb	v0
7f00ac2e:	5a3a      	sltiu	v0,58
7f00ac30:	c140      	sb	v0,0(s1)
7f00ac32:	612b      	btnez	7f00ac8a <cvtround+0xb2>
7f00ac34:	6a30      	li	v0,48
7f00ac36:	c140      	sb	v0,0(s1)
7f00ac38:	930e      	lw	v1,56(sp)
7f00ac3a:	e96a      	cmp	s1,v1
7f00ac3c:	6110      	btnez	7f00ac5e <cvtround+0x86>
7f00ac3e:	920d      	lw	v0,52(sp)
7f00ac40:	2207      	beqz	v0,7f00ac50 <cvtround+0x78>
7f00ac42:	6a31      	li	v0,49
7f00ac44:	c140      	sb	v0,0(s1)
7f00ac46:	930d      	lw	v1,52(sp)
7f00ac48:	9b40      	lw	v0,0(v1)
7f00ac4a:	4a01      	addiu	v0,1
7f00ac4c:	db40      	sw	v0,0(v1)
7f00ac4e:	101d      	b	7f00ac8a <cvtround+0xb2>
7f00ac50:	6a31      	li	v0,49
7f00ac52:	f7ff c15f 	sb	v0,-1(s1)
7f00ac56:	920e      	lw	v0,56(sp)
7f00ac58:	4aff      	addiu	v0,-1
7f00ac5a:	d20e      	sw	v0,56(sp)
7f00ac5c:	1016      	b	7f00ac8a <cvtround+0xb2>
7f00ac5e:	49ff      	addiu	s1,-1
7f00ac60:	17dd      	b	7f00ac1c <cvtround+0x44>
7f00ac62:	9311      	lw	v1,68(sp)
7f00ac64:	a340      	lbu	v0,0(v1)
7f00ac66:	2211      	beqz	v0,7f00ac8a <cvtround+0xb2>
7f00ac68:	a140      	lbu	v0,0(s1)
7f00ac6a:	722e      	cmpi	v0,46
7f00ac6c:	6758      	move	v0,t8
7f00ac6e:	5a01      	sltiu	v0,1
7f00ac70:	6778      	move	v1,t8
7f00ac72:	e167      	subu	s1,v1
7f00ac74:	a140      	lbu	v0,0(s1)
7f00ac76:	7230      	cmpi	v0,48
7f00ac78:	6108      	btnez	7f00ac8a <cvtround+0xb2>
7f00ac7a:	920e      	lw	v0,56(sp)
7f00ac7c:	e94a      	cmp	s1,v0
7f00ac7e:	6103      	btnez	7f00ac86 <cvtround+0xae>
7f00ac80:	9311      	lw	v1,68(sp)
7f00ac82:	6758      	move	v0,t8
7f00ac84:	c340      	sb	v0,0(v1)
7f00ac86:	49ff      	addiu	s1,-1
7f00ac88:	17ef      	b	7f00ac68 <cvtround+0x90>
7f00ac8a:	920e      	lw	v0,56(sp)
7f00ac8c:	6476      	restore	48,ra,s0-s1
7f00ac8e:	e8a0      	jrc	ra
7f00ac90:	0000      	addiu	s0,sp,0
7f00ac92:	0000      	addiu	s0,sp,0
7f00ac94:	0000      	addiu	s0,sp,0
7f00ac96:	4120      	addiu	s1,s1,0
7f00ac98:	0000      	addiu	s0,sp,0
7f00ac9a:	4080      	addiu	a0,s0,0

7f00ac9c <_doprnt>:
7f00ac9c:	f018 64f6 	save	a0-a1,176,ra,s0-s1
7f00aca0:	6a00      	li	v0,0
7f00aca2:	6726      	move	s1,a2
7f00aca4:	d21b      	sw	v0,108(sp)
7f00aca6:	f2a1 2606 	beqz	a2,7f00c1f6 <_doprnt+0x155a>
7f00acaa:	2c03      	bnez	a0,7f00acb2 <_doprnt+0x16>
7f00acac:	f562 b314 	lw	v1,7f00c220 <_doprnt+0x1584>
7f00acb0:	d32c      	sw	v1,176(sp)
7f00acb2:	6c00      	li	a0,0
7f00acb4:	f281 101c 	b	7f00c1f0 <_doprnt+0x1554>
7f00acb8:	f281 241d 	beqz	a0,7f00c1f6 <_doprnt+0x155a>
7f00acbc:	9960      	lw	v1,0(s1)
7f00acbe:	4bff      	addiu	v1,-1
7f00acc0:	5300      	slti	v1,0
7f00acc2:	d960      	sw	v1,0(s1)
7f00acc4:	6105      	btnez	7f00acd0 <_doprnt+0x34>
7f00acc6:	9941      	lw	v0,4(s1)
7f00acc8:	c280      	sb	a0,0(v0)
7f00acca:	4a01      	addiu	v0,1
7f00accc:	d941      	sw	v0,4(s1)
7f00acce:	1014      	b	7f00acf8 <_doprnt+0x5c>
7f00acd0:	a9a8      	lhu	a1,16(s1)
7f00acd2:	6e80      	li	a2,128
7f00acd4:	edcc      	and	a1,a2
7f00acd6:	250d      	beqz	a1,7f00acf2 <_doprnt+0x56>
7f00acd8:	99a3      	lw	a1,12(s1)
7f00acda:	eb6b      	neg	v1
7f00acdc:	eba2      	slt	v1,a1
7f00acde:	6009      	bteqz	7f00acf2 <_doprnt+0x56>
7f00ace0:	9961      	lw	v1,4(s1)
7f00ace2:	720a      	cmpi	v0,10
7f00ace4:	c340      	sb	v0,0(v1)
7f00ace6:	9961      	lw	v1,4(s1)
7f00ace8:	6003      	bteqz	7f00acf0 <_doprnt+0x54>
7f00acea:	4b01      	addiu	v1,1
7f00acec:	d961      	sw	v1,4(s1)
7f00acee:	1004      	b	7f00acf8 <_doprnt+0x5c>
7f00acf0:	a380      	lbu	a0,0(v1)
7f00acf2:	181e 2788 	jal	7f009e20 <_flsbuf>
7f00acf6:	67b1      	move	a1,s1
7f00acf8:	951b      	lw	a1,108(sp)
7f00acfa:	4d01      	addiu	a1,1
7f00acfc:	d51b      	sw	a1,108(sp)
7f00acfe:	932c      	lw	v1,176(sp)
7f00ad00:	8340      	lb	v0,0(v1)
7f00ad02:	4b01      	addiu	v1,1
7f00ad04:	d32c      	sw	v1,176(sp)
7f00ad06:	6782      	move	a0,v0
7f00ad08:	ec11      	zeb	a0
7f00ad0a:	7425      	cmpi	a0,37
7f00ad0c:	61d5      	btnez	7f00acb8 <_doprnt+0x1c>
7f00ad0e:	67b8      	move	a1,t8
7f00ad10:	679d      	move	a0,sp
7f00ad12:	6b01      	li	v1,1
7f00ad14:	c4b8      	sb	a1,24(a0)
7f00ad16:	eb6b      	neg	v1
7f00ad18:	d31a      	sw	v1,104(sp)
7f00ad1a:	67c3      	move	a2,v1
7f00ad1c:	932d      	lw	v1,180(sp)
7f00ad1e:	6a00      	li	v0,0
7f00ad20:	6c20      	li	a0,32
7f00ad22:	d223      	sw	v0,140(sp)
7f00ad24:	d21c      	sw	v0,112(sp)
7f00ad26:	d220      	sw	v0,128(sp)
7f00ad28:	d21e      	sw	v0,120(sp)
7f00ad2a:	6702      	move	s0,v0
7f00ad2c:	d421      	sw	a0,132(sp)
7f00ad2e:	67a2      	move	a1,v0
7f00ad30:	656a      	move	t3,v0
7f00ad32:	650a      	move	t0,v0
7f00ad34:	972c      	lw	a3,176(sp)
7f00ad36:	652b      	move	t1,v1
7f00ad38:	100d      	b	7f00ad54 <_doprnt+0xb8>
7f00ad3a:	6c01      	li	a0,1
7f00ad3c:	6a20      	li	v0,32
7f00ad3e:	6e00      	li	a2,0
7f00ad40:	656c      	move	t3,a0
7f00ad42:	d221      	sw	v0,132(sp)
7f00ad44:	1007      	b	7f00ad54 <_doprnt+0xb8>
7f00ad46:	6b01      	li	v1,1
7f00ad48:	d320      	sw	v1,128(sp)
7f00ad4a:	1004      	b	7f00ad54 <_doprnt+0xb8>
7f00ad4c:	6c30      	li	a0,48
7f00ad4e:	d421      	sw	a0,132(sp)
7f00ad50:	1001      	b	7f00ad54 <_doprnt+0xb8>
7f00ad52:	650b      	move	t0,v1
7f00ad54:	8740      	lb	v0,0(a3)
7f00ad56:	4f01      	addiu	a3,1
7f00ad58:	6782      	move	a0,v0
7f00ad5a:	ec11      	zeb	a0
7f00ad5c:	4468      	addiu	v1,a0,-8
7f00ad5e:	4be5      	addiu	v1,-27
7f00ad60:	658a      	move	t4,v0
7f00ad62:	6743      	move	v0,v1
7f00ad64:	ea11      	zeb	v0
7f00ad66:	5a58      	sltiu	v0,88
7f00ad68:	f1c1 6019 	bteqz	7f00c11e <_doprnt+0x1482>
7f00ad6c:	0b04      	la	v1,7f00ad7c <_doprnt+0xe0>
7f00ad6e:	3244      	sll	v0,1
7f00ad70:	651b      	move	t8,v1
7f00ad72:	e34d      	addu	v1,v0
7f00ad74:	8b40      	lh	v0,0(v1)
7f00ad76:	6778      	move	v1,t8
7f00ad78:	e269      	addu	v0,v1
7f00ad7a:	ea80      	jrc	v0
7f00ad7c:	ffcb      	daddiu	a2,sp,44
7f00ad7e:	13a3      	b	7f00b4c6 <_doprnt+0x82a>
7f00ad80:	00c1      	addiu	s0,sp,772
7f00ad82:	13a3      	b	7f00b4ca <_doprnt+0x82e>
7f00ad84:	13a3      	b	7f00b4cc <_doprnt+0x830>
7f00ad86:	13a3      	b	7f00b4ce <_doprnt+0x832>
7f00ad88:	13a3      	b	7f00b4d0 <_doprnt+0x834>
7f00ad8a:	010f      	addiu	s1,sp,60
7f00ad8c:	00b5      	addiu	s0,sp,724
7f00ad8e:	13a3      	b	7f00b4d6 <_doprnt+0x83a>
7f00ad90:	00bd      	addiu	s0,sp,756
7f00ad92:	ffbf      	daddiu	a1,sp,124
7f00ad94:	13a3      	b	7f00b4dc <_doprnt+0x840>
7f00ad96:	0139      	addiu	s1,sp,228
7f00ad98:	00b1      	addiu	s0,sp,708
7f00ad9a:	00b1      	addiu	s0,sp,708
7f00ad9c:	00b1      	addiu	s0,sp,708
7f00ad9e:	00b1      	addiu	s0,sp,708
7f00ada0:	00b1      	addiu	s0,sp,708
7f00ada2:	00b1      	addiu	s0,sp,708
7f00ada4:	00b1      	addiu	s0,sp,708
7f00ada6:	00b1      	addiu	s0,sp,708
7f00ada8:	00b1      	addiu	s0,sp,708
7f00adaa:	13a3      	b	7f00b4f2 <_doprnt+0x856>
7f00adac:	13a3      	b	7f00b4f4 <_doprnt+0x858>
7f00adae:	13a3      	b	7f00b4f6 <_doprnt+0x85a>
7f00adb0:	13a3      	b	7f00b4f8 <_doprnt+0x85c>
7f00adb2:	13a3      	b	7f00b4fa <_doprnt+0x85e>
7f00adb4:	13a3      	b	7f00b4fc <_doprnt+0x860>
7f00adb6:	13a3      	b	7f00b4fe <_doprnt+0x862>
7f00adb8:	13a3      	b	7f00b500 <_doprnt+0x864>
7f00adba:	13a3      	b	7f00b502 <_doprnt+0x866>
7f00adbc:	13a3      	b	7f00b504 <_doprnt+0x868>
7f00adbe:	0409      	addiu	a0,sp,36
7f00adc0:	0b85      	la	v1,7f00afd4 <_doprnt+0x338>
7f00adc2:	0b85      	la	v1,7f00afd4 <_doprnt+0x338>
7f00adc4:	0b85      	la	v1,7f00afd8 <_doprnt+0x33c>
7f00adc6:	13a3      	b	7f00b50e <_doprnt+0x872>
7f00adc8:	13a3      	b	7f00b510 <_doprnt+0x874>
7f00adca:	13a3      	b	7f00b512 <_doprnt+0x876>
7f00adcc:	13a3      	b	7f00b514 <_doprnt+0x878>
7f00adce:	13a3      	b	7f00b516 <_doprnt+0x87a>
7f00add0:	13a3      	b	7f00b518 <_doprnt+0x87c>
7f00add2:	13a3      	b	7f00b51a <_doprnt+0x87e>
7f00add4:	13a3      	b	7f00b51c <_doprnt+0x880>
7f00add6:	13a3      	b	7f00b51e <_doprnt+0x882>
7f00add8:	13a3      	b	7f00b520 <_doprnt+0x884>
7f00adda:	13a3      	b	7f00b522 <_doprnt+0x886>
7f00addc:	13a3      	b	7f00b524 <_doprnt+0x888>
7f00adde:	13a3      	b	7f00b526 <_doprnt+0x88a>
7f00ade0:	13a3      	b	7f00b528 <_doprnt+0x88c>
7f00ade2:	13a3      	b	7f00b52a <_doprnt+0x88e>
7f00ade4:	13a3      	b	7f00b52c <_doprnt+0x890>
7f00ade6:	076d      	addiu	a3,sp,436
7f00ade8:	13a3      	b	7f00b530 <_doprnt+0x894>
7f00adea:	079d      	addiu	a3,sp,628
7f00adec:	13a3      	b	7f00b534 <_doprnt+0x898>
7f00adee:	13a3      	b	7f00b536 <_doprnt+0x89a>
7f00adf0:	13a3      	b	7f00b538 <_doprnt+0x89c>
7f00adf2:	13a3      	b	7f00b53a <_doprnt+0x89e>
7f00adf4:	13a3      	b	7f00b53c <_doprnt+0x8a0>
7f00adf6:	13a3      	b	7f00b53e <_doprnt+0x8a2>
7f00adf8:	13a3      	b	7f00b540 <_doprnt+0x8a4>
7f00adfa:	0169      	addiu	s1,sp,420
7f00adfc:	02e1      	addiu	v0,sp,900
7f00adfe:	03f7      	addiu	v1,sp,988
7f00ae00:	0b85      	la	v1,7f00b014 <_doprnt+0x378>
7f00ae02:	0b85      	la	v1,7f00b014 <_doprnt+0x378>
7f00ae04:	0b85      	la	v1,7f00b018 <_doprnt+0x37c>
7f00ae06:	13a3      	b	7f00b54e <_doprnt+0x8b2>
7f00ae08:	03f7      	addiu	v1,sp,988
7f00ae0a:	13a3      	b	7f00b552 <_doprnt+0x8b6>
7f00ae0c:	13a3      	b	7f00b554 <_doprnt+0x8b8>
7f00ae0e:	0433      	addiu	a0,sp,204
7f00ae10:	13a3      	b	7f00b558 <_doprnt+0x8bc>
7f00ae12:	0491      	addiu	a0,sp,580
7f00ae14:	0437      	addiu	a0,sp,220
7f00ae16:	0463      	addiu	a0,sp,396
7f00ae18:	13a3      	b	7f00b560 <_doprnt+0x8c4>
7f00ae1a:	0627      	addiu	a2,sp,156
7f00ae1c:	04c1      	addiu	a0,sp,772
7f00ae1e:	13a3      	b	7f00b566 <_doprnt+0x8ca>
7f00ae20:	0743      	addiu	a3,sp,268
7f00ae22:	13a3      	b	7f00b56a <_doprnt+0x8ce>
7f00ae24:	13a3      	b	7f00b56c <_doprnt+0x8d0>
7f00ae26:	076d      	addiu	a3,sp,436
7f00ae28:	13a3      	b	7f00b570 <_doprnt+0x8d4>
7f00ae2a:	079d      	addiu	a3,sp,628
7f00ae2c:	6b00      	li	v1,0
7f00ae2e:	1046      	b	7f00aebc <_doprnt+0x220>
7f00ae30:	6c01      	li	a0,1
7f00ae32:	ec8b      	neg	a0
7f00ae34:	d423      	sw	a0,140(sp)
7f00ae36:	178e      	b	7f00ad54 <_doprnt+0xb8>
7f00ae38:	6d01      	li	a1,1
7f00ae3a:	178c      	b	7f00ad54 <_doprnt+0xb8>
7f00ae3c:	9940      	lw	v0,0(s1)
7f00ae3e:	67a9      	move	a1,t1
7f00ae40:	676c      	move	v1,t4
7f00ae42:	4aff      	addiu	v0,-1
7f00ae44:	5200      	slti	v0,0
7f00ae46:	d72c      	sw	a3,176(sp)
7f00ae48:	d52d      	sw	a1,180(sp)
7f00ae4a:	d940      	sw	v0,0(s1)
7f00ae4c:	6104      	btnez	7f00ae56 <_doprnt+0x1ba>
7f00ae4e:	9941      	lw	v0,4(s1)
7f00ae50:	6b25      	li	v1,37
7f00ae52:	c260      	sb	v1,0(v0)
7f00ae54:	100d      	b	7f00ae70 <_doprnt+0x1d4>
7f00ae56:	a988      	lhu	a0,16(s1)
7f00ae58:	6d80      	li	a1,128
7f00ae5a:	ecac      	and	a0,a1
7f00ae5c:	240e      	beqz	a0,7f00ae7a <_doprnt+0x1de>
7f00ae5e:	9983      	lw	a0,12(s1)
7f00ae60:	ea4b      	neg	v0
7f00ae62:	ea82      	slt	v0,a0
7f00ae64:	600a      	bteqz	7f00ae7a <_doprnt+0x1de>
7f00ae66:	9941      	lw	v0,4(s1)
7f00ae68:	730a      	cmpi	v1,10
7f00ae6a:	c260      	sb	v1,0(v0)
7f00ae6c:	9941      	lw	v0,4(s1)
7f00ae6e:	6003      	bteqz	7f00ae76 <_doprnt+0x1da>
7f00ae70:	4a01      	addiu	v0,1
7f00ae72:	d941      	sw	v0,4(s1)
7f00ae74:	1006      	b	7f00ae82 <_doprnt+0x1e6>
7f00ae76:	a280      	lbu	a0,0(v0)
7f00ae78:	1001      	b	7f00ae7c <_doprnt+0x1e0>
7f00ae7a:	6c25      	li	a0,37
7f00ae7c:	181e 2788 	jal	7f009e20 <_flsbuf>
7f00ae80:	67b1      	move	a1,s1
7f00ae82:	921b      	lw	v0,108(sp)
7f00ae84:	4a01      	addiu	v0,1
7f00ae86:	f141 1007 	b	7f00c118 <_doprnt+0x147c>
7f00ae8a:	6749      	move	v0,t1
7f00ae8c:	6769      	move	v1,t1
7f00ae8e:	9a80      	lw	a0,0(v0)
7f00ae90:	674b      	move	v0,t3
7f00ae92:	4b04      	addiu	v1,4
7f00ae94:	2a0a      	bnez	v0,7f00aeaa <_doprnt+0x20e>
7f00ae96:	5400      	slti	a0,0
7f00ae98:	650c      	move	t0,a0
7f00ae9a:	652b      	move	t1,v1
7f00ae9c:	f75f 601a 	bteqz	7f00ad54 <_doprnt+0xb8>
7f00aea0:	6b01      	li	v1,1
7f00aea2:	ec8b      	neg	a0
7f00aea4:	ed6e      	xor	a1,v1
7f00aea6:	650c      	move	t0,a0
7f00aea8:	1755      	b	7f00ad54 <_doprnt+0xb8>
7f00aeaa:	67c4      	move	a2,a0
7f00aeac:	6c01      	li	a0,1
7f00aeae:	652b      	move	t1,v1
7f00aeb0:	656c      	move	t3,a0
7f00aeb2:	1750      	b	7f00ad54 <_doprnt+0xb8>
7f00aeb4:	674b      	move	v0,t3
7f00aeb6:	f75f 2209 	beqz	v0,7f00ad4c <_doprnt+0xb0>
7f00aeba:	17b8      	b	7f00ae2c <_doprnt+0x190>
7f00aebc:	6a0a      	li	v0,10
7f00aebe:	eb58      	mult	v1,v0
7f00aec0:	eb12      	mflo	v1
7f00aec2:	e38d      	addu	v1,a0
7f00aec4:	a780      	lbu	a0,0(a3)
7f00aec6:	4bd0      	addiu	v1,-48
7f00aec8:	4448      	addiu	v0,a0,-8
7f00aeca:	4ad8      	addiu	v0,-40
7f00aecc:	ea11      	zeb	v0
7f00aece:	5a0a      	sltiu	v0,10
7f00aed0:	6002      	bteqz	7f00aed6 <_doprnt+0x23a>
7f00aed2:	4f01      	addiu	a3,1
7f00aed4:	17f3      	b	7f00aebc <_doprnt+0x220>
7f00aed6:	678b      	move	a0,t3
7f00aed8:	f73f 241b 	beqz	a0,7f00ad52 <_doprnt+0xb6>
7f00aedc:	6a01      	li	v0,1
7f00aede:	67c3      	move	a2,v1
7f00aee0:	656a      	move	t3,v0
7f00aee2:	1738      	b	7f00ad54 <_doprnt+0xb8>
7f00aee4:	6749      	move	v0,t1
7f00aee6:	6769      	move	v1,t1
7f00aee8:	4a04      	addiu	v0,4
7f00aeea:	9b80      	lw	a0,0(v1)
7f00aeec:	9a40      	lw	v0,0(v0)
7f00aeee:	4b08      	addiu	v1,8
7f00aef0:	d41a      	sw	a0,104(sp)
7f00aef2:	d72c      	sw	a3,176(sp)
7f00aef4:	d21c      	sw	v0,112(sp)
7f00aef6:	d32d      	sw	v1,180(sp)
7f00aef8:	a2c0      	lbu	a2,0(v0)
7f00aefa:	951a      	lw	a1,104(sp)
7f00aefc:	6f01      	li	a3,1
7f00aefe:	6a00      	li	v0,0
7f00af00:	040c      	addiu	a0,sp,48
7f00af02:	efeb      	neg	a3
7f00af04:	181e 2ae5 	jal	7f00ab94 <ksprintn>
7f00af08:	d204      	sw	v0,16(sp)
7f00af0a:	420f      	addiu	s0,v0,-1
7f00af0c:	1024      	b	7f00af56 <_doprnt+0x2ba>
7f00af0e:	9940      	lw	v0,0(s1)
7f00af10:	4aff      	addiu	v0,-1
7f00af12:	5200      	slti	v0,0
7f00af14:	d940      	sw	v0,0(s1)
7f00af16:	6104      	btnez	7f00af20 <_doprnt+0x284>
7f00af18:	9941      	lw	v0,4(s1)
7f00af1a:	a061      	lbu	v1,1(s0)
7f00af1c:	c260      	sb	v1,0(v0)
7f00af1e:	100e      	b	7f00af3c <_doprnt+0x2a0>
7f00af20:	a968      	lhu	v1,16(s1)
7f00af22:	6c80      	li	a0,128
7f00af24:	eb8c      	and	v1,a0
7f00af26:	230f      	beqz	v1,7f00af46 <_doprnt+0x2aa>
7f00af28:	9963      	lw	v1,12(s1)
7f00af2a:	ea4b      	neg	v0
7f00af2c:	ea62      	slt	v0,v1
7f00af2e:	600b      	bteqz	7f00af46 <_doprnt+0x2aa>
7f00af30:	8041      	lb	v0,1(s0)
7f00af32:	9961      	lw	v1,4(s1)
7f00af34:	720a      	cmpi	v0,10
7f00af36:	c340      	sb	v0,0(v1)
7f00af38:	9941      	lw	v0,4(s1)
7f00af3a:	6003      	bteqz	7f00af42 <_doprnt+0x2a6>
7f00af3c:	4a01      	addiu	v0,1
7f00af3e:	d941      	sw	v0,4(s1)
7f00af40:	1006      	b	7f00af4e <_doprnt+0x2b2>
7f00af42:	a280      	lbu	a0,0(v0)
7f00af44:	1001      	b	7f00af48 <_doprnt+0x2ac>
7f00af46:	a081      	lbu	a0,1(s0)
7f00af48:	181e 2788 	jal	7f009e20 <_flsbuf>
7f00af4c:	67b1      	move	a1,s1
7f00af4e:	951b      	lw	a1,108(sp)
7f00af50:	48ff      	addiu	s0,-1
7f00af52:	4d01      	addiu	a1,1
7f00af54:	d51b      	sw	a1,108(sp)
7f00af56:	a041      	lbu	v0,1(s0)
7f00af58:	2ada      	bnez	v0,7f00af0e <_doprnt+0x272>
7f00af5a:	931a      	lw	v1,104(sp)
7f00af5c:	f6df 230f 	beqz	v1,7f00acfe <_doprnt+0x62>
7f00af60:	931c      	lw	v1,112(sp)
7f00af62:	679d      	move	a0,sp
7f00af64:	c459      	sb	v0,25(a0)
7f00af66:	4b01      	addiu	v1,1
7f00af68:	105d      	b	7f00b024 <_doprnt+0x388>
7f00af6a:	951a      	lw	a1,104(sp)
7f00af6c:	4aff      	addiu	v0,-1
7f00af6e:	6c01      	li	a0,1
7f00af70:	eaa6      	srlv	a1,v0
7f00af72:	6745      	move	v0,a1
7f00af74:	ea8c      	and	v0,a0
7f00af76:	4301      	addiu	s0,v1,1
7f00af78:	2251      	beqz	v0,7f00b01c <_doprnt+0x380>
7f00af7a:	9980      	lw	a0,0(s1)
7f00af7c:	67bd      	move	a1,sp
7f00af7e:	a559      	lbu	v0,25(a1)
7f00af80:	4cff      	addiu	a0,-1
7f00af82:	5400      	slti	a0,0
7f00af84:	d980      	sw	a0,0(s1)
7f00af86:	6108      	btnez	7f00af98 <_doprnt+0x2fc>
7f00af88:	9981      	lw	a0,4(s1)
7f00af8a:	6d3c      	li	a1,60
7f00af8c:	2201      	beqz	v0,7f00af90 <_doprnt+0x2f4>
7f00af8e:	6d2c      	li	a1,44
7f00af90:	c4a0      	sb	a1,0(a0)
7f00af92:	4c01      	addiu	a0,1
7f00af94:	d981      	sw	a0,4(s1)
7f00af96:	1036      	b	7f00b004 <_doprnt+0x368>
7f00af98:	a9a8      	lhu	a1,16(s1)
7f00af9a:	6e80      	li	a2,128
7f00af9c:	edcc      	and	a1,a2
7f00af9e:	250d      	beqz	a1,7f00afba <_doprnt+0x31e>
7f00afa0:	99a3      	lw	a1,12(s1)
7f00afa2:	ec8b      	neg	a0
7f00afa4:	eca2      	slt	a0,a1
7f00afa6:	6009      	bteqz	7f00afba <_doprnt+0x31e>
7f00afa8:	99a1      	lw	a1,4(s1)
7f00afaa:	6c3c      	li	a0,60
7f00afac:	2201      	beqz	v0,7f00afb0 <_doprnt+0x314>
7f00afae:	6c2c      	li	a0,44
7f00afb0:	c580      	sb	a0,0(a1)
7f00afb2:	9941      	lw	v0,4(s1)
7f00afb4:	4a01      	addiu	v0,1
7f00afb6:	d941      	sw	v0,4(s1)
7f00afb8:	1025      	b	7f00b004 <_doprnt+0x368>
7f00afba:	6c3c      	li	a0,60
7f00afbc:	2201      	beqz	v0,7f00afc0 <_doprnt+0x324>
7f00afbe:	6c2c      	li	a0,44
7f00afc0:	67b1      	move	a1,s1
7f00afc2:	181e 2788 	jal	7f009e20 <_flsbuf>
7f00afc6:	d327      	sw	v1,156(sp)
7f00afc8:	9327      	lw	v1,156(sp)
7f00afca:	101c      	b	7f00b004 <_doprnt+0x368>
7f00afcc:	9940      	lw	v0,0(s1)
7f00afce:	4aff      	addiu	v0,-1
7f00afd0:	5200      	slti	v0,0
7f00afd2:	d940      	sw	v0,0(s1)
7f00afd4:	6103      	btnez	7f00afdc <_doprnt+0x340>
7f00afd6:	9941      	lw	v0,4(s1)
7f00afd8:	c280      	sb	a0,0(v0)
7f00afda:	100b      	b	7f00aff2 <_doprnt+0x356>
7f00afdc:	a9a8      	lhu	a1,16(s1)
7f00afde:	6e80      	li	a2,128
7f00afe0:	edcc      	and	a1,a2
7f00afe2:	250a      	beqz	a1,7f00aff8 <_doprnt+0x35c>
7f00afe4:	99a3      	lw	a1,12(s1)
7f00afe6:	ea4b      	neg	v0
7f00afe8:	eaa2      	slt	v0,a1
7f00afea:	6006      	bteqz	7f00aff8 <_doprnt+0x35c>
7f00afec:	9941      	lw	v0,4(s1)
7f00afee:	c280      	sb	a0,0(v0)
7f00aff0:	9941      	lw	v0,4(s1)
7f00aff2:	4a01      	addiu	v0,1
7f00aff4:	d941      	sw	v0,4(s1)
7f00aff6:	1005      	b	7f00b002 <_doprnt+0x366>
7f00aff8:	67b1      	move	a1,s1
7f00affa:	181e 2788 	jal	7f009e20 <_flsbuf>
7f00affe:	d327      	sw	v1,156(sp)
7f00b000:	9327      	lw	v1,156(sp)
7f00b002:	4801      	addiu	s0,1
7f00b004:	941b      	lw	a0,108(sp)
7f00b006:	e46b      	subu	v0,a0,v1
7f00b008:	a080      	lbu	a0,0(s0)
7f00b00a:	e049      	addu	v0,s0,v0
7f00b00c:	5421      	slti	a0,33
7f00b00e:	60de      	bteqz	7f00afcc <_doprnt+0x330>
7f00b010:	6b01      	li	v1,1
7f00b012:	67bd      	move	a1,sp
7f00b014:	c579      	sb	v1,25(a1)
7f00b016:	d21b      	sw	v0,108(sp)
7f00b018:	1004      	b	7f00b022 <_doprnt+0x386>
7f00b01a:	4801      	addiu	s0,1
7f00b01c:	a040      	lbu	v0,0(s0)
7f00b01e:	5a21      	sltiu	v0,33
7f00b020:	60fc      	bteqz	7f00b01a <_doprnt+0x37e>
7f00b022:	6770      	move	v1,s0
7f00b024:	a340      	lbu	v0,0(v1)
7f00b026:	2aa1      	bnez	v0,7f00af6a <_doprnt+0x2ce>
7f00b028:	677d      	move	v1,sp
7f00b02a:	a359      	lbu	v0,25(v1)
7f00b02c:	f67f 2207 	beqz	v0,7f00acfe <_doprnt+0x62>
7f00b030:	9940      	lw	v0,0(s1)
7f00b032:	4aff      	addiu	v0,-1
7f00b034:	5200      	slti	v0,0
7f00b036:	d940      	sw	v0,0(s1)
7f00b038:	6103      	btnez	7f00b040 <_doprnt+0x3a4>
7f00b03a:	9941      	lw	v0,4(s1)
7f00b03c:	6b3e      	li	v1,62
7f00b03e:	120f      	b	7f00b45e <_doprnt+0x7c2>
7f00b040:	a968      	lhu	v1,16(s1)
7f00b042:	6c80      	li	a0,128
7f00b044:	eb8c      	and	v1,a0
7f00b046:	2307      	beqz	v1,7f00b056 <_doprnt+0x3ba>
7f00b048:	9963      	lw	v1,12(s1)
7f00b04a:	ea4b      	neg	v0
7f00b04c:	ea62      	slt	v0,v1
7f00b04e:	6003      	bteqz	7f00b056 <_doprnt+0x3ba>
7f00b050:	9941      	lw	v0,4(s1)
7f00b052:	6b3e      	li	v1,62
7f00b054:	1210      	b	7f00b476 <_doprnt+0x7da>
7f00b056:	6c3e      	li	a0,62
7f00b058:	f0c1 1005 	b	7f00c1e6 <_doprnt+0x154a>
7f00b05c:	d51e      	sw	a1,120(sp)
7f00b05e:	941e      	lw	a0,120(sp)
7f00b060:	67a8      	move	a1,t0
7f00b062:	6749      	move	v0,t1
7f00b064:	d51c      	sw	a1,112(sp)
7f00b066:	d72c      	sw	a3,176(sp)
7f00b068:	d22d      	sw	v0,180(sp)
7f00b06a:	6769      	move	v1,t1
7f00b06c:	2c2b      	bnez	a0,7f00b0c4 <_doprnt+0x428>
7f00b06e:	5501      	slti	a1,1
7f00b070:	6708      	move	s0,t0
7f00b072:	6020      	bteqz	7f00b0b4 <_doprnt+0x418>
7f00b074:	1027      	b	7f00b0c4 <_doprnt+0x428>
7f00b076:	9940      	lw	v0,0(s1)
7f00b078:	4aff      	addiu	v0,-1
7f00b07a:	5200      	slti	v0,0
7f00b07c:	d940      	sw	v0,0(s1)
7f00b07e:	6104      	btnez	7f00b088 <_doprnt+0x3ec>
7f00b080:	9941      	lw	v0,4(s1)
7f00b082:	6c20      	li	a0,32
7f00b084:	c280      	sb	a0,0(v0)
7f00b086:	100c      	b	7f00b0a0 <_doprnt+0x404>
7f00b088:	a988      	lhu	a0,16(s1)
7f00b08a:	6d80      	li	a1,128
7f00b08c:	ecac      	and	a0,a1
7f00b08e:	240b      	beqz	a0,7f00b0a6 <_doprnt+0x40a>
7f00b090:	9983      	lw	a0,12(s1)
7f00b092:	ea4b      	neg	v0
7f00b094:	ea82      	slt	v0,a0
7f00b096:	6007      	bteqz	7f00b0a6 <_doprnt+0x40a>
7f00b098:	9941      	lw	v0,4(s1)
7f00b09a:	6c20      	li	a0,32
7f00b09c:	c280      	sb	a0,0(v0)
7f00b09e:	9941      	lw	v0,4(s1)
7f00b0a0:	4a01      	addiu	v0,1
7f00b0a2:	d941      	sw	v0,4(s1)
7f00b0a4:	1006      	b	7f00b0b2 <_doprnt+0x416>
7f00b0a6:	6c20      	li	a0,32
7f00b0a8:	67b1      	move	a1,s1
7f00b0aa:	181e 2788 	jal	7f009e20 <_flsbuf>
7f00b0ae:	d327      	sw	v1,156(sp)
7f00b0b0:	9327      	lw	v1,156(sp)
7f00b0b2:	48ff      	addiu	s0,-1
7f00b0b4:	28e0      	bnez	s0,7f00b076 <_doprnt+0x3da>
7f00b0b6:	951b      	lw	a1,108(sp)
7f00b0b8:	921c      	lw	v0,112(sp)
7f00b0ba:	6c01      	li	a0,1
7f00b0bc:	ec8b      	neg	a0
7f00b0be:	e555      	addu	a1,v0
7f00b0c0:	d51b      	sw	a1,108(sp)
7f00b0c2:	d41c      	sw	a0,112(sp)
7f00b0c4:	9940      	lw	v0,0(s1)
7f00b0c6:	952d      	lw	a1,180(sp)
7f00b0c8:	4aff      	addiu	v0,-1
7f00b0ca:	d940      	sw	v0,0(s1)
7f00b0cc:	5200      	slti	v0,0
7f00b0ce:	9d80      	lw	a0,0(a1)
7f00b0d0:	6105      	btnez	7f00b0dc <_doprnt+0x440>
7f00b0d2:	9941      	lw	v0,4(s1)
7f00b0d4:	4d04      	addiu	a1,4
7f00b0d6:	d52d      	sw	a1,180(sp)
7f00b0d8:	c280      	sb	a0,0(v0)
7f00b0da:	1011      	b	7f00b0fe <_doprnt+0x462>
7f00b0dc:	a9a8      	lhu	a1,16(s1)
7f00b0de:	6e80      	li	a2,128
7f00b0e0:	edcc      	and	a1,a2
7f00b0e2:	2512      	beqz	a1,7f00b108 <_doprnt+0x46c>
7f00b0e4:	99a3      	lw	a1,12(s1)
7f00b0e6:	ea4b      	neg	v0
7f00b0e8:	eaa2      	slt	v0,a1
7f00b0ea:	600e      	bteqz	7f00b108 <_doprnt+0x46c>
7f00b0ec:	922d      	lw	v0,180(sp)
7f00b0ee:	4a04      	addiu	v0,4
7f00b0f0:	d22d      	sw	v0,180(sp)
7f00b0f2:	8340      	lb	v0,0(v1)
7f00b0f4:	9961      	lw	v1,4(s1)
7f00b0f6:	720a      	cmpi	v0,10
7f00b0f8:	c340      	sb	v0,0(v1)
7f00b0fa:	9941      	lw	v0,4(s1)
7f00b0fc:	6003      	bteqz	7f00b104 <_doprnt+0x468>
7f00b0fe:	4a01      	addiu	v0,1
7f00b100:	d941      	sw	v0,4(s1)
7f00b102:	1009      	b	7f00b116 <_doprnt+0x47a>
7f00b104:	a280      	lbu	a0,0(v0)
7f00b106:	1004      	b	7f00b110 <_doprnt+0x474>
7f00b108:	932d      	lw	v1,180(sp)
7f00b10a:	ec11      	zeb	a0
7f00b10c:	4b04      	addiu	v1,4
7f00b10e:	d32d      	sw	v1,180(sp)
7f00b110:	181e 2788 	jal	7f009e20 <_flsbuf>
7f00b114:	67b1      	move	a1,s1
7f00b116:	941b      	lw	a0,108(sp)
7f00b118:	951e      	lw	a1,120(sp)
7f00b11a:	4c01      	addiu	a0,1
7f00b11c:	d41b      	sw	a0,108(sp)
7f00b11e:	f5ff 250e 	beqz	a1,7f00acfe <_doprnt+0x62>
7f00b122:	921c      	lw	v0,112(sp)
7f00b124:	5201      	slti	v0,1
7f00b126:	6702      	move	s0,v0
7f00b128:	601e      	bteqz	7f00b166 <_doprnt+0x4ca>
7f00b12a:	15e9      	b	7f00acfe <_doprnt+0x62>
7f00b12c:	9940      	lw	v0,0(s1)
7f00b12e:	4aff      	addiu	v0,-1
7f00b130:	5200      	slti	v0,0
7f00b132:	d940      	sw	v0,0(s1)
7f00b134:	6104      	btnez	7f00b13e <_doprnt+0x4a2>
7f00b136:	9941      	lw	v0,4(s1)
7f00b138:	6b20      	li	v1,32
7f00b13a:	c260      	sb	v1,0(v0)
7f00b13c:	100c      	b	7f00b156 <_doprnt+0x4ba>
7f00b13e:	a968      	lhu	v1,16(s1)
7f00b140:	6c80      	li	a0,128
7f00b142:	eb8c      	and	v1,a0
7f00b144:	230b      	beqz	v1,7f00b15c <_doprnt+0x4c0>
7f00b146:	9963      	lw	v1,12(s1)
7f00b148:	ea4b      	neg	v0
7f00b14a:	ea62      	slt	v0,v1
7f00b14c:	6007      	bteqz	7f00b15c <_doprnt+0x4c0>
7f00b14e:	9941      	lw	v0,4(s1)
7f00b150:	6b20      	li	v1,32
7f00b152:	c260      	sb	v1,0(v0)
7f00b154:	9941      	lw	v0,4(s1)
7f00b156:	4a01      	addiu	v0,1
7f00b158:	d941      	sw	v0,4(s1)
7f00b15a:	1004      	b	7f00b164 <_doprnt+0x4c8>
7f00b15c:	6c20      	li	a0,32
7f00b15e:	181e 2788 	jal	7f009e20 <_flsbuf>
7f00b162:	67b1      	move	a1,s1
7f00b164:	48ff      	addiu	s0,-1
7f00b166:	28e2      	bnez	s0,7f00b12c <_doprnt+0x490>
7f00b168:	931b      	lw	v1,108(sp)
7f00b16a:	941c      	lw	a0,112(sp)
7f00b16c:	e38d      	addu	v1,a0
7f00b16e:	d31b      	sw	v1,108(sp)
7f00b170:	15c6      	b	7f00acfe <_doprnt+0x62>
7f00b172:	d51e      	sw	a1,120(sp)
7f00b174:	6749      	move	v0,t1
7f00b176:	67a8      	move	a1,t0
7f00b178:	d51c      	sw	a1,112(sp)
7f00b17a:	d61a      	sw	a2,104(sp)
7f00b17c:	d72c      	sw	a3,176(sp)
7f00b17e:	d22d      	sw	v0,180(sp)
7f00b180:	200d      	beqz	s0,7f00b19c <_doprnt+0x500>
7f00b182:	1007      	b	7f00b192 <_doprnt+0x4f6>
7f00b184:	6768      	move	v1,t0
7f00b186:	6789      	move	a0,t1
7f00b188:	d51e      	sw	a1,120(sp)
7f00b18a:	d31c      	sw	v1,112(sp)
7f00b18c:	d61a      	sw	a2,104(sp)
7f00b18e:	d72c      	sw	a3,176(sp)
7f00b190:	d42d      	sw	a0,180(sp)
7f00b192:	922d      	lw	v0,180(sp)
7f00b194:	952d      	lw	a1,180(sp)
7f00b196:	4a04      	addiu	v0,4
7f00b198:	9d00      	lw	s0,0(a1)
7f00b19a:	1004      	b	7f00b1a4 <_doprnt+0x508>
7f00b19c:	932d      	lw	v1,180(sp)
7f00b19e:	922d      	lw	v0,180(sp)
7f00b1a0:	9b00      	lw	s0,0(v1)
7f00b1a2:	4a04      	addiu	v0,4
7f00b1a4:	9423      	lw	a0,140(sp)
7f00b1a6:	f021 2412 	beqz	a0,7f00c20e <_doprnt+0x1572>
7f00b1aa:	f021 1012 	b	7f00c212 <_doprnt+0x1576>
7f00b1ae:	6801      	li	s0,1
7f00b1b0:	15d1      	b	7f00ad54 <_doprnt+0xb8>
7f00b1b2:	6749      	move	v0,t1
7f00b1b4:	d51e      	sw	a1,120(sp)
7f00b1b6:	67a8      	move	a1,t0
7f00b1b8:	d22d      	sw	v0,180(sp)
7f00b1ba:	d51c      	sw	a1,112(sp)
7f00b1bc:	d61a      	sw	a2,104(sp)
7f00b1be:	d72c      	sw	a3,176(sp)
7f00b1c0:	4a04      	addiu	v0,4
7f00b1c2:	2006      	beqz	s0,7f00b1d0 <_doprnt+0x534>
7f00b1c4:	6769      	move	v1,t1
7f00b1c6:	6c00      	li	a0,0
7f00b1c8:	9b00      	lw	s0,0(v1)
7f00b1ca:	d22d      	sw	v0,180(sp)
7f00b1cc:	d41d      	sw	a0,116(sp)
7f00b1ce:	1005      	b	7f00b1da <_doprnt+0x53e>
7f00b1d0:	952d      	lw	a1,180(sp)
7f00b1d2:	9d00      	lw	s0,0(a1)
7f00b1d4:	d22d      	sw	v0,180(sp)
7f00b1d6:	6a00      	li	v0,0
7f00b1d8:	d21d      	sw	v0,116(sp)
7f00b1da:	6b08      	li	v1,8
7f00b1dc:	11c3      	b	7f00b564 <_doprnt+0x8c8>
7f00b1de:	6789      	move	a0,t1
7f00b1e0:	9c00      	lw	s0,0(a0)
7f00b1e2:	6768      	move	v1,t0
7f00b1e4:	d31c      	sw	v1,112(sp)
7f00b1e6:	6769      	move	v1,t1
7f00b1e8:	d51e      	sw	a1,120(sp)
7f00b1ea:	674b      	move	v0,t3
7f00b1ec:	d61a      	sw	a2,104(sp)
7f00b1ee:	d72c      	sw	a3,176(sp)
7f00b1f0:	4b04      	addiu	v1,4
7f00b1f2:	2804      	bnez	s0,7f00b1fc <_doprnt+0x560>
7f00b1f4:	f022 b610 	lw	a2,7f00c224 <_doprnt+0x1588>
7f00b1f8:	d32d      	sw	v1,180(sp)
7f00b1fa:	102e      	b	7f00b258 <_doprnt+0x5bc>
7f00b1fc:	921c      	lw	v0,112(sp)
7f00b1fe:	d32d      	sw	v1,180(sp)
7f00b200:	6b00      	li	v1,0
7f00b202:	5a01      	sltiu	v0,1
7f00b204:	6758      	move	v0,t8
7f00b206:	d220      	sw	v0,128(sp)
7f00b208:	d31d      	sw	v1,116(sp)
7f00b20a:	1184      	b	7f00b514 <_doprnt+0x878>
7f00b20c:	d51e      	sw	a1,120(sp)
7f00b20e:	6788      	move	a0,t0
7f00b210:	67a9      	move	a1,t1
7f00b212:	6749      	move	v0,t1
7f00b214:	d41c      	sw	a0,112(sp)
7f00b216:	d61a      	sw	a2,104(sp)
7f00b218:	d72c      	sw	a3,176(sp)
7f00b21a:	d52d      	sw	a1,180(sp)
7f00b21c:	4a04      	addiu	v0,4
7f00b21e:	2006      	beqz	s0,7f00b22c <_doprnt+0x590>
7f00b220:	9d00      	lw	s0,0(a1)
7f00b222:	d22d      	sw	v0,180(sp)
7f00b224:	6a00      	li	v0,0
7f00b226:	d21d      	sw	v0,116(sp)
7f00b228:	6b0a      	li	v1,10
7f00b22a:	118d      	b	7f00b546 <_doprnt+0x8aa>
7f00b22c:	932d      	lw	v1,180(sp)
7f00b22e:	9423      	lw	a0,140(sp)
7f00b230:	9b00      	lw	s0,0(v1)
7f00b232:	f7e0 2c0e 	bnez	a0,7f00c212 <_doprnt+0x1576>
7f00b236:	d22d      	sw	v0,180(sp)
7f00b238:	f7e0 1001 	b	7f00c1fe <_doprnt+0x1562>
7f00b23c:	6768      	move	v1,t0
7f00b23e:	d31c      	sw	v1,112(sp)
7f00b240:	6769      	move	v1,t1
7f00b242:	d61a      	sw	a2,104(sp)
7f00b244:	9bc0      	lw	a2,0(v1)
7f00b246:	6789      	move	a0,t1
7f00b248:	4c04      	addiu	a0,4
7f00b24a:	d51e      	sw	a1,120(sp)
7f00b24c:	674b      	move	v0,t3
7f00b24e:	d72c      	sw	a3,176(sp)
7f00b250:	d42d      	sw	a0,180(sp)
7f00b252:	2e02      	bnez	a2,7f00b258 <_doprnt+0x5bc>
7f00b254:	f7c1 b614 	lw	a2,7f00c228 <_doprnt+0x158c>
7f00b258:	6800      	li	s0,0
7f00b25a:	2a08      	bnez	v0,7f00b26c <_doprnt+0x5d0>
7f00b25c:	6786      	move	a0,a2
7f00b25e:	1c1e 2a81 	jalx	7f00aa04 <strlen>
7f00b262:	d626      	sw	a2,152(sp)
7f00b264:	6702      	move	s0,v0
7f00b266:	9626      	lw	a2,152(sp)
7f00b268:	1007      	b	7f00b278 <_doprnt+0x5dc>
7f00b26a:	4801      	addiu	s0,1
7f00b26c:	951a      	lw	a1,104(sp)
7f00b26e:	e8a2      	slt	s0,a1
7f00b270:	6003      	bteqz	7f00b278 <_doprnt+0x5dc>
7f00b272:	e609      	addu	v0,a2,s0
7f00b274:	a240      	lbu	v0,0(v0)
7f00b276:	2af9      	bnez	v0,7f00b26a <_doprnt+0x5ce>
7f00b278:	921c      	lw	v0,112(sp)
7f00b27a:	941e      	lw	a0,120(sp)
7f00b27c:	e20f      	subu	v1,v0,s0
7f00b27e:	2c03      	bnez	a0,7f00b286 <_doprnt+0x5ea>
7f00b280:	5301      	slti	v1,1
7f00b282:	67e3      	move	a3,v1
7f00b284:	6028      	bteqz	7f00b2d6 <_doprnt+0x63a>
7f00b286:	4e01      	addiu	a2,1
7f00b288:	67f0      	move	a3,s0
7f00b28a:	d01a      	sw	s0,104(sp)
7f00b28c:	6706      	move	s0,a2
7f00b28e:	105a      	b	7f00b344 <_doprnt+0x6a8>
7f00b290:	9940      	lw	v0,0(s1)
7f00b292:	4aff      	addiu	v0,-1
7f00b294:	5200      	slti	v0,0
7f00b296:	d940      	sw	v0,0(s1)
7f00b298:	6104      	btnez	7f00b2a2 <_doprnt+0x606>
7f00b29a:	9941      	lw	v0,4(s1)
7f00b29c:	6c20      	li	a0,32
7f00b29e:	c280      	sb	a0,0(v0)
7f00b2a0:	100c      	b	7f00b2ba <_doprnt+0x61e>
7f00b2a2:	a988      	lhu	a0,16(s1)
7f00b2a4:	6d80      	li	a1,128
7f00b2a6:	ecac      	and	a0,a1
7f00b2a8:	240b      	beqz	a0,7f00b2c0 <_doprnt+0x624>
7f00b2aa:	9983      	lw	a0,12(s1)
7f00b2ac:	ea4b      	neg	v0
7f00b2ae:	ea82      	slt	v0,a0
7f00b2b0:	6007      	bteqz	7f00b2c0 <_doprnt+0x624>
7f00b2b2:	9941      	lw	v0,4(s1)
7f00b2b4:	6c20      	li	a0,32
7f00b2b6:	c280      	sb	a0,0(v0)
7f00b2b8:	9941      	lw	v0,4(s1)
7f00b2ba:	4a01      	addiu	v0,1
7f00b2bc:	d941      	sw	v0,4(s1)
7f00b2be:	100a      	b	7f00b2d4 <_doprnt+0x638>
7f00b2c0:	6c20      	li	a0,32
7f00b2c2:	67b1      	move	a1,s1
7f00b2c4:	d327      	sw	v1,156(sp)
7f00b2c6:	d626      	sw	a2,152(sp)
7f00b2c8:	181e 2788 	jal	7f009e20 <_flsbuf>
7f00b2cc:	d725      	sw	a3,148(sp)
7f00b2ce:	9725      	lw	a3,148(sp)
7f00b2d0:	9626      	lw	a2,152(sp)
7f00b2d2:	9327      	lw	v1,156(sp)
7f00b2d4:	4fff      	addiu	a3,-1
7f00b2d6:	2fdc      	bnez	a3,7f00b290 <_doprnt+0x5f4>
7f00b2d8:	951b      	lw	a1,108(sp)
7f00b2da:	e575      	addu	a1,v1
7f00b2dc:	6b01      	li	v1,1
7f00b2de:	d51b      	sw	a1,108(sp)
7f00b2e0:	eb6b      	neg	v1
7f00b2e2:	17d1      	b	7f00b286 <_doprnt+0x5ea>
7f00b2e4:	9940      	lw	v0,0(s1)
7f00b2e6:	4aff      	addiu	v0,-1
7f00b2e8:	5200      	slti	v0,0
7f00b2ea:	d940      	sw	v0,0(s1)
7f00b2ec:	6105      	btnez	7f00b2f8 <_doprnt+0x65c>
7f00b2ee:	9941      	lw	v0,4(s1)
7f00b2f0:	f7ff a09f 	lbu	a0,-1(s0)
7f00b2f4:	c280      	sb	a0,0(v0)
7f00b2f6:	100f      	b	7f00b316 <_doprnt+0x67a>
7f00b2f8:	a988      	lhu	a0,16(s1)
7f00b2fa:	6d80      	li	a1,128
7f00b2fc:	ecac      	and	a0,a1
7f00b2fe:	2417      	beqz	a0,7f00b32e <_doprnt+0x692>
7f00b300:	9983      	lw	a0,12(s1)
7f00b302:	ea4b      	neg	v0
7f00b304:	ea82      	slt	v0,a0
7f00b306:	6013      	bteqz	7f00b32e <_doprnt+0x692>
7f00b308:	f7ff 805f 	lb	v0,-1(s0)
7f00b30c:	9981      	lw	a0,4(s1)
7f00b30e:	720a      	cmpi	v0,10
7f00b310:	c440      	sb	v0,0(a0)
7f00b312:	9941      	lw	v0,4(s1)
7f00b314:	6003      	bteqz	7f00b31c <_doprnt+0x680>
7f00b316:	4a01      	addiu	v0,1
7f00b318:	d941      	sw	v0,4(s1)
7f00b31a:	1012      	b	7f00b340 <_doprnt+0x6a4>
7f00b31c:	a280      	lbu	a0,0(v0)
7f00b31e:	67b1      	move	a1,s1
7f00b320:	d327      	sw	v1,156(sp)
7f00b322:	181e 2788 	jal	7f009e20 <_flsbuf>
7f00b326:	d725      	sw	a3,148(sp)
7f00b328:	9327      	lw	v1,156(sp)
7f00b32a:	9725      	lw	a3,148(sp)
7f00b32c:	1009      	b	7f00b340 <_doprnt+0x6a4>
7f00b32e:	f7ff a09f 	lbu	a0,-1(s0)
7f00b332:	67b1      	move	a1,s1
7f00b334:	d327      	sw	v1,156(sp)
7f00b336:	181e 2788 	jal	7f009e20 <_flsbuf>
7f00b33a:	d725      	sw	a3,148(sp)
7f00b33c:	9725      	lw	a3,148(sp)
7f00b33e:	9327      	lw	v1,156(sp)
7f00b340:	4fff      	addiu	a3,-1
7f00b342:	4801      	addiu	s0,1
7f00b344:	2fcf      	bnez	a3,7f00b2e4 <_doprnt+0x648>
7f00b346:	921b      	lw	v0,108(sp)
7f00b348:	901a      	lw	s0,104(sp)
7f00b34a:	941e      	lw	a0,120(sp)
7f00b34c:	e209      	addu	v0,s0
7f00b34e:	d21b      	sw	v0,108(sp)
7f00b350:	f4df 2415 	beqz	a0,7f00acfe <_doprnt+0x62>
7f00b354:	5301      	slti	v1,1
7f00b356:	6703      	move	s0,v1
7f00b358:	6020      	bteqz	7f00b39a <_doprnt+0x6fe>
7f00b35a:	14d1      	b	7f00acfe <_doprnt+0x62>
7f00b35c:	9940      	lw	v0,0(s1)
7f00b35e:	4aff      	addiu	v0,-1
7f00b360:	5200      	slti	v0,0
7f00b362:	d940      	sw	v0,0(s1)
7f00b364:	6104      	btnez	7f00b36e <_doprnt+0x6d2>
7f00b366:	9941      	lw	v0,4(s1)
7f00b368:	6c20      	li	a0,32
7f00b36a:	c280      	sb	a0,0(v0)
7f00b36c:	100c      	b	7f00b386 <_doprnt+0x6ea>
7f00b36e:	a988      	lhu	a0,16(s1)
7f00b370:	6d80      	li	a1,128
7f00b372:	ecac      	and	a0,a1
7f00b374:	240b      	beqz	a0,7f00b38c <_doprnt+0x6f0>
7f00b376:	9983      	lw	a0,12(s1)
7f00b378:	ea4b      	neg	v0
7f00b37a:	ea82      	slt	v0,a0
7f00b37c:	6007      	bteqz	7f00b38c <_doprnt+0x6f0>
7f00b37e:	9941      	lw	v0,4(s1)
7f00b380:	6c20      	li	a0,32
7f00b382:	c280      	sb	a0,0(v0)
7f00b384:	9941      	lw	v0,4(s1)
7f00b386:	4a01      	addiu	v0,1
7f00b388:	d941      	sw	v0,4(s1)
7f00b38a:	1006      	b	7f00b398 <_doprnt+0x6fc>
7f00b38c:	6c20      	li	a0,32
7f00b38e:	67b1      	move	a1,s1
7f00b390:	181e 2788 	jal	7f009e20 <_flsbuf>
7f00b394:	d327      	sw	v1,156(sp)
7f00b396:	9327      	lw	v1,156(sp)
7f00b398:	48ff      	addiu	s0,-1
7f00b39a:	28e0      	bnez	s0,7f00b35c <_doprnt+0x6c0>
7f00b39c:	951b      	lw	a1,108(sp)
7f00b39e:	e575      	addu	a1,v1
7f00b3a0:	14ad      	b	7f00acfc <_doprnt+0x60>
7f00b3a2:	6748      	move	v0,t0
7f00b3a4:	6769      	move	v1,t1
7f00b3a6:	d21c      	sw	v0,112(sp)
7f00b3a8:	6749      	move	v0,t1
7f00b3aa:	d32d      	sw	v1,180(sp)
7f00b3ac:	d51e      	sw	a1,120(sp)
7f00b3ae:	d61a      	sw	a2,104(sp)
7f00b3b0:	d72c      	sw	a3,176(sp)
7f00b3b2:	4264      	addiu	v1,v0,4
7f00b3b4:	2074      	beqz	s0,7f00b49e <_doprnt+0x802>
7f00b3b6:	9a00      	lw	s0,0(v0)
7f00b3b8:	d32d      	sw	v1,180(sp)
7f00b3ba:	4041      	addiu	v0,s0,1
7f00b3bc:	2a65      	bnez	v0,7f00b488 <_doprnt+0x7ec>
7f00b3be:	941e      	lw	a0,120(sp)
7f00b3c0:	2440      	beqz	a0,7f00b442 <_doprnt+0x7a6>
7f00b3c2:	9940      	lw	v0,0(s1)
7f00b3c4:	4aff      	addiu	v0,-1
7f00b3c6:	5200      	slti	v0,0
7f00b3c8:	d940      	sw	v0,0(s1)
7f00b3ca:	6104      	btnez	7f00b3d4 <_doprnt+0x738>
7f00b3cc:	9941      	lw	v0,4(s1)
7f00b3ce:	6b2d      	li	v1,45
7f00b3d0:	c260      	sb	v1,0(v0)
7f00b3d2:	100c      	b	7f00b3ec <_doprnt+0x750>
7f00b3d4:	a968      	lhu	v1,16(s1)
7f00b3d6:	6c80      	li	a0,128
7f00b3d8:	eb8c      	and	v1,a0
7f00b3da:	230b      	beqz	v1,7f00b3f2 <_doprnt+0x756>
7f00b3dc:	9963      	lw	v1,12(s1)
7f00b3de:	ea4b      	neg	v0
7f00b3e0:	ea62      	slt	v0,v1
7f00b3e2:	6007      	bteqz	7f00b3f2 <_doprnt+0x756>
7f00b3e4:	9941      	lw	v0,4(s1)
7f00b3e6:	6b2d      	li	v1,45
7f00b3e8:	c260      	sb	v1,0(v0)
7f00b3ea:	9941      	lw	v0,4(s1)
7f00b3ec:	4a01      	addiu	v0,1
7f00b3ee:	d941      	sw	v0,4(s1)
7f00b3f0:	1004      	b	7f00b3fa <_doprnt+0x75e>
7f00b3f2:	6c2d      	li	a0,45
7f00b3f4:	181e 2788 	jal	7f009e20 <_flsbuf>
7f00b3f8:	67b1      	move	a1,s1
7f00b3fa:	951b      	lw	a1,108(sp)
7f00b3fc:	4d01      	addiu	a1,1
7f00b3fe:	d51b      	sw	a1,108(sp)
7f00b400:	1020      	b	7f00b442 <_doprnt+0x7a6>
7f00b402:	9940      	lw	v0,0(s1)
7f00b404:	4aff      	addiu	v0,-1
7f00b406:	5200      	slti	v0,0
7f00b408:	d940      	sw	v0,0(s1)
7f00b40a:	6104      	btnez	7f00b414 <_doprnt+0x778>
7f00b40c:	9941      	lw	v0,4(s1)
7f00b40e:	6b20      	li	v1,32
7f00b410:	c260      	sb	v1,0(v0)
7f00b412:	100c      	b	7f00b42c <_doprnt+0x790>
7f00b414:	a968      	lhu	v1,16(s1)
7f00b416:	6c80      	li	a0,128
7f00b418:	eb8c      	and	v1,a0
7f00b41a:	230b      	beqz	v1,7f00b432 <_doprnt+0x796>
7f00b41c:	9963      	lw	v1,12(s1)
7f00b41e:	ea4b      	neg	v0
7f00b420:	ea62      	slt	v0,v1
7f00b422:	6007      	bteqz	7f00b432 <_doprnt+0x796>
7f00b424:	9941      	lw	v0,4(s1)
7f00b426:	6b20      	li	v1,32
7f00b428:	c260      	sb	v1,0(v0)
7f00b42a:	9941      	lw	v0,4(s1)
7f00b42c:	4a01      	addiu	v0,1
7f00b42e:	d941      	sw	v0,4(s1)
7f00b430:	1004      	b	7f00b43a <_doprnt+0x79e>
7f00b432:	6c20      	li	a0,32
7f00b434:	181e 2788 	jal	7f009e20 <_flsbuf>
7f00b438:	67b1      	move	a1,s1
7f00b43a:	921b      	lw	v0,108(sp)
7f00b43c:	4a01      	addiu	v0,1
7f00b43e:	d21b      	sw	v0,108(sp)
7f00b440:	1001      	b	7f00b444 <_doprnt+0x7a8>
7f00b442:	901c      	lw	s0,112(sp)
7f00b444:	48ff      	addiu	s0,-1
7f00b446:	5001      	slti	s0,1
7f00b448:	60dc      	bteqz	7f00b402 <_doprnt+0x766>
7f00b44a:	931e      	lw	v1,120(sp)
7f00b44c:	f45f 2b17 	bnez	v1,7f00acfe <_doprnt+0x62>
7f00b450:	9940      	lw	v0,0(s1)
7f00b452:	4aff      	addiu	v0,-1
7f00b454:	5200      	slti	v0,0
7f00b456:	d940      	sw	v0,0(s1)
7f00b458:	6104      	btnez	7f00b462 <_doprnt+0x7c6>
7f00b45a:	9941      	lw	v0,4(s1)
7f00b45c:	6b2d      	li	v1,45
7f00b45e:	c260      	sb	v1,0(v0)
7f00b460:	100c      	b	7f00b47a <_doprnt+0x7de>
7f00b462:	a968      	lhu	v1,16(s1)
7f00b464:	6c80      	li	a0,128
7f00b466:	eb8c      	and	v1,a0
7f00b468:	230c      	beqz	v1,7f00b482 <_doprnt+0x7e6>
7f00b46a:	9963      	lw	v1,12(s1)
7f00b46c:	ea4b      	neg	v0
7f00b46e:	ea62      	slt	v0,v1
7f00b470:	6008      	bteqz	7f00b482 <_doprnt+0x7e6>
7f00b472:	9941      	lw	v0,4(s1)
7f00b474:	6b2d      	li	v1,45
7f00b476:	c260      	sb	v1,0(v0)
7f00b478:	9941      	lw	v0,4(s1)
7f00b47a:	4a01      	addiu	v0,1
7f00b47c:	d941      	sw	v0,4(s1)
7f00b47e:	f6a0 1015 	b	7f00c1ec <_doprnt+0x1550>
7f00b482:	6c2d      	li	a0,45
7f00b484:	f6a0 100f 	b	7f00c1e6 <_doprnt+0x154a>
7f00b488:	f7ff 581e 	sltiu	s0,-2
7f00b48c:	f6a0 6117 	btnez	7f00c1fe <_doprnt+0x1562>
7f00b490:	6a3e      	li	v0,62
7f00b492:	67bd      	move	a1,sp
7f00b494:	6803      	li	s0,3
7f00b496:	c558      	sb	v0,24(a1)
7f00b498:	e80b      	neg	s0
7f00b49a:	f6a0 1013 	b	7f00c204 <_doprnt+0x1568>
7f00b49e:	9a00      	lw	s0,0(v0)
7f00b4a0:	d32d      	sw	v1,180(sp)
7f00b4a2:	f7ff 701f 	cmpi	s0,65535
7f00b4a6:	608b      	bteqz	7f00b3be <_doprnt+0x722>
7f00b4a8:	f7ff 6a1e 	li	v0,65534
7f00b4ac:	e843      	sltu	s0,v0
7f00b4ae:	f6a0 6109 	btnez	7f00c204 <_doprnt+0x1568>
7f00b4b2:	6a3e      	li	v0,62
7f00b4b4:	677d      	move	v1,sp
7f00b4b6:	c358      	sb	v0,24(v1)
7f00b4b8:	f7ff 681d 	li	s0,65533
7f00b4bc:	100c      	b	7f00b4d6 <_doprnt+0x83a>
7f00b4be:	6749      	move	v0,t1
7f00b4c0:	d51e      	sw	a1,120(sp)
7f00b4c2:	67a8      	move	a1,t0
7f00b4c4:	d22d      	sw	v0,180(sp)
7f00b4c6:	d51c      	sw	a1,112(sp)
7f00b4c8:	d61a      	sw	a2,104(sp)
7f00b4ca:	d72c      	sw	a3,176(sp)
7f00b4cc:	4a04      	addiu	v0,4
7f00b4ce:	2007      	beqz	s0,7f00b4de <_doprnt+0x842>
7f00b4d0:	6769      	move	v1,t1
7f00b4d2:	9b00      	lw	s0,0(v1)
7f00b4d4:	d22d      	sw	v0,180(sp)
7f00b4d6:	6c00      	li	a0,0
7f00b4d8:	d41d      	sw	a0,116(sp)
7f00b4da:	f680 1015 	b	7f00c208 <_doprnt+0x156c>
7f00b4de:	952d      	lw	a1,180(sp)
7f00b4e0:	9d00      	lw	s0,0(a1)
7f00b4e2:	d22d      	sw	v0,180(sp)
7f00b4e4:	f680 100e 	b	7f00c204 <_doprnt+0x1568>
7f00b4e8:	6768      	move	v1,t0
7f00b4ea:	d41f      	sw	a0,124(sp)
7f00b4ec:	6749      	move	v0,t1
7f00b4ee:	6789      	move	a0,t1
7f00b4f0:	d51e      	sw	a1,120(sp)
7f00b4f2:	d31c      	sw	v1,112(sp)
7f00b4f4:	d61a      	sw	a2,104(sp)
7f00b4f6:	d72c      	sw	a3,176(sp)
7f00b4f8:	d42d      	sw	a0,180(sp)
7f00b4fa:	4a04      	addiu	v0,4
7f00b4fc:	2002      	beqz	s0,7f00b502 <_doprnt+0x866>
7f00b4fe:	9c00      	lw	s0,0(a0)
7f00b500:	1002      	b	7f00b506 <_doprnt+0x86a>
7f00b502:	952d      	lw	a1,180(sp)
7f00b504:	9d00      	lw	s0,0(a1)
7f00b506:	931f      	lw	v1,124(sp)
7f00b508:	d22d      	sw	v0,180(sp)
7f00b50a:	6a58      	li	v0,88
7f00b50c:	eb4e      	xor	v1,v0
7f00b50e:	5b01      	sltiu	v1,1
7f00b510:	6758      	move	v0,t8
7f00b512:	d21d      	sw	v0,116(sp)
7f00b514:	6b10      	li	v1,16
7f00b516:	1026      	b	7f00b564 <_doprnt+0x8c8>
7f00b518:	6768      	move	v1,t0
7f00b51a:	d41f      	sw	a0,124(sp)
7f00b51c:	6749      	move	v0,t1
7f00b51e:	6789      	move	a0,t1
7f00b520:	d51e      	sw	a1,120(sp)
7f00b522:	d31c      	sw	v1,112(sp)
7f00b524:	d61a      	sw	a2,104(sp)
7f00b526:	d72c      	sw	a3,176(sp)
7f00b528:	d42d      	sw	a0,180(sp)
7f00b52a:	4a04      	addiu	v0,4
7f00b52c:	2002      	beqz	s0,7f00b532 <_doprnt+0x896>
7f00b52e:	9c00      	lw	s0,0(a0)
7f00b530:	1002      	b	7f00b536 <_doprnt+0x89a>
7f00b532:	952d      	lw	a1,180(sp)
7f00b534:	9d00      	lw	s0,0(a1)
7f00b536:	931f      	lw	v1,124(sp)
7f00b538:	6c5a      	li	a0,90
7f00b53a:	d22d      	sw	v0,180(sp)
7f00b53c:	eb8e      	xor	v1,a0
7f00b53e:	5b01      	sltiu	v1,1
7f00b540:	6758      	move	v0,t8
7f00b542:	d21d      	sw	v0,116(sp)
7f00b544:	6b10      	li	v1,16
7f00b546:	9423      	lw	a0,140(sp)
7f00b548:	240d      	beqz	a0,7f00b564 <_doprnt+0x8c8>
7f00b54a:	5000      	slti	s0,0
7f00b54c:	6005      	bteqz	7f00b558 <_doprnt+0x8bc>
7f00b54e:	6a2d      	li	v0,45
7f00b550:	67bd      	move	a1,sp
7f00b552:	c558      	sb	v0,24(a1)
7f00b554:	e80b      	neg	s0
7f00b556:	1006      	b	7f00b564 <_doprnt+0x8c8>
7f00b558:	9223      	lw	v0,140(sp)
7f00b55a:	5200      	slti	v0,0
7f00b55c:	6003      	bteqz	7f00b564 <_doprnt+0x8c8>
7f00b55e:	6a2b      	li	v0,43
7f00b560:	679d      	move	a0,sp
7f00b562:	c458      	sb	v0,24(a0)
7f00b564:	951a      	lw	a1,104(sp)
7f00b566:	6a00      	li	v0,0
7f00b568:	d21f      	sw	v0,124(sp)
7f00b56a:	5531      	slti	a1,49
7f00b56c:	6104      	btnez	7f00b576 <_doprnt+0x8da>
7f00b56e:	4dd0      	addiu	a1,-48
7f00b570:	6c30      	li	a0,48
7f00b572:	d51f      	sw	a1,124(sp)
7f00b574:	d41a      	sw	a0,104(sp)
7f00b576:	971a      	lw	a3,104(sp)
7f00b578:	f000 0219 	addiu	v0,sp,25
7f00b57c:	67b0      	move	a1,s0
7f00b57e:	67c3      	move	a2,v1
7f00b580:	040c      	addiu	a0,sp,48
7f00b582:	d327      	sw	v1,156(sp)
7f00b584:	181e 2ae5 	jal	7f00ab94 <ksprintn>
7f00b588:	d204      	sw	v0,16(sp)
7f00b58a:	9520      	lw	a1,128(sp)
7f00b58c:	d21a      	sw	v0,104(sp)
7f00b58e:	9327      	lw	v1,156(sp)
7f00b590:	250e      	beqz	a1,7f00b5ae <_doprnt+0x912>
7f00b592:	200d      	beqz	s0,7f00b5ae <_doprnt+0x912>
7f00b594:	7308      	cmpi	v1,8
7f00b596:	6105      	btnez	7f00b5a2 <_doprnt+0x906>
7f00b598:	679d      	move	a0,sp
7f00b59a:	a459      	lbu	v0,25(a0)
7f00b59c:	4a01      	addiu	v0,1
7f00b59e:	c459      	sb	v0,25(a0)
7f00b5a0:	1006      	b	7f00b5ae <_doprnt+0x912>
7f00b5a2:	7310      	cmpi	v1,16
7f00b5a4:	6104      	btnez	7f00b5ae <_doprnt+0x912>
7f00b5a6:	67bd      	move	a1,sp
7f00b5a8:	a559      	lbu	v0,25(a1)
7f00b5aa:	4a02      	addiu	v0,2
7f00b5ac:	c559      	sb	v0,25(a1)
7f00b5ae:	679d      	move	a0,sp
7f00b5b0:	a458      	lbu	v0,24(a0)
7f00b5b2:	2203      	beqz	v0,7f00b5ba <_doprnt+0x91e>
7f00b5b4:	a459      	lbu	v0,25(a0)
7f00b5b6:	4a01      	addiu	v0,1
7f00b5b8:	c459      	sb	v0,25(a0)
7f00b5ba:	951e      	lw	a1,120(sp)
7f00b5bc:	2d36      	bnez	a1,7f00b62a <_doprnt+0x98e>
7f00b5be:	921c      	lw	v0,112(sp)
7f00b5c0:	2234      	beqz	v0,7f00b62a <_doprnt+0x98e>
7f00b5c2:	9421      	lw	a0,132(sp)
7f00b5c4:	7420      	cmpi	a0,32
7f00b5c6:	6131      	btnez	7f00b62a <_doprnt+0x98e>
7f00b5c8:	67bd      	move	a1,sp
7f00b5ca:	941c      	lw	a0,112(sp)
7f00b5cc:	a559      	lbu	v0,25(a1)
7f00b5ce:	e453      	subu	a0,v0
7f00b5d0:	5401      	slti	a0,1
7f00b5d2:	d41c      	sw	a0,112(sp)
7f00b5d4:	612a      	btnez	7f00b62a <_doprnt+0x98e>
7f00b5d6:	67c4      	move	a2,a0
7f00b5d8:	9940      	lw	v0,0(s1)
7f00b5da:	4aff      	addiu	v0,-1
7f00b5dc:	5200      	slti	v0,0
7f00b5de:	d940      	sw	v0,0(s1)
7f00b5e0:	6104      	btnez	7f00b5ea <_doprnt+0x94e>
7f00b5e2:	9941      	lw	v0,4(s1)
7f00b5e4:	6c20      	li	a0,32
7f00b5e6:	c280      	sb	a0,0(v0)
7f00b5e8:	100c      	b	7f00b602 <_doprnt+0x966>
7f00b5ea:	a988      	lhu	a0,16(s1)
7f00b5ec:	6d80      	li	a1,128
7f00b5ee:	ecac      	and	a0,a1
7f00b5f0:	240b      	beqz	a0,7f00b608 <_doprnt+0x96c>
7f00b5f2:	9983      	lw	a0,12(s1)
7f00b5f4:	ea4b      	neg	v0
7f00b5f6:	ea82      	slt	v0,a0
7f00b5f8:	6007      	bteqz	7f00b608 <_doprnt+0x96c>
7f00b5fa:	9941      	lw	v0,4(s1)
7f00b5fc:	6c20      	li	a0,32
7f00b5fe:	c280      	sb	a0,0(v0)
7f00b600:	9941      	lw	v0,4(s1)
7f00b602:	4a01      	addiu	v0,1
7f00b604:	d941      	sw	v0,4(s1)
7f00b606:	1008      	b	7f00b618 <_doprnt+0x97c>
7f00b608:	6c20      	li	a0,32
7f00b60a:	67b1      	move	a1,s1
7f00b60c:	d327      	sw	v1,156(sp)
7f00b60e:	181e 2788 	jal	7f009e20 <_flsbuf>
7f00b612:	d626      	sw	a2,152(sp)
7f00b614:	9626      	lw	a2,152(sp)
7f00b616:	9327      	lw	v1,156(sp)
7f00b618:	4eff      	addiu	a2,-1
7f00b61a:	5601      	slti	a2,1
7f00b61c:	60dd      	bteqz	7f00b5d8 <_doprnt+0x93c>
7f00b61e:	951b      	lw	a1,108(sp)
7f00b620:	921c      	lw	v0,112(sp)
7f00b622:	6c00      	li	a0,0
7f00b624:	d41c      	sw	a0,112(sp)
7f00b626:	e555      	addu	a1,v0
7f00b628:	d51b      	sw	a1,108(sp)
7f00b62a:	67bd      	move	a1,sp
7f00b62c:	a598      	lbu	a0,24(a1)
7f00b62e:	2422      	beqz	a0,7f00b674 <_doprnt+0x9d8>
7f00b630:	9940      	lw	v0,0(s1)
7f00b632:	4aff      	addiu	v0,-1
7f00b634:	5200      	slti	v0,0
7f00b636:	d940      	sw	v0,0(s1)
7f00b638:	6103      	btnez	7f00b640 <_doprnt+0x9a4>
7f00b63a:	9941      	lw	v0,4(s1)
7f00b63c:	c280      	sb	a0,0(v0)
7f00b63e:	100e      	b	7f00b65c <_doprnt+0x9c0>
7f00b640:	a9a8      	lhu	a1,16(s1)
7f00b642:	6e80      	li	a2,128
7f00b644:	edcc      	and	a1,a2
7f00b646:	250e      	beqz	a1,7f00b664 <_doprnt+0x9c8>
7f00b648:	99a3      	lw	a1,12(s1)
7f00b64a:	ea4b      	neg	v0
7f00b64c:	eaa2      	slt	v0,a1
7f00b64e:	600a      	bteqz	7f00b664 <_doprnt+0x9c8>
7f00b650:	9941      	lw	v0,4(s1)
7f00b652:	ec91      	seb	a0
7f00b654:	740a      	cmpi	a0,10
7f00b656:	c280      	sb	a0,0(v0)
7f00b658:	9941      	lw	v0,4(s1)
7f00b65a:	6003      	bteqz	7f00b662 <_doprnt+0x9c6>
7f00b65c:	4a01      	addiu	v0,1
7f00b65e:	d941      	sw	v0,4(s1)
7f00b660:	1006      	b	7f00b66e <_doprnt+0x9d2>
7f00b662:	a280      	lbu	a0,0(v0)
7f00b664:	67b1      	move	a1,s1
7f00b666:	181e 2788 	jal	7f009e20 <_flsbuf>
7f00b66a:	d327      	sw	v1,156(sp)
7f00b66c:	9327      	lw	v1,156(sp)
7f00b66e:	921b      	lw	v0,108(sp)
7f00b670:	4a01      	addiu	v0,1
7f00b672:	d21b      	sw	v0,108(sp)
7f00b674:	9420      	lw	a0,128(sp)
7f00b676:	2469      	beqz	a0,7f00b74a <_doprnt+0xaae>
7f00b678:	2068      	beqz	s0,7f00b74a <_doprnt+0xaae>
7f00b67a:	7308      	cmpi	v1,8
7f00b67c:	6120      	btnez	7f00b6be <_doprnt+0xa22>
7f00b67e:	9940      	lw	v0,0(s1)
7f00b680:	4aff      	addiu	v0,-1
7f00b682:	5200      	slti	v0,0
7f00b684:	d940      	sw	v0,0(s1)
7f00b686:	6104      	btnez	7f00b690 <_doprnt+0x9f4>
7f00b688:	9941      	lw	v0,4(s1)
7f00b68a:	6b30      	li	v1,48
7f00b68c:	c260      	sb	v1,0(v0)
7f00b68e:	100c      	b	7f00b6a8 <_doprnt+0xa0c>
7f00b690:	a968      	lhu	v1,16(s1)
7f00b692:	6c80      	li	a0,128
7f00b694:	eb8c      	and	v1,a0
7f00b696:	230b      	beqz	v1,7f00b6ae <_doprnt+0xa12>
7f00b698:	9963      	lw	v1,12(s1)
7f00b69a:	ea4b      	neg	v0
7f00b69c:	ea62      	slt	v0,v1
7f00b69e:	6007      	bteqz	7f00b6ae <_doprnt+0xa12>
7f00b6a0:	9941      	lw	v0,4(s1)
7f00b6a2:	6b30      	li	v1,48
7f00b6a4:	c260      	sb	v1,0(v0)
7f00b6a6:	9941      	lw	v0,4(s1)
7f00b6a8:	4a01      	addiu	v0,1
7f00b6aa:	d941      	sw	v0,4(s1)
7f00b6ac:	1004      	b	7f00b6b6 <_doprnt+0xa1a>
7f00b6ae:	6c30      	li	a0,48
7f00b6b0:	181e 2788 	jal	7f009e20 <_flsbuf>
7f00b6b4:	67b1      	move	a1,s1
7f00b6b6:	951b      	lw	a1,108(sp)
7f00b6b8:	4d01      	addiu	a1,1
7f00b6ba:	d51b      	sw	a1,108(sp)
7f00b6bc:	1046      	b	7f00b74a <_doprnt+0xaae>
7f00b6be:	7310      	cmpi	v1,16
7f00b6c0:	6144      	btnez	7f00b74a <_doprnt+0xaae>
7f00b6c2:	9940      	lw	v0,0(s1)
7f00b6c4:	4aff      	addiu	v0,-1
7f00b6c6:	5200      	slti	v0,0
7f00b6c8:	d940      	sw	v0,0(s1)
7f00b6ca:	6104      	btnez	7f00b6d4 <_doprnt+0xa38>
7f00b6cc:	9941      	lw	v0,4(s1)
7f00b6ce:	6b30      	li	v1,48
7f00b6d0:	c260      	sb	v1,0(v0)
7f00b6d2:	100c      	b	7f00b6ec <_doprnt+0xa50>
7f00b6d4:	a968      	lhu	v1,16(s1)
7f00b6d6:	6c80      	li	a0,128
7f00b6d8:	eb8c      	and	v1,a0
7f00b6da:	230b      	beqz	v1,7f00b6f2 <_doprnt+0xa56>
7f00b6dc:	9963      	lw	v1,12(s1)
7f00b6de:	ea4b      	neg	v0
7f00b6e0:	ea62      	slt	v0,v1
7f00b6e2:	6007      	bteqz	7f00b6f2 <_doprnt+0xa56>
7f00b6e4:	9941      	lw	v0,4(s1)
7f00b6e6:	6b30      	li	v1,48
7f00b6e8:	c260      	sb	v1,0(v0)
7f00b6ea:	9941      	lw	v0,4(s1)
7f00b6ec:	4a01      	addiu	v0,1
7f00b6ee:	d941      	sw	v0,4(s1)
7f00b6f0:	1004      	b	7f00b6fa <_doprnt+0xa5e>
7f00b6f2:	6c30      	li	a0,48
7f00b6f4:	181e 2788 	jal	7f009e20 <_flsbuf>
7f00b6f8:	67b1      	move	a1,s1
7f00b6fa:	9940      	lw	v0,0(s1)
7f00b6fc:	4aff      	addiu	v0,-1
7f00b6fe:	5200      	slti	v0,0
7f00b700:	d940      	sw	v0,0(s1)
7f00b702:	6107      	btnez	7f00b712 <_doprnt+0xa76>
7f00b704:	941d      	lw	a0,116(sp)
7f00b706:	9941      	lw	v0,4(s1)
7f00b708:	6b78      	li	v1,120
7f00b70a:	2401      	beqz	a0,7f00b70e <_doprnt+0xa72>
7f00b70c:	6b58      	li	v1,88
7f00b70e:	c260      	sb	v1,0(v0)
7f00b710:	100f      	b	7f00b730 <_doprnt+0xa94>
7f00b712:	a968      	lhu	v1,16(s1)
7f00b714:	6c80      	li	a0,128
7f00b716:	eb8c      	and	v1,a0
7f00b718:	230e      	beqz	v1,7f00b736 <_doprnt+0xa9a>
7f00b71a:	9963      	lw	v1,12(s1)
7f00b71c:	ea4b      	neg	v0
7f00b71e:	ea62      	slt	v0,v1
7f00b720:	600a      	bteqz	7f00b736 <_doprnt+0xa9a>
7f00b722:	951d      	lw	a1,116(sp)
7f00b724:	9961      	lw	v1,4(s1)
7f00b726:	6a78      	li	v0,120
7f00b728:	2501      	beqz	a1,7f00b72c <_doprnt+0xa90>
7f00b72a:	6a58      	li	v0,88
7f00b72c:	c340      	sb	v0,0(v1)
7f00b72e:	9941      	lw	v0,4(s1)
7f00b730:	4a01      	addiu	v0,1
7f00b732:	d941      	sw	v0,4(s1)
7f00b734:	1007      	b	7f00b744 <_doprnt+0xaa8>
7f00b736:	921d      	lw	v0,116(sp)
7f00b738:	6c78      	li	a0,120
7f00b73a:	2201      	beqz	v0,7f00b73e <_doprnt+0xaa2>
7f00b73c:	6c58      	li	a0,88
7f00b73e:	181e 2788 	jal	7f009e20 <_flsbuf>
7f00b742:	67b1      	move	a1,s1
7f00b744:	931b      	lw	v1,108(sp)
7f00b746:	4b02      	addiu	v1,2
7f00b748:	d31b      	sw	v1,108(sp)
7f00b74a:	941f      	lw	a0,124(sp)
7f00b74c:	2423      	beqz	a0,7f00b794 <_doprnt+0xaf8>
7f00b74e:	6704      	move	s0,a0
7f00b750:	9940      	lw	v0,0(s1)
7f00b752:	4aff      	addiu	v0,-1
7f00b754:	5200      	slti	v0,0
7f00b756:	d940      	sw	v0,0(s1)
7f00b758:	6104      	btnez	7f00b762 <_doprnt+0xac6>
7f00b75a:	9941      	lw	v0,4(s1)
7f00b75c:	6b30      	li	v1,48
7f00b75e:	c260      	sb	v1,0(v0)
7f00b760:	100c      	b	7f00b77a <_doprnt+0xade>
7f00b762:	a968      	lhu	v1,16(s1)
7f00b764:	6c80      	li	a0,128
7f00b766:	eb8c      	and	v1,a0
7f00b768:	230b      	beqz	v1,7f00b780 <_doprnt+0xae4>
7f00b76a:	9963      	lw	v1,12(s1)
7f00b76c:	ea4b      	neg	v0
7f00b76e:	ea62      	slt	v0,v1
7f00b770:	6007      	bteqz	7f00b780 <_doprnt+0xae4>
7f00b772:	9941      	lw	v0,4(s1)
7f00b774:	6b30      	li	v1,48
7f00b776:	c260      	sb	v1,0(v0)
7f00b778:	9941      	lw	v0,4(s1)
7f00b77a:	4a01      	addiu	v0,1
7f00b77c:	d941      	sw	v0,4(s1)
7f00b77e:	1004      	b	7f00b788 <_doprnt+0xaec>
7f00b780:	6c30      	li	a0,48
7f00b782:	181e 2788 	jal	7f009e20 <_flsbuf>
7f00b786:	67b1      	move	a1,s1
7f00b788:	951b      	lw	a1,108(sp)
7f00b78a:	48ff      	addiu	s0,-1
7f00b78c:	5001      	slti	s0,1
7f00b78e:	4d01      	addiu	a1,1
7f00b790:	d51b      	sw	a1,108(sp)
7f00b792:	60de      	bteqz	7f00b750 <_doprnt+0xab4>
7f00b794:	921e      	lw	v0,120(sp)
7f00b796:	2a02      	bnez	v0,7f00b79c <_doprnt+0xb00>
7f00b798:	931c      	lw	v1,112(sp)
7f00b79a:	2b02      	bnez	v1,7f00b7a0 <_doprnt+0xb04>
7f00b79c:	901b      	lw	s0,108(sp)
7f00b79e:	1079      	b	7f00b892 <_doprnt+0xbf6>
7f00b7a0:	679d      	move	a0,sp
7f00b7a2:	951c      	lw	a1,112(sp)
7f00b7a4:	a459      	lbu	v0,25(a0)
7f00b7a6:	e557      	subu	a1,v0
7f00b7a8:	5501      	slti	a1,1
7f00b7aa:	d51c      	sw	a1,112(sp)
7f00b7ac:	61f7      	btnez	7f00b79c <_doprnt+0xb00>
7f00b7ae:	6705      	move	s0,a1
7f00b7b0:	9940      	lw	v0,0(s1)
7f00b7b2:	4aff      	addiu	v0,-1
7f00b7b4:	5200      	slti	v0,0
7f00b7b6:	d940      	sw	v0,0(s1)
7f00b7b8:	6107      	btnez	7f00b7c8 <_doprnt+0xb2c>
7f00b7ba:	677d      	move	v1,sp
7f00b7bc:	4387      	addiu	a0,v1,7
7f00b7be:	4c7d      	addiu	a0,125
7f00b7c0:	9941      	lw	v0,4(s1)
7f00b7c2:	a460      	lbu	v1,0(a0)
7f00b7c4:	c260      	sb	v1,0(v0)
7f00b7c6:	100f      	b	7f00b7e6 <_doprnt+0xb4a>
7f00b7c8:	a968      	lhu	v1,16(s1)
7f00b7ca:	6c80      	li	a0,128
7f00b7cc:	eb8c      	and	v1,a0
7f00b7ce:	230e      	beqz	v1,7f00b7ec <_doprnt+0xb50>
7f00b7d0:	9963      	lw	v1,12(s1)
7f00b7d2:	ea4b      	neg	v0
7f00b7d4:	ea62      	slt	v0,v1
7f00b7d6:	600a      	bteqz	7f00b7ec <_doprnt+0xb50>
7f00b7d8:	679d      	move	a0,sp
7f00b7da:	44a7      	addiu	a1,a0,7
7f00b7dc:	4d7d      	addiu	a1,125
7f00b7de:	9941      	lw	v0,4(s1)
7f00b7e0:	a580      	lbu	a0,0(a1)
7f00b7e2:	c280      	sb	a0,0(v0)
7f00b7e4:	9941      	lw	v0,4(s1)
7f00b7e6:	4a01      	addiu	v0,1
7f00b7e8:	d941      	sw	v0,4(s1)
7f00b7ea:	1004      	b	7f00b7f4 <_doprnt+0xb58>
7f00b7ec:	9421      	lw	a0,132(sp)
7f00b7ee:	181e 2788 	jal	7f009e20 <_flsbuf>
7f00b7f2:	67b1      	move	a1,s1
7f00b7f4:	48ff      	addiu	s0,-1
7f00b7f6:	5001      	slti	s0,1
7f00b7f8:	60db      	bteqz	7f00b7b0 <_doprnt+0xb14>
7f00b7fa:	951b      	lw	a1,108(sp)
7f00b7fc:	921c      	lw	v0,112(sp)
7f00b7fe:	6b00      	li	v1,0
7f00b800:	d31c      	sw	v1,112(sp)
7f00b802:	e555      	addu	a1,v0
7f00b804:	d51b      	sw	a1,108(sp)
7f00b806:	17ca      	b	7f00b79c <_doprnt+0xb00>
7f00b808:	941d      	lw	a0,116(sp)
7f00b80a:	9960      	lw	v1,0(s1)
7f00b80c:	241f      	beqz	a0,7f00b84c <_doprnt+0xbb0>
7f00b80e:	5a61      	sltiu	v0,97
7f00b810:	611d      	btnez	7f00b84c <_doprnt+0xbb0>
7f00b812:	5a7b      	sltiu	v0,123
7f00b814:	601b      	bteqz	7f00b84c <_doprnt+0xbb0>
7f00b816:	951a      	lw	a1,104(sp)
7f00b818:	434f      	addiu	v0,v1,-1
7f00b81a:	d940      	sw	v0,0(s1)
7f00b81c:	5200      	slti	v0,0
7f00b81e:	a580      	lbu	a0,0(a1)
7f00b820:	6104      	btnez	7f00b82a <_doprnt+0xb8e>
7f00b822:	9941      	lw	v0,4(s1)
7f00b824:	4ce0      	addiu	a0,-32
7f00b826:	c280      	sb	a0,0(v0)
7f00b828:	1029      	b	7f00b87c <_doprnt+0xbe0>
7f00b82a:	a968      	lhu	v1,16(s1)
7f00b82c:	6d80      	li	a1,128
7f00b82e:	ebac      	and	v1,a1
7f00b830:	230a      	beqz	v1,7f00b846 <_doprnt+0xbaa>
7f00b832:	9963      	lw	v1,12(s1)
7f00b834:	ea4b      	neg	v0
7f00b836:	ea62      	slt	v0,v1
7f00b838:	6006      	bteqz	7f00b846 <_doprnt+0xbaa>
7f00b83a:	9941      	lw	v0,4(s1)
7f00b83c:	4ce0      	addiu	a0,-32
7f00b83e:	ec91      	seb	a0
7f00b840:	c280      	sb	a0,0(v0)
7f00b842:	740a      	cmpi	a0,10
7f00b844:	1019      	b	7f00b878 <_doprnt+0xbdc>
7f00b846:	4ce0      	addiu	a0,-32
7f00b848:	ec11      	zeb	a0
7f00b84a:	101d      	b	7f00b886 <_doprnt+0xbea>
7f00b84c:	434f      	addiu	v0,v1,-1
7f00b84e:	5200      	slti	v0,0
7f00b850:	d940      	sw	v0,0(s1)
7f00b852:	6105      	btnez	7f00b85e <_doprnt+0xbc2>
7f00b854:	941a      	lw	a0,104(sp)
7f00b856:	9941      	lw	v0,4(s1)
7f00b858:	a460      	lbu	v1,0(a0)
7f00b85a:	c260      	sb	v1,0(v0)
7f00b85c:	100f      	b	7f00b87c <_doprnt+0xbe0>
7f00b85e:	a968      	lhu	v1,16(s1)
7f00b860:	6c80      	li	a0,128
7f00b862:	eb8c      	and	v1,a0
7f00b864:	230e      	beqz	v1,7f00b882 <_doprnt+0xbe6>
7f00b866:	9963      	lw	v1,12(s1)
7f00b868:	ea4b      	neg	v0
7f00b86a:	ea62      	slt	v0,v1
7f00b86c:	600a      	bteqz	7f00b882 <_doprnt+0xbe6>
7f00b86e:	951a      	lw	a1,104(sp)
7f00b870:	9961      	lw	v1,4(s1)
7f00b872:	8540      	lb	v0,0(a1)
7f00b874:	c340      	sb	v0,0(v1)
7f00b876:	720a      	cmpi	v0,10
7f00b878:	9941      	lw	v0,4(s1)
7f00b87a:	6004      	bteqz	7f00b884 <_doprnt+0xbe8>
7f00b87c:	4a01      	addiu	v0,1
7f00b87e:	d941      	sw	v0,4(s1)
7f00b880:	1005      	b	7f00b88c <_doprnt+0xbf0>
7f00b882:	921a      	lw	v0,104(sp)
7f00b884:	a280      	lbu	a0,0(v0)
7f00b886:	181e 2788 	jal	7f009e20 <_flsbuf>
7f00b88a:	67b1      	move	a1,s1
7f00b88c:	931a      	lw	v1,104(sp)
7f00b88e:	4bff      	addiu	v1,-1
7f00b890:	d31a      	sw	v1,104(sp)
7f00b892:	4801      	addiu	s0,1
7f00b894:	951a      	lw	a1,104(sp)
7f00b896:	408f      	addiu	a0,s0,-1
7f00b898:	d41b      	sw	a0,108(sp)
7f00b89a:	a540      	lbu	v0,0(a1)
7f00b89c:	2ab5      	bnez	v0,7f00b808 <_doprnt+0xb6c>
7f00b89e:	921e      	lw	v0,120(sp)
7f00b8a0:	f23f 220d 	beqz	v0,7f00acfe <_doprnt+0x62>
7f00b8a4:	931c      	lw	v1,112(sp)
7f00b8a6:	f23f 230a 	beqz	v1,7f00acfe <_doprnt+0x62>
7f00b8aa:	679d      	move	a0,sp
7f00b8ac:	a479      	lbu	v1,25(a0)
7f00b8ae:	951c      	lw	a1,112(sp)
7f00b8b0:	e56f      	subu	v1,a1,v1
7f00b8b2:	5301      	slti	v1,1
7f00b8b4:	f23f 6103 	btnez	7f00acfe <_doprnt+0x62>
7f00b8b8:	6703      	move	s0,v1
7f00b8ba:	9940      	lw	v0,0(s1)
7f00b8bc:	4aff      	addiu	v0,-1
7f00b8be:	5200      	slti	v0,0
7f00b8c0:	d940      	sw	v0,0(s1)
7f00b8c2:	6104      	btnez	7f00b8cc <_doprnt+0xc30>
7f00b8c4:	9941      	lw	v0,4(s1)
7f00b8c6:	6c20      	li	a0,32
7f00b8c8:	c280      	sb	a0,0(v0)
7f00b8ca:	100c      	b	7f00b8e4 <_doprnt+0xc48>
7f00b8cc:	a988      	lhu	a0,16(s1)
7f00b8ce:	6d80      	li	a1,128
7f00b8d0:	ecac      	and	a0,a1
7f00b8d2:	240b      	beqz	a0,7f00b8ea <_doprnt+0xc4e>
7f00b8d4:	9983      	lw	a0,12(s1)
7f00b8d6:	ea4b      	neg	v0
7f00b8d8:	ea82      	slt	v0,a0
7f00b8da:	6007      	bteqz	7f00b8ea <_doprnt+0xc4e>
7f00b8dc:	9941      	lw	v0,4(s1)
7f00b8de:	6c20      	li	a0,32
7f00b8e0:	c280      	sb	a0,0(v0)
7f00b8e2:	9941      	lw	v0,4(s1)
7f00b8e4:	4a01      	addiu	v0,1
7f00b8e6:	d941      	sw	v0,4(s1)
7f00b8e8:	1006      	b	7f00b8f6 <_doprnt+0xc5a>
7f00b8ea:	6c20      	li	a0,32
7f00b8ec:	67b1      	move	a1,s1
7f00b8ee:	181e 2788 	jal	7f009e20 <_flsbuf>
7f00b8f2:	d327      	sw	v1,156(sp)
7f00b8f4:	9327      	lw	v1,156(sp)
7f00b8f6:	48ff      	addiu	s0,-1
7f00b8f8:	5001      	slti	s0,1
7f00b8fa:	60df      	bteqz	7f00b8ba <_doprnt+0xc1e>
7f00b8fc:	f400 100a 	b	7f00c114 <_doprnt+0x1478>
7f00b900:	d41f      	sw	a0,124(sp)
7f00b902:	6789      	move	a0,t1
7f00b904:	6768      	move	v1,t0
7f00b906:	6749      	move	v0,t1
7f00b908:	4c04      	addiu	a0,4
7f00b90a:	5607      	slti	a2,7
7f00b90c:	d31c      	sw	v1,112(sp)
7f00b90e:	d51e      	sw	a1,120(sp)
7f00b910:	d61a      	sw	a2,104(sp)
7f00b912:	d72c      	sw	a3,176(sp)
7f00b914:	d42d      	sw	a0,180(sp)
7f00b916:	9a60      	lw	v1,0(v0)
7f00b918:	610b      	btnez	7f00b930 <_doprnt+0xc94>
7f00b91a:	951f      	lw	a1,124(sp)
7f00b91c:	7567      	cmpi	a1,103
7f00b91e:	6002      	bteqz	7f00b924 <_doprnt+0xc88>
7f00b920:	7547      	cmpi	a1,71
7f00b922:	6103      	btnez	7f00b92a <_doprnt+0xc8e>
7f00b924:	9220      	lw	v0,128(sp)
7f00b926:	6c00      	li	a0,0
7f00b928:	2209      	beqz	v0,7f00b93c <_doprnt+0xca0>
7f00b92a:	941a      	lw	a0,104(sp)
7f00b92c:	4cfa      	addiu	a0,-6
7f00b92e:	1006      	b	7f00b93c <_doprnt+0xca0>
7f00b930:	921a      	lw	v0,104(sp)
7f00b932:	4a01      	addiu	v0,1
7f00b934:	2207      	beqz	v0,7f00b944 <_doprnt+0xca8>
7f00b936:	6a00      	li	v0,0
7f00b938:	d222      	sw	v0,136(sp)
7f00b93a:	1008      	b	7f00b94c <_doprnt+0xcb0>
7f00b93c:	6d06      	li	a1,6
7f00b93e:	d422      	sw	a0,136(sp)
7f00b940:	d51a      	sw	a1,104(sp)
7f00b942:	1004      	b	7f00b94c <_doprnt+0xcb0>
7f00b944:	6a00      	li	v0,0
7f00b946:	6c06      	li	a0,6
7f00b948:	d222      	sw	v0,136(sp)
7f00b94a:	d41a      	sw	a0,104(sp)
7f00b94c:	f0e1 b500 	lw	a1,7f00c22c <_doprnt+0x1590>
7f00b950:	6783      	move	a0,v1
7f00b952:	1c1e 3383 	jalx	7f00ce0c <__lesf2>
7f00b956:	d327      	sw	v1,156(sp)
7f00b958:	5200      	slti	v0,0
7f00b95a:	9327      	lw	v1,156(sp)
7f00b95c:	6006      	bteqz	7f00b96a <_doprnt+0xcce>
7f00b95e:	6a01      	li	v0,1
7f00b960:	67bd      	move	a1,sp
7f00b962:	c558      	sb	v0,24(a1)
7f00b964:	f0c1 b20c 	lw	v0,7f00c230 <_doprnt+0x1594>
7f00b968:	eb4e      	xor	v1,v0
7f00b96a:	6783      	move	a0,v1
7f00b96c:	67a3      	move	a1,v1
7f00b96e:	1c1e 35fc 	jalx	7f00d7f0 <__unordsf2>
7f00b972:	d327      	sw	v1,156(sp)
7f00b974:	9327      	lw	v1,156(sp)
7f00b976:	2a12      	bnez	v0,7f00b99c <_doprnt+0xd00>
7f00b978:	f0a1 b01c 	lw	s0,7f00c234 <_doprnt+0x1598>
7f00b97c:	f0a1 b51c 	lw	a1,7f00c238 <_doprnt+0x159c>
7f00b980:	e86c      	and	s0,v1
7f00b982:	1c1e 35fc 	jalx	7f00d7f0 <__unordsf2>
7f00b986:	6790      	move	a0,s0
7f00b988:	9327      	lw	v1,156(sp)
7f00b98a:	2a1a      	bnez	v0,7f00b9c0 <_doprnt+0xd24>
7f00b98c:	f0a1 b50c 	lw	a1,7f00c238 <_doprnt+0x159c>
7f00b990:	1c1e 3383 	jalx	7f00ce0c <__lesf2>
7f00b994:	6790      	move	a0,s0
7f00b996:	5201      	slti	v0,1
7f00b998:	9327      	lw	v1,156(sp)
7f00b99a:	6112      	btnez	7f00b9c0 <_doprnt+0xd24>
7f00b99c:	67a3      	move	a1,v1
7f00b99e:	1c1e 35fc 	jalx	7f00d7f0 <__unordsf2>
7f00b9a2:	6783      	move	a0,v1
7f00b9a4:	f081 b518 	lw	a1,7f00c23c <_doprnt+0x15a0>
7f00b9a8:	2a02      	bnez	v0,7f00b9ae <_doprnt+0xd12>
7f00b9aa:	f081 b518 	lw	a1,7f00c240 <_doprnt+0x15a4>
7f00b9ae:	181e 2a7d 	jal	7f00a9f4 <strcpy>
7f00b9b2:	040c      	addiu	a0,sp,48
7f00b9b4:	6a03      	li	v0,3
7f00b9b6:	677d      	move	v1,sp
7f00b9b8:	6c00      	li	a0,0
7f00b9ba:	c359      	sb	v0,25(v1)
7f00b9bc:	d422      	sw	a0,136(sp)
7f00b9be:	1244      	b	7f00be48 <_doprnt+0x11ac>
7f00b9c0:	6a00      	li	v0,0
7f00b9c2:	67bd      	move	a1,sp
7f00b9c4:	f020 c550 	sb	v0,48(a1)
7f00b9c8:	6783      	move	a0,v1
7f00b9ca:	6a00      	li	v0,0
7f00b9cc:	0508      	addiu	a1,sp,32
7f00b9ce:	181e 30b8 	jal	7f00c2e0 <modf>
7f00b9d2:	d207      	sw	v0,28(sp)
7f00b9d4:	f040 031f 	addiu	v1,sp,95
7f00b9d8:	d21d      	sw	v0,116(sp)
7f00b9da:	6703      	move	s0,v1
7f00b9dc:	101d      	b	7f00ba18 <_doprnt+0xd7c>
7f00b9de:	f061 b508 	lw	a1,7f00c244 <_doprnt+0x15a8>
7f00b9e2:	1c1e 3256 	jalx	7f00c958 <__divsf3>
7f00b9e6:	6783      	move	a0,v1
7f00b9e8:	6782      	move	a0,v0
7f00b9ea:	181e 30b8 	jal	7f00c2e0 <modf>
7f00b9ee:	0508      	addiu	a1,sp,32
7f00b9f0:	f041 b518 	lw	a1,7f00c248 <_doprnt+0x15ac>
7f00b9f4:	6782      	move	a0,v0
7f00b9f6:	1c1e 30e7 	jalx	7f00c39c <__addsf3>
7f00b9fa:	d209      	sw	v0,36(sp)
7f00b9fc:	f041 b508 	lw	a1,7f00c244 <_doprnt+0x15a8>
7f00ba00:	1c1e 33bb 	jalx	7f00ceec <__mulsf3>
7f00ba04:	6782      	move	a0,v0
7f00ba06:	1c1e 360b 	jalx	7f00d82c <__fixsfsi>
7f00ba0a:	6782      	move	a0,v0
7f00ba0c:	4a30      	addiu	v0,48
7f00ba0e:	c040      	sb	v0,0(s0)
7f00ba10:	9207      	lw	v0,28(sp)
7f00ba12:	48ff      	addiu	s0,-1
7f00ba14:	4a01      	addiu	v0,1
7f00ba16:	d207      	sw	v0,28(sp)
7f00ba18:	9308      	lw	v1,32(sp)
7f00ba1a:	f001 b514 	lw	a1,7f00c22c <_doprnt+0x1590>
7f00ba1e:	6783      	move	a0,v1
7f00ba20:	1c1e 332d 	jalx	7f00ccb4 <__eqsf2>
7f00ba24:	d327      	sw	v1,156(sp)
7f00ba26:	9327      	lw	v1,156(sp)
7f00ba28:	2ada      	bnez	v0,7f00b9de <_doprnt+0xd42>
7f00ba2a:	921f      	lw	v0,124(sp)
7f00ba2c:	6770      	move	v1,s0
7f00ba2e:	7265      	cmpi	v0,101
7f00ba30:	6068      	bteqz	7f00bb02 <_doprnt+0xe66>
7f00ba32:	5a66      	sltiu	v0,102
7f00ba34:	6004      	bteqz	7f00ba3e <_doprnt+0xda2>
7f00ba36:	7245      	cmpi	v0,69
7f00ba38:	6064      	bteqz	7f00bb02 <_doprnt+0xe66>
7f00ba3a:	7247      	cmpi	v0,71
7f00ba3c:	1004      	b	7f00ba46 <_doprnt+0xdaa>
7f00ba3e:	941f      	lw	a0,124(sp)
7f00ba40:	7466      	cmpi	a0,102
7f00ba42:	6004      	bteqz	7f00ba4c <_doprnt+0xdb0>
7f00ba44:	7467      	cmpi	a0,103
7f00ba46:	f160 6007 	bteqz	7f00bd18 <_doprnt+0x107c>
7f00ba4a:	11f0      	b	7f00be2c <_doprnt+0x1190>
7f00ba4c:	9207      	lw	v0,28(sp)
7f00ba4e:	f020 0011 	addiu	s0,sp,49
7f00ba52:	2a04      	bnez	v0,7f00ba5c <_doprnt+0xdc0>
7f00ba54:	1008      	b	7f00ba66 <_doprnt+0xdca>
7f00ba56:	a340      	lbu	v0,0(v1)
7f00ba58:	c040      	sb	v0,0(s0)
7f00ba5a:	4801      	addiu	s0,1
7f00ba5c:	4b01      	addiu	v1,1
7f00ba5e:	0218      	addiu	v0,sp,96
7f00ba60:	eb43      	sltu	v1,v0
7f00ba62:	61f9      	btnez	7f00ba56 <_doprnt+0xdba>
7f00ba64:	1006      	b	7f00ba72 <_doprnt+0xdd6>
7f00ba66:	6a30      	li	v0,48
7f00ba68:	67bd      	move	a1,sp
7f00ba6a:	f020 c551 	sb	v0,49(a1)
7f00ba6e:	f020 0012 	addiu	s0,sp,50
7f00ba72:	921a      	lw	v0,104(sp)
7f00ba74:	9320      	lw	v1,128(sp)
7f00ba76:	ea6d      	or	v0,v1
7f00ba78:	2203      	beqz	v0,7f00ba80 <_doprnt+0xde4>
7f00ba7a:	6a2e      	li	v0,46
7f00ba7c:	c040      	sb	v0,0(s0)
7f00ba7e:	4801      	addiu	s0,1
7f00ba80:	f7a0 b50c 	lw	a1,7f00c22c <_doprnt+0x1590>
7f00ba84:	1c1e 332d 	jalx	7f00ccb4 <__eqsf2>
7f00ba88:	941d      	lw	a0,116(sp)
7f00ba8a:	222f      	beqz	v0,7f00baea <_doprnt+0xe4e>
7f00ba8c:	941a      	lw	a0,104(sp)
7f00ba8e:	2420      	beqz	a0,7f00bad0 <_doprnt+0xe34>
7f00ba90:	f7a0 b514 	lw	a1,7f00c244 <_doprnt+0x15a8>
7f00ba94:	1c1e 33bb 	jalx	7f00ceec <__mulsf3>
7f00ba98:	941d      	lw	a0,116(sp)
7f00ba9a:	6782      	move	a0,v0
7f00ba9c:	181e 30b8 	jal	7f00c2e0 <modf>
7f00baa0:	0509      	addiu	a1,sp,36
7f00baa2:	9409      	lw	a0,36(sp)
7f00baa4:	1c1e 360b 	jalx	7f00d82c <__fixsfsi>
7f00baa8:	d21d      	sw	v0,116(sp)
7f00baaa:	4a30      	addiu	v0,48
7f00baac:	c040      	sb	v0,0(s0)
7f00baae:	951a      	lw	a1,104(sp)
7f00bab0:	4801      	addiu	s0,1
7f00bab2:	4dff      	addiu	a1,-1
7f00bab4:	d51a      	sw	a1,104(sp)
7f00bab6:	2506      	beqz	a1,7f00bac4 <_doprnt+0xe28>
7f00bab8:	f760 b514 	lw	a1,7f00c22c <_doprnt+0x1590>
7f00babc:	1c1e 332d 	jalx	7f00ccb4 <__eqsf2>
7f00bac0:	941d      	lw	a0,116(sp)
7f00bac2:	2ae6      	bnez	v0,7f00ba90 <_doprnt+0xdf4>
7f00bac4:	f760 b508 	lw	a1,7f00c22c <_doprnt+0x1590>
7f00bac8:	1c1e 332d 	jalx	7f00ccb4 <__eqsf2>
7f00bacc:	941d      	lw	a0,116(sp)
7f00bace:	220d      	beqz	v0,7f00baea <_doprnt+0xe4e>
7f00bad0:	941d      	lw	a0,116(sp)
7f00bad2:	6a30      	li	v0,48
7f00bad4:	d204      	sw	v0,16(sp)
7f00bad6:	f020 0611 	addiu	a2,sp,49
7f00bada:	0206      	addiu	v0,sp,24
7f00badc:	6d00      	li	a1,0
7f00bade:	40ef      	addiu	a3,s0,-1
7f00bae0:	181e 2af6 	jal	7f00abd8 <cvtround>
7f00bae4:	d205      	sw	v0,20(sp)
7f00bae6:	67c2      	move	a2,v0
7f00bae8:	1002      	b	7f00baee <_doprnt+0xe52>
7f00baea:	f020 0611 	addiu	a2,sp,49
7f00baee:	6770      	move	v1,s0
7f00baf0:	921a      	lw	v0,104(sp)
7f00baf2:	1003      	b	7f00bafa <_doprnt+0xe5e>
7f00baf4:	6c30      	li	a0,48
7f00baf6:	c380      	sb	a0,0(v1)
7f00baf8:	4b01      	addiu	v1,1
7f00bafa:	4aff      	addiu	v0,-1
7f00bafc:	4281      	addiu	a0,v0,1
7f00bafe:	2cfa      	bnez	a0,7f00baf4 <_doprnt+0xe58>
7f00bb00:	1185      	b	7f00be0c <_doprnt+0x1170>
7f00bb02:	6c00      	li	a0,0
7f00bb04:	9207      	lw	v0,28(sp)
7f00bb06:	d424      	sw	a0,144(sp)
7f00bb08:	223b      	beqz	v0,7f00bb80 <_doprnt+0xee4>
7f00bb0a:	4341      	addiu	v0,v1,1
7f00bb0c:	a260      	lbu	v1,0(v0)
7f00bb0e:	67bd      	move	a1,sp
7f00bb10:	9420      	lw	a0,128(sp)
7f00bb12:	f020 c571 	sb	v1,49(a1)
7f00bb16:	931a      	lw	v1,104(sp)
7f00bb18:	eb8d      	or	v1,a0
7f00bb1a:	2307      	beqz	v1,7f00bb2a <_doprnt+0xe8e>
7f00bb1c:	6b2e      	li	v1,46
7f00bb1e:	f020 c572 	sb	v1,50(a1)
7f00bb22:	f020 0013 	addiu	s0,sp,51
7f00bb26:	941a      	lw	a0,104(sp)
7f00bb28:	100a      	b	7f00bb3e <_doprnt+0xea2>
7f00bb2a:	6d00      	li	a1,0
7f00bb2c:	f020 0012 	addiu	s0,sp,50
7f00bb30:	d51a      	sw	a1,104(sp)
7f00bb32:	6785      	move	a0,a1
7f00bb34:	1004      	b	7f00bb3e <_doprnt+0xea2>
7f00bb36:	a260      	lbu	v1,0(v0)
7f00bb38:	4cff      	addiu	a0,-1
7f00bb3a:	c060      	sb	v1,0(s0)
7f00bb3c:	4801      	addiu	s0,1
7f00bb3e:	0318      	addiu	v1,sp,96
7f00bb40:	4a01      	addiu	v0,1
7f00bb42:	2406      	beqz	a0,7f00bb50 <_doprnt+0xeb4>
7f00bb44:	ea63      	sltu	v0,v1
7f00bb46:	61f7      	btnez	7f00bb36 <_doprnt+0xe9a>
7f00bb48:	d41a      	sw	a0,104(sp)
7f00bb4a:	f020 0611 	addiu	a2,sp,49
7f00bb4e:	1014      	b	7f00bb78 <_doprnt+0xedc>
7f00bb50:	ea63      	sltu	v0,v1
7f00bb52:	d41a      	sw	a0,104(sp)
7f00bb54:	f020 0611 	addiu	a2,sp,49
7f00bb58:	600f      	bteqz	7f00bb78 <_doprnt+0xedc>
7f00bb5a:	a240      	lbu	v0,0(v0)
7f00bb5c:	f6c0 b310 	lw	v1,7f00c22c <_doprnt+0x1590>
7f00bb60:	0507      	addiu	a1,sp,28
7f00bb62:	d204      	sw	v0,16(sp)
7f00bb64:	6783      	move	a0,v1
7f00bb66:	0206      	addiu	v0,sp,24
7f00bb68:	40ef      	addiu	a3,s0,-1
7f00bb6a:	d327      	sw	v1,156(sp)
7f00bb6c:	181e 2af6 	jal	7f00abd8 <cvtround>
7f00bb70:	d205      	sw	v0,20(sp)
7f00bb72:	9327      	lw	v1,156(sp)
7f00bb74:	67c2      	move	a2,v0
7f00bb76:	d31d      	sw	v1,116(sp)
7f00bb78:	9207      	lw	v0,28(sp)
7f00bb7a:	4aff      	addiu	v0,-1
7f00bb7c:	d207      	sw	v0,28(sp)
7f00bb7e:	1049      	b	7f00bc12 <_doprnt+0xf76>
7f00bb80:	f6a0 b50c 	lw	a1,7f00c22c <_doprnt+0x1590>
7f00bb84:	1c1e 332d 	jalx	7f00ccb4 <__eqsf2>
7f00bb88:	941d      	lw	a0,116(sp)
7f00bb8a:	2226      	beqz	v0,7f00bbd8 <_doprnt+0xf3c>
7f00bb8c:	6a01      	li	v0,1
7f00bb8e:	ea4b      	neg	v0
7f00bb90:	941d      	lw	a0,116(sp)
7f00bb92:	f6a0 b514 	lw	a1,7f00c244 <_doprnt+0x15a8>
7f00bb96:	1c1e 33bb 	jalx	7f00ceec <__mulsf3>
7f00bb9a:	d207      	sw	v0,28(sp)
7f00bb9c:	6782      	move	a0,v0
7f00bb9e:	181e 30b8 	jal	7f00c2e0 <modf>
7f00bba2:	0509      	addiu	a1,sp,36
7f00bba4:	9009      	lw	s0,36(sp)
7f00bba6:	f680 b508 	lw	a1,7f00c22c <_doprnt+0x1590>
7f00bbaa:	d21d      	sw	v0,116(sp)
7f00bbac:	1c1e 332d 	jalx	7f00ccb4 <__eqsf2>
7f00bbb0:	6790      	move	a0,s0
7f00bbb2:	2a03      	bnez	v0,7f00bbba <_doprnt+0xf1e>
7f00bbb4:	9207      	lw	v0,28(sp)
7f00bbb6:	4aff      	addiu	v0,-1
7f00bbb8:	17eb      	b	7f00bb90 <_doprnt+0xef4>
7f00bbba:	1c1e 360b 	jalx	7f00d82c <__fixsfsi>
7f00bbbe:	6790      	move	a0,s0
7f00bbc0:	4a30      	addiu	v0,48
7f00bbc2:	677d      	move	v1,sp
7f00bbc4:	f020 c351 	sb	v0,49(v1)
7f00bbc8:	9420      	lw	a0,128(sp)
7f00bbca:	921a      	lw	v0,104(sp)
7f00bbcc:	ea8d      	or	v0,a0
7f00bbce:	2214      	beqz	v0,7f00bbf8 <_doprnt+0xf5c>
7f00bbd0:	6a2e      	li	v0,46
7f00bbd2:	f020 c352 	sb	v0,50(v1)
7f00bbd6:	100b      	b	7f00bbee <_doprnt+0xf52>
7f00bbd8:	6a30      	li	v0,48
7f00bbda:	67bd      	move	a1,sp
7f00bbdc:	f020 c551 	sb	v0,49(a1)
7f00bbe0:	9320      	lw	v1,128(sp)
7f00bbe2:	921a      	lw	v0,104(sp)
7f00bbe4:	ea6d      	or	v0,v1
7f00bbe6:	220f      	beqz	v0,7f00bc06 <_doprnt+0xf6a>
7f00bbe8:	6a2e      	li	v0,46
7f00bbea:	f020 c552 	sb	v0,50(a1)
7f00bbee:	f020 0013 	addiu	s0,sp,51
7f00bbf2:	f020 0611 	addiu	a2,sp,49
7f00bbf6:	100d      	b	7f00bc12 <_doprnt+0xf76>
7f00bbf8:	6c00      	li	a0,0
7f00bbfa:	f020 0012 	addiu	s0,sp,50
7f00bbfe:	f020 0611 	addiu	a2,sp,49
7f00bc02:	d41a      	sw	a0,104(sp)
7f00bc04:	1006      	b	7f00bc12 <_doprnt+0xf76>
7f00bc06:	6d00      	li	a1,0
7f00bc08:	f020 0012 	addiu	s0,sp,50
7f00bc0c:	f020 0611 	addiu	a2,sp,49
7f00bc10:	d51a      	sw	a1,104(sp)
7f00bc12:	941d      	lw	a0,116(sp)
7f00bc14:	f600 b518 	lw	a1,7f00c22c <_doprnt+0x1590>
7f00bc18:	1c1e 332d 	jalx	7f00ccb4 <__eqsf2>
7f00bc1c:	d626      	sw	a2,152(sp)
7f00bc1e:	9626      	lw	a2,152(sp)
7f00bc20:	2231      	beqz	v0,7f00bc84 <_doprnt+0xfe8>
7f00bc22:	921a      	lw	v0,104(sp)
7f00bc24:	2225      	beqz	v0,7f00bc70 <_doprnt+0xfd4>
7f00bc26:	941d      	lw	a0,116(sp)
7f00bc28:	f600 b51c 	lw	a1,7f00c244 <_doprnt+0x15a8>
7f00bc2c:	1c1e 33bb 	jalx	7f00ceec <__mulsf3>
7f00bc30:	d626      	sw	a2,152(sp)
7f00bc32:	6782      	move	a0,v0
7f00bc34:	181e 30b8 	jal	7f00c2e0 <modf>
7f00bc38:	0509      	addiu	a1,sp,36
7f00bc3a:	9409      	lw	a0,36(sp)
7f00bc3c:	1c1e 360b 	jalx	7f00d82c <__fixsfsi>
7f00bc40:	d21d      	sw	v0,116(sp)
7f00bc42:	4a30      	addiu	v0,48
7f00bc44:	c040      	sb	v0,0(s0)
7f00bc46:	931a      	lw	v1,104(sp)
7f00bc48:	4801      	addiu	s0,1
7f00bc4a:	9626      	lw	a2,152(sp)
7f00bc4c:	4bff      	addiu	v1,-1
7f00bc4e:	d31a      	sw	v1,104(sp)
7f00bc50:	2307      	beqz	v1,7f00bc60 <_doprnt+0xfc4>
7f00bc52:	f5c0 b51c 	lw	a1,7f00c22c <_doprnt+0x1590>
7f00bc56:	1c1e 332d 	jalx	7f00ccb4 <__eqsf2>
7f00bc5a:	941d      	lw	a0,116(sp)
7f00bc5c:	9626      	lw	a2,152(sp)
7f00bc5e:	2ae3      	bnez	v0,7f00bc26 <_doprnt+0xf8a>
7f00bc60:	941d      	lw	a0,116(sp)
7f00bc62:	f5c0 b50c 	lw	a1,7f00c22c <_doprnt+0x1590>
7f00bc66:	1c1e 332d 	jalx	7f00ccb4 <__eqsf2>
7f00bc6a:	d626      	sw	a2,152(sp)
7f00bc6c:	9626      	lw	a2,152(sp)
7f00bc6e:	220a      	beqz	v0,7f00bc84 <_doprnt+0xfe8>
7f00bc70:	941d      	lw	a0,116(sp)
7f00bc72:	6a30      	li	v0,48
7f00bc74:	d204      	sw	v0,16(sp)
7f00bc76:	0507      	addiu	a1,sp,28
7f00bc78:	0206      	addiu	v0,sp,24
7f00bc7a:	40ef      	addiu	a3,s0,-1
7f00bc7c:	181e 2af6 	jal	7f00abd8 <cvtround>
7f00bc80:	d205      	sw	v0,20(sp)
7f00bc82:	67c2      	move	a2,v0
7f00bc84:	6770      	move	v1,s0
7f00bc86:	921a      	lw	v0,104(sp)
7f00bc88:	1003      	b	7f00bc90 <_doprnt+0xff4>
7f00bc8a:	6c30      	li	a0,48
7f00bc8c:	c380      	sb	a0,0(v1)
7f00bc8e:	4b01      	addiu	v1,1
7f00bc90:	4aff      	addiu	v0,-1
7f00bc92:	4281      	addiu	a0,v0,1
7f00bc94:	2cfa      	bnez	a0,7f00bc8a <_doprnt+0xfee>
7f00bc96:	941a      	lw	a0,104(sp)
7f00bc98:	9524      	lw	a1,144(sp)
7f00bc9a:	e081      	addu	s0,a0
7f00bc9c:	250f      	beqz	a1,7f00bcbc <_doprnt+0x1020>
7f00bc9e:	9220      	lw	v0,128(sp)
7f00bca0:	2a0d      	bnez	v0,7f00bcbc <_doprnt+0x1020>
7f00bca2:	ee03      	sltu	a2,s0
7f00bca4:	6004      	bteqz	7f00bcae <_doprnt+0x1012>
7f00bca6:	48ff      	addiu	s0,-1
7f00bca8:	a040      	lbu	v0,0(s0)
7f00bcaa:	7230      	cmpi	v0,48
7f00bcac:	60fa      	bteqz	7f00bca2 <_doprnt+0x1006>
7f00bcae:	a040      	lbu	v0,0(s0)
7f00bcb0:	722e      	cmpi	v0,46
7f00bcb2:	6778      	move	v1,t8
7f00bcb4:	5b01      	sltiu	v1,1
7f00bcb6:	6798      	move	a0,t8
7f00bcb8:	e083      	subu	s0,a0
7f00bcba:	4801      	addiu	s0,1
7f00bcbc:	9207      	lw	v0,28(sp)
7f00bcbe:	67bd      	move	a1,sp
7f00bcc0:	f060 a5bc 	lbu	a1,124(a1)
7f00bcc4:	5200      	slti	v0,0
7f00bcc6:	4081      	addiu	a0,s0,1
7f00bcc8:	c0a0      	sb	a1,0(s0)
7f00bcca:	4062      	addiu	v1,s0,2
7f00bccc:	6d2b      	li	a1,43
7f00bcce:	6002      	bteqz	7f00bcd4 <_doprnt+0x1038>
7f00bcd0:	ea4b      	neg	v0
7f00bcd2:	6d2d      	li	a1,45
7f00bcd4:	520a      	slti	v0,10
7f00bcd6:	c4a0      	sb	a1,0(a0)
7f00bcd8:	6703      	move	s0,v1
7f00bcda:	6118      	btnez	7f00bd0c <_doprnt+0x1070>
7f00bcdc:	030c      	addiu	v1,sp,48
7f00bcde:	6c0a      	li	a0,10
7f00bce0:	ea9a      	div	zero,v0,a0
7f00bce2:	2c01      	bnez	a0,7f00bce6 <_doprnt+0x104a>
7f00bce4:	e8e5      	break	7
7f00bce6:	4bff      	addiu	v1,-1
7f00bce8:	ec10      	mfhi	a0
7f00bcea:	4c30      	addiu	a0,48
7f00bcec:	c380      	sb	a0,0(v1)
7f00bcee:	ea12      	mflo	v0
7f00bcf0:	520a      	slti	v0,10
7f00bcf2:	60f5      	bteqz	7f00bcde <_doprnt+0x1042>
7f00bcf4:	4bff      	addiu	v1,-1
7f00bcf6:	4a30      	addiu	v0,48
7f00bcf8:	c340      	sb	v0,0(v1)
7f00bcfa:	1004      	b	7f00bd04 <_doprnt+0x1068>
7f00bcfc:	a340      	lbu	v0,0(v1)
7f00bcfe:	4b01      	addiu	v1,1
7f00bd00:	c040      	sb	v0,0(s0)
7f00bd02:	4801      	addiu	s0,1
7f00bd04:	020c      	addiu	v0,sp,48
7f00bd06:	eb43      	sltu	v1,v0
7f00bd08:	61f9      	btnez	7f00bcfc <_doprnt+0x1060>
7f00bd0a:	1093      	b	7f00be32 <_doprnt+0x1196>
7f00bd0c:	6c30      	li	a0,48
7f00bd0e:	4a30      	addiu	v0,48
7f00bd10:	c380      	sb	a0,0(v1)
7f00bd12:	c341      	sb	v0,1(v1)
7f00bd14:	4302      	addiu	s0,v1,2
7f00bd16:	108d      	b	7f00be32 <_doprnt+0x1196>
7f00bd18:	921a      	lw	v0,104(sp)
7f00bd1a:	2a02      	bnez	v0,7f00bd20 <_doprnt+0x1084>
7f00bd1c:	6c01      	li	a0,1
7f00bd1e:	d41a      	sw	a0,104(sp)
7f00bd20:	9207      	lw	v0,28(sp)
7f00bd22:	951a      	lw	a1,104(sp)
7f00bd24:	ed42      	slt	a1,v0
7f00bd26:	6112      	btnez	7f00bd4c <_doprnt+0x10b0>
7f00bd28:	f020 0011 	addiu	s0,sp,49
7f00bd2c:	2a1e      	bnez	v0,7f00bd6a <_doprnt+0x10ce>
7f00bd2e:	941d      	lw	a0,116(sp)
7f00bd30:	f4e0 b51c 	lw	a1,7f00c22c <_doprnt+0x1590>
7f00bd34:	1c1e 332d 	jalx	7f00ccb4 <__eqsf2>
7f00bd38:	d327      	sw	v1,156(sp)
7f00bd3a:	221c      	beqz	v0,7f00bd74 <_doprnt+0x10d8>
7f00bd3c:	f500 b510 	lw	a1,7f00c24c <_doprnt+0x15b0>
7f00bd40:	1c1e 3383 	jalx	7f00ce0c <__lesf2>
7f00bd44:	941d      	lw	a0,116(sp)
7f00bd46:	5200      	slti	v0,0
7f00bd48:	9327      	lw	v1,156(sp)
7f00bd4a:	6014      	bteqz	7f00bd74 <_doprnt+0x10d8>
7f00bd4c:	921a      	lw	v0,104(sp)
7f00bd4e:	6c01      	li	a0,1
7f00bd50:	4aff      	addiu	v0,-1
7f00bd52:	d21a      	sw	v0,104(sp)
7f00bd54:	921f      	lw	v0,124(sp)
7f00bd56:	4afe      	addiu	v0,-2
7f00bd58:	ea11      	zeb	v0
7f00bd5a:	d21f      	sw	v0,124(sp)
7f00bd5c:	16d3      	b	7f00bb04 <_doprnt+0xe68>
7f00bd5e:	a340      	lbu	v0,0(v1)
7f00bd60:	c040      	sb	v0,0(s0)
7f00bd62:	951a      	lw	a1,104(sp)
7f00bd64:	4801      	addiu	s0,1
7f00bd66:	4dff      	addiu	a1,-1
7f00bd68:	d51a      	sw	a1,104(sp)
7f00bd6a:	4b01      	addiu	v1,1
7f00bd6c:	0218      	addiu	v0,sp,96
7f00bd6e:	eb43      	sltu	v1,v0
7f00bd70:	61f6      	btnez	7f00bd5e <_doprnt+0x10c2>
7f00bd72:	1006      	b	7f00bd80 <_doprnt+0x10e4>
7f00bd74:	6a30      	li	v0,48
7f00bd76:	677d      	move	v1,sp
7f00bd78:	f020 c351 	sb	v0,49(v1)
7f00bd7c:	f020 0012 	addiu	s0,sp,50
7f00bd80:	921a      	lw	v0,104(sp)
7f00bd82:	9420      	lw	a0,128(sp)
7f00bd84:	6d00      	li	a1,0
7f00bd86:	d51f      	sw	a1,124(sp)
7f00bd88:	ea8d      	or	v0,a0
7f00bd8a:	2219      	beqz	v0,7f00bdbe <_doprnt+0x1122>
7f00bd8c:	6a2e      	li	v0,46
7f00bd8e:	c040      	sb	v0,0(s0)
7f00bd90:	6a01      	li	v0,1
7f00bd92:	4801      	addiu	s0,1
7f00bd94:	d21f      	sw	v0,124(sp)
7f00bd96:	1013      	b	7f00bdbe <_doprnt+0x1122>
7f00bd98:	f4a0 b50c 	lw	a1,7f00c244 <_doprnt+0x15a8>
7f00bd9c:	1c1e 33bb 	jalx	7f00ceec <__mulsf3>
7f00bda0:	941d      	lw	a0,116(sp)
7f00bda2:	6782      	move	a0,v0
7f00bda4:	181e 30b8 	jal	7f00c2e0 <modf>
7f00bda8:	0509      	addiu	a1,sp,36
7f00bdaa:	9409      	lw	a0,36(sp)
7f00bdac:	1c1e 360b 	jalx	7f00d82c <__fixsfsi>
7f00bdb0:	d21d      	sw	v0,116(sp)
7f00bdb2:	4a30      	addiu	v0,48
7f00bdb4:	c040      	sb	v0,0(s0)
7f00bdb6:	931a      	lw	v1,104(sp)
7f00bdb8:	4801      	addiu	s0,1
7f00bdba:	4bff      	addiu	v1,-1
7f00bdbc:	d31a      	sw	v1,104(sp)
7f00bdbe:	941a      	lw	a0,104(sp)
7f00bdc0:	2406      	beqz	a0,7f00bdce <_doprnt+0x1132>
7f00bdc2:	f460 b50c 	lw	a1,7f00c22c <_doprnt+0x1590>
7f00bdc6:	1c1e 332d 	jalx	7f00ccb4 <__eqsf2>
7f00bdca:	941d      	lw	a0,116(sp)
7f00bdcc:	2ae5      	bnez	v0,7f00bd98 <_doprnt+0x10fc>
7f00bdce:	f460 b500 	lw	a1,7f00c22c <_doprnt+0x1590>
7f00bdd2:	1c1e 332d 	jalx	7f00ccb4 <__eqsf2>
7f00bdd6:	941d      	lw	a0,116(sp)
7f00bdd8:	f020 0611 	addiu	a2,sp,49
7f00bddc:	220c      	beqz	v0,7f00bdf6 <_doprnt+0x115a>
7f00bdde:	941d      	lw	a0,116(sp)
7f00bde0:	6a30      	li	v0,48
7f00bde2:	d204      	sw	v0,16(sp)
7f00bde4:	f020 0611 	addiu	a2,sp,49
7f00bde8:	0206      	addiu	v0,sp,24
7f00bdea:	6d00      	li	a1,0
7f00bdec:	40ef      	addiu	a3,s0,-1
7f00bdee:	181e 2af6 	jal	7f00abd8 <cvtround>
7f00bdf2:	d205      	sw	v0,20(sp)
7f00bdf4:	67c2      	move	a2,v0
7f00bdf6:	9520      	lw	a1,128(sp)
7f00bdf8:	250c      	beqz	a1,7f00be12 <_doprnt+0x1176>
7f00bdfa:	6770      	move	v1,s0
7f00bdfc:	921a      	lw	v0,104(sp)
7f00bdfe:	1003      	b	7f00be06 <_doprnt+0x116a>
7f00be00:	6c30      	li	a0,48
7f00be02:	c380      	sb	a0,0(v1)
7f00be04:	4b01      	addiu	v1,1
7f00be06:	4aff      	addiu	v0,-1
7f00be08:	4281      	addiu	a0,v0,1
7f00be0a:	2cfa      	bnez	a0,7f00be00 <_doprnt+0x1164>
7f00be0c:	921a      	lw	v0,104(sp)
7f00be0e:	e041      	addu	s0,v0
7f00be10:	1010      	b	7f00be32 <_doprnt+0x1196>
7f00be12:	931f      	lw	v1,124(sp)
7f00be14:	230e      	beqz	v1,7f00be32 <_doprnt+0x1196>
7f00be16:	ee03      	sltu	a2,s0
7f00be18:	6004      	bteqz	7f00be22 <_doprnt+0x1186>
7f00be1a:	48ff      	addiu	s0,-1
7f00be1c:	a040      	lbu	v0,0(s0)
7f00be1e:	7230      	cmpi	v0,48
7f00be20:	60fa      	bteqz	7f00be16 <_doprnt+0x117a>
7f00be22:	a040      	lbu	v0,0(s0)
7f00be24:	722e      	cmpi	v0,46
7f00be26:	6005      	bteqz	7f00be32 <_doprnt+0x1196>
7f00be28:	4801      	addiu	s0,1
7f00be2a:	1003      	b	7f00be32 <_doprnt+0x1196>
7f00be2c:	f020 0011 	addiu	s0,sp,49
7f00be30:	67d0      	move	a2,s0
7f00be32:	679d      	move	a0,sp
7f00be34:	f020 a450 	lbu	v0,48(a0)
7f00be38:	e0c3      	subu	s0,a2
7f00be3a:	e811      	zeb	s0
7f00be3c:	c419      	sb	s0,25(a0)
7f00be3e:	2206      	beqz	v0,7f00be4c <_doprnt+0x11b0>
7f00be40:	0506      	addiu	a1,sp,24
7f00be42:	e501      	addu	s0,a1,s0
7f00be44:	6a00      	li	v0,0
7f00be46:	c058      	sb	v0,24(s0)
7f00be48:	000c      	addiu	s0,sp,48
7f00be4a:	1005      	b	7f00be56 <_doprnt+0x11ba>
7f00be4c:	0306      	addiu	v1,sp,24
7f00be4e:	e301      	addu	s0,v1,s0
7f00be50:	c059      	sb	v0,25(s0)
7f00be52:	f020 0011 	addiu	s0,sp,49
7f00be56:	679d      	move	a0,sp
7f00be58:	a458      	lbu	v0,24(a0)
7f00be5a:	2a02      	bnez	v0,7f00be60 <_doprnt+0x11c4>
7f00be5c:	9523      	lw	a1,140(sp)
7f00be5e:	2504      	beqz	a1,7f00be68 <_doprnt+0x11cc>
7f00be60:	677d      	move	v1,sp
7f00be62:	a359      	lbu	v0,25(v1)
7f00be64:	4a01      	addiu	v0,1
7f00be66:	c359      	sb	v0,25(v1)
7f00be68:	941e      	lw	a0,120(sp)
7f00be6a:	2c33      	bnez	a0,7f00bed2 <_doprnt+0x1236>
7f00be6c:	951c      	lw	a1,112(sp)
7f00be6e:	2531      	beqz	a1,7f00bed2 <_doprnt+0x1236>
7f00be70:	9221      	lw	v0,132(sp)
7f00be72:	7220      	cmpi	v0,32
7f00be74:	612e      	btnez	7f00bed2 <_doprnt+0x1236>
7f00be76:	677d      	move	v1,sp
7f00be78:	a359      	lbu	v0,25(v1)
7f00be7a:	e557      	subu	a1,v0
7f00be7c:	5501      	slti	a1,1
7f00be7e:	d51c      	sw	a1,112(sp)
7f00be80:	6128      	btnez	7f00bed2 <_doprnt+0x1236>
7f00be82:	6765      	move	v1,a1
7f00be84:	9940      	lw	v0,0(s1)
7f00be86:	4aff      	addiu	v0,-1
7f00be88:	5200      	slti	v0,0
7f00be8a:	d940      	sw	v0,0(s1)
7f00be8c:	6104      	btnez	7f00be96 <_doprnt+0x11fa>
7f00be8e:	9941      	lw	v0,4(s1)
7f00be90:	6c20      	li	a0,32
7f00be92:	c280      	sb	a0,0(v0)
7f00be94:	100c      	b	7f00beae <_doprnt+0x1212>
7f00be96:	a988      	lhu	a0,16(s1)
7f00be98:	6d80      	li	a1,128
7f00be9a:	ecac      	and	a0,a1
7f00be9c:	240b      	beqz	a0,7f00beb4 <_doprnt+0x1218>
7f00be9e:	9983      	lw	a0,12(s1)
7f00bea0:	ea4b      	neg	v0
7f00bea2:	ea82      	slt	v0,a0
7f00bea4:	6007      	bteqz	7f00beb4 <_doprnt+0x1218>
7f00bea6:	9941      	lw	v0,4(s1)
7f00bea8:	6c20      	li	a0,32
7f00beaa:	c280      	sb	a0,0(v0)
7f00beac:	9941      	lw	v0,4(s1)
7f00beae:	4a01      	addiu	v0,1
7f00beb0:	d941      	sw	v0,4(s1)
7f00beb2:	1006      	b	7f00bec0 <_doprnt+0x1224>
7f00beb4:	6c20      	li	a0,32
7f00beb6:	67b1      	move	a1,s1
7f00beb8:	181e 2788 	jal	7f009e20 <_flsbuf>
7f00bebc:	d327      	sw	v1,156(sp)
7f00bebe:	9327      	lw	v1,156(sp)
7f00bec0:	4bff      	addiu	v1,-1
7f00bec2:	5301      	slti	v1,1
7f00bec4:	60df      	bteqz	7f00be84 <_doprnt+0x11e8>
7f00bec6:	941b      	lw	a0,108(sp)
7f00bec8:	951c      	lw	a1,112(sp)
7f00beca:	6a00      	li	v0,0
7f00becc:	d21c      	sw	v0,112(sp)
7f00bece:	e4b1      	addu	a0,a1
7f00bed0:	d41b      	sw	a0,108(sp)
7f00bed2:	677d      	move	v1,sp
7f00bed4:	a358      	lbu	v0,24(v1)
7f00bed6:	2220      	beqz	v0,7f00bf18 <_doprnt+0x127c>
7f00bed8:	9940      	lw	v0,0(s1)
7f00beda:	4aff      	addiu	v0,-1
7f00bedc:	5200      	slti	v0,0
7f00bede:	d940      	sw	v0,0(s1)
7f00bee0:	6104      	btnez	7f00beea <_doprnt+0x124e>
7f00bee2:	9941      	lw	v0,4(s1)
7f00bee4:	6b2d      	li	v1,45
7f00bee6:	c260      	sb	v1,0(v0)
7f00bee8:	100c      	b	7f00bf02 <_doprnt+0x1266>
7f00beea:	a968      	lhu	v1,16(s1)
7f00beec:	6c80      	li	a0,128
7f00beee:	eb8c      	and	v1,a0
7f00bef0:	230b      	beqz	v1,7f00bf08 <_doprnt+0x126c>
7f00bef2:	9963      	lw	v1,12(s1)
7f00bef4:	ea4b      	neg	v0
7f00bef6:	ea62      	slt	v0,v1
7f00bef8:	6007      	bteqz	7f00bf08 <_doprnt+0x126c>
7f00befa:	9941      	lw	v0,4(s1)
7f00befc:	6b2d      	li	v1,45
7f00befe:	c260      	sb	v1,0(v0)
7f00bf00:	9941      	lw	v0,4(s1)
7f00bf02:	4a01      	addiu	v0,1
7f00bf04:	d941      	sw	v0,4(s1)
7f00bf06:	1004      	b	7f00bf10 <_doprnt+0x1274>
7f00bf08:	6c2d      	li	a0,45
7f00bf0a:	181e 2788 	jal	7f009e20 <_flsbuf>
7f00bf0e:	67b1      	move	a1,s1
7f00bf10:	941b      	lw	a0,108(sp)
7f00bf12:	4c01      	addiu	a0,1
7f00bf14:	d41b      	sw	a0,108(sp)
7f00bf16:	1021      	b	7f00bf5a <_doprnt+0x12be>
7f00bf18:	9523      	lw	a1,140(sp)
7f00bf1a:	251f      	beqz	a1,7f00bf5a <_doprnt+0x12be>
7f00bf1c:	9940      	lw	v0,0(s1)
7f00bf1e:	4aff      	addiu	v0,-1
7f00bf20:	5200      	slti	v0,0
7f00bf22:	d940      	sw	v0,0(s1)
7f00bf24:	6104      	btnez	7f00bf2e <_doprnt+0x1292>
7f00bf26:	9941      	lw	v0,4(s1)
7f00bf28:	6b2b      	li	v1,43
7f00bf2a:	c260      	sb	v1,0(v0)
7f00bf2c:	100c      	b	7f00bf46 <_doprnt+0x12aa>
7f00bf2e:	a968      	lhu	v1,16(s1)
7f00bf30:	6c80      	li	a0,128
7f00bf32:	eb8c      	and	v1,a0
7f00bf34:	230b      	beqz	v1,7f00bf4c <_doprnt+0x12b0>
7f00bf36:	9963      	lw	v1,12(s1)
7f00bf38:	ea4b      	neg	v0
7f00bf3a:	ea62      	slt	v0,v1
7f00bf3c:	6007      	bteqz	7f00bf4c <_doprnt+0x12b0>
7f00bf3e:	9941      	lw	v0,4(s1)
7f00bf40:	6b2b      	li	v1,43
7f00bf42:	c260      	sb	v1,0(v0)
7f00bf44:	9941      	lw	v0,4(s1)
7f00bf46:	4a01      	addiu	v0,1
7f00bf48:	d941      	sw	v0,4(s1)
7f00bf4a:	1004      	b	7f00bf54 <_doprnt+0x12b8>
7f00bf4c:	6c2b      	li	a0,43
7f00bf4e:	181e 2788 	jal	7f009e20 <_flsbuf>
7f00bf52:	67b1      	move	a1,s1
7f00bf54:	921b      	lw	v0,108(sp)
7f00bf56:	4a01      	addiu	v0,1
7f00bf58:	d21b      	sw	v0,108(sp)
7f00bf5a:	931e      	lw	v1,120(sp)
7f00bf5c:	f080 2b05 	bnez	v1,7f00c06a <_doprnt+0x13ce>
7f00bf60:	941c      	lw	a0,112(sp)
7f00bf62:	f080 2402 	beqz	a0,7f00c06a <_doprnt+0x13ce>
7f00bf66:	67bd      	move	a1,sp
7f00bf68:	a559      	lbu	v0,25(a1)
7f00bf6a:	e44f      	subu	v1,a0,v0
7f00bf6c:	5301      	slti	v1,1
7f00bf6e:	d31c      	sw	v1,112(sp)
7f00bf70:	617c      	btnez	7f00c06a <_doprnt+0x13ce>
7f00bf72:	9940      	lw	v0,0(s1)
7f00bf74:	4aff      	addiu	v0,-1
7f00bf76:	5200      	slti	v0,0
7f00bf78:	d940      	sw	v0,0(s1)
7f00bf7a:	6107      	btnez	7f00bf8a <_doprnt+0x12ee>
7f00bf7c:	679d      	move	a0,sp
7f00bf7e:	44a7      	addiu	a1,a0,7
7f00bf80:	4d7d      	addiu	a1,125
7f00bf82:	9941      	lw	v0,4(s1)
7f00bf84:	a580      	lbu	a0,0(a1)
7f00bf86:	c280      	sb	a0,0(v0)
7f00bf88:	100f      	b	7f00bfa8 <_doprnt+0x130c>
7f00bf8a:	a988      	lhu	a0,16(s1)
7f00bf8c:	6d80      	li	a1,128
7f00bf8e:	ecac      	and	a0,a1
7f00bf90:	240e      	beqz	a0,7f00bfae <_doprnt+0x1312>
7f00bf92:	9983      	lw	a0,12(s1)
7f00bf94:	ea4b      	neg	v0
7f00bf96:	ea82      	slt	v0,a0
7f00bf98:	600a      	bteqz	7f00bfae <_doprnt+0x1312>
7f00bf9a:	67bd      	move	a1,sp
7f00bf9c:	4587      	addiu	a0,a1,7
7f00bf9e:	4c7d      	addiu	a0,125
7f00bfa0:	9941      	lw	v0,4(s1)
7f00bfa2:	a4a0      	lbu	a1,0(a0)
7f00bfa4:	c2a0      	sb	a1,0(v0)
7f00bfa6:	9941      	lw	v0,4(s1)
7f00bfa8:	4a01      	addiu	v0,1
7f00bfaa:	d941      	sw	v0,4(s1)
7f00bfac:	1006      	b	7f00bfba <_doprnt+0x131e>
7f00bfae:	9421      	lw	a0,132(sp)
7f00bfb0:	67b1      	move	a1,s1
7f00bfb2:	181e 2788 	jal	7f009e20 <_flsbuf>
7f00bfb6:	d327      	sw	v1,156(sp)
7f00bfb8:	9327      	lw	v1,156(sp)
7f00bfba:	4bff      	addiu	v1,-1
7f00bfbc:	5301      	slti	v1,1
7f00bfbe:	60d9      	bteqz	7f00bf72 <_doprnt+0x12d6>
7f00bfc0:	921b      	lw	v0,108(sp)
7f00bfc2:	931c      	lw	v1,112(sp)
7f00bfc4:	6c00      	li	a0,0
7f00bfc6:	d41c      	sw	a0,112(sp)
7f00bfc8:	e269      	addu	v0,v1
7f00bfca:	d21b      	sw	v0,108(sp)
7f00bfcc:	104e      	b	7f00c06a <_doprnt+0x13ce>
7f00bfce:	9522      	lw	a1,136(sp)
7f00bfd0:	2528      	beqz	a1,7f00c022 <_doprnt+0x1386>
7f00bfd2:	7265      	cmpi	v0,101
7f00bfd4:	6002      	bteqz	7f00bfda <_doprnt+0x133e>
7f00bfd6:	7245      	cmpi	v0,69
7f00bfd8:	6124      	btnez	7f00c022 <_doprnt+0x1386>
7f00bfda:	9940      	lw	v0,0(s1)
7f00bfdc:	4aff      	addiu	v0,-1
7f00bfde:	5200      	slti	v0,0
7f00bfe0:	d940      	sw	v0,0(s1)
7f00bfe2:	6104      	btnez	7f00bfec <_doprnt+0x1350>
7f00bfe4:	9941      	lw	v0,4(s1)
7f00bfe6:	6b30      	li	v1,48
7f00bfe8:	c260      	sb	v1,0(v0)
7f00bfea:	100c      	b	7f00c004 <_doprnt+0x1368>
7f00bfec:	a968      	lhu	v1,16(s1)
7f00bfee:	6c80      	li	a0,128
7f00bff0:	eb8c      	and	v1,a0
7f00bff2:	230b      	beqz	v1,7f00c00a <_doprnt+0x136e>
7f00bff4:	9963      	lw	v1,12(s1)
7f00bff6:	ea4b      	neg	v0
7f00bff8:	ea62      	slt	v0,v1
7f00bffa:	6007      	bteqz	7f00c00a <_doprnt+0x136e>
7f00bffc:	9941      	lw	v0,4(s1)
7f00bffe:	6b30      	li	v1,48
7f00c000:	c260      	sb	v1,0(v0)
7f00c002:	9941      	lw	v0,4(s1)
7f00c004:	4a01      	addiu	v0,1
7f00c006:	d941      	sw	v0,4(s1)
7f00c008:	1004      	b	7f00c012 <_doprnt+0x1376>
7f00c00a:	6c30      	li	a0,48
7f00c00c:	181e 2788 	jal	7f009e20 <_flsbuf>
7f00c010:	67b1      	move	a1,s1
7f00c012:	921b      	lw	v0,108(sp)
7f00c014:	9322      	lw	v1,136(sp)
7f00c016:	4a01      	addiu	v0,1
7f00c018:	4bff      	addiu	v1,-1
7f00c01a:	d21b      	sw	v0,108(sp)
7f00c01c:	d322      	sw	v1,136(sp)
7f00c01e:	5301      	slti	v1,1
7f00c020:	17db      	b	7f00bfd8 <_doprnt+0x133c>
7f00c022:	9940      	lw	v0,0(s1)
7f00c024:	4aff      	addiu	v0,-1
7f00c026:	5200      	slti	v0,0
7f00c028:	d940      	sw	v0,0(s1)
7f00c02a:	6104      	btnez	7f00c034 <_doprnt+0x1398>
7f00c02c:	9941      	lw	v0,4(s1)
7f00c02e:	a060      	lbu	v1,0(s0)
7f00c030:	c260      	sb	v1,0(v0)
7f00c032:	100e      	b	7f00c050 <_doprnt+0x13b4>
7f00c034:	a968      	lhu	v1,16(s1)
7f00c036:	6c80      	li	a0,128
7f00c038:	eb8c      	and	v1,a0
7f00c03a:	230f      	beqz	v1,7f00c05a <_doprnt+0x13be>
7f00c03c:	9963      	lw	v1,12(s1)
7f00c03e:	ea4b      	neg	v0
7f00c040:	ea62      	slt	v0,v1
7f00c042:	600b      	bteqz	7f00c05a <_doprnt+0x13be>
7f00c044:	8040      	lb	v0,0(s0)
7f00c046:	9961      	lw	v1,4(s1)
7f00c048:	720a      	cmpi	v0,10
7f00c04a:	c340      	sb	v0,0(v1)
7f00c04c:	9941      	lw	v0,4(s1)
7f00c04e:	6003      	bteqz	7f00c056 <_doprnt+0x13ba>
7f00c050:	4a01      	addiu	v0,1
7f00c052:	d941      	sw	v0,4(s1)
7f00c054:	1006      	b	7f00c062 <_doprnt+0x13c6>
7f00c056:	a280      	lbu	a0,0(v0)
7f00c058:	1001      	b	7f00c05c <_doprnt+0x13c0>
7f00c05a:	a080      	lbu	a0,0(s0)
7f00c05c:	181e 2788 	jal	7f009e20 <_flsbuf>
7f00c060:	67b1      	move	a1,s1
7f00c062:	941b      	lw	a0,108(sp)
7f00c064:	4801      	addiu	s0,1
7f00c066:	4c01      	addiu	a0,1
7f00c068:	d41b      	sw	a0,108(sp)
7f00c06a:	a040      	lbu	v0,0(s0)
7f00c06c:	2ab0      	bnez	v0,7f00bfce <_doprnt+0x1332>
7f00c06e:	9522      	lw	a1,136(sp)
7f00c070:	2523      	beqz	a1,7f00c0b8 <_doprnt+0x141c>
7f00c072:	6705      	move	s0,a1
7f00c074:	9940      	lw	v0,0(s1)
7f00c076:	4aff      	addiu	v0,-1
7f00c078:	5200      	slti	v0,0
7f00c07a:	d940      	sw	v0,0(s1)
7f00c07c:	6104      	btnez	7f00c086 <_doprnt+0x13ea>
7f00c07e:	9941      	lw	v0,4(s1)
7f00c080:	6b30      	li	v1,48
7f00c082:	c260      	sb	v1,0(v0)
7f00c084:	100c      	b	7f00c09e <_doprnt+0x1402>
7f00c086:	a968      	lhu	v1,16(s1)
7f00c088:	6c80      	li	a0,128
7f00c08a:	eb8c      	and	v1,a0
7f00c08c:	230b      	beqz	v1,7f00c0a4 <_doprnt+0x1408>
7f00c08e:	9963      	lw	v1,12(s1)
7f00c090:	ea4b      	neg	v0
7f00c092:	ea62      	slt	v0,v1
7f00c094:	6007      	bteqz	7f00c0a4 <_doprnt+0x1408>
7f00c096:	9941      	lw	v0,4(s1)
7f00c098:	6b30      	li	v1,48
7f00c09a:	c260      	sb	v1,0(v0)
7f00c09c:	9941      	lw	v0,4(s1)
7f00c09e:	4a01      	addiu	v0,1
7f00c0a0:	d941      	sw	v0,4(s1)
7f00c0a2:	1004      	b	7f00c0ac <_doprnt+0x1410>
7f00c0a4:	6c30      	li	a0,48
7f00c0a6:	181e 2788 	jal	7f009e20 <_flsbuf>
7f00c0aa:	67b1      	move	a1,s1
7f00c0ac:	921b      	lw	v0,108(sp)
7f00c0ae:	48ff      	addiu	s0,-1
7f00c0b0:	5001      	slti	s0,1
7f00c0b2:	4a01      	addiu	v0,1
7f00c0b4:	d21b      	sw	v0,108(sp)
7f00c0b6:	60de      	bteqz	7f00c074 <_doprnt+0x13d8>
7f00c0b8:	931e      	lw	v1,120(sp)
7f00c0ba:	f63e 2300 	beqz	v1,7f00acfe <_doprnt+0x62>
7f00c0be:	941c      	lw	a0,112(sp)
7f00c0c0:	f61e 241d 	beqz	a0,7f00acfe <_doprnt+0x62>
7f00c0c4:	67bd      	move	a1,sp
7f00c0c6:	a579      	lbu	v1,25(a1)
7f00c0c8:	e46f      	subu	v1,a0,v1
7f00c0ca:	5301      	slti	v1,1
7f00c0cc:	f61e 6117 	btnez	7f00acfe <_doprnt+0x62>
7f00c0d0:	6703      	move	s0,v1
7f00c0d2:	9940      	lw	v0,0(s1)
7f00c0d4:	4aff      	addiu	v0,-1
7f00c0d6:	5200      	slti	v0,0
7f00c0d8:	d940      	sw	v0,0(s1)
7f00c0da:	6104      	btnez	7f00c0e4 <_doprnt+0x1448>
7f00c0dc:	9941      	lw	v0,4(s1)
7f00c0de:	6c20      	li	a0,32
7f00c0e0:	c280      	sb	a0,0(v0)
7f00c0e2:	100c      	b	7f00c0fc <_doprnt+0x1460>
7f00c0e4:	a988      	lhu	a0,16(s1)
7f00c0e6:	6d80      	li	a1,128
7f00c0e8:	ecac      	and	a0,a1
7f00c0ea:	240b      	beqz	a0,7f00c102 <_doprnt+0x1466>
7f00c0ec:	9983      	lw	a0,12(s1)
7f00c0ee:	ea4b      	neg	v0
7f00c0f0:	ea82      	slt	v0,a0
7f00c0f2:	6007      	bteqz	7f00c102 <_doprnt+0x1466>
7f00c0f4:	9941      	lw	v0,4(s1)
7f00c0f6:	6c20      	li	a0,32
7f00c0f8:	c280      	sb	a0,0(v0)
7f00c0fa:	9941      	lw	v0,4(s1)
7f00c0fc:	4a01      	addiu	v0,1
7f00c0fe:	d941      	sw	v0,4(s1)
7f00c100:	1006      	b	7f00c10e <_doprnt+0x1472>
7f00c102:	6c20      	li	a0,32
7f00c104:	67b1      	move	a1,s1
7f00c106:	181e 2788 	jal	7f009e20 <_flsbuf>
7f00c10a:	d327      	sw	v1,156(sp)
7f00c10c:	9327      	lw	v1,156(sp)
7f00c10e:	48ff      	addiu	s0,-1
7f00c110:	5001      	slti	s0,1
7f00c112:	60df      	bteqz	7f00c0d2 <_doprnt+0x1436>
7f00c114:	921b      	lw	v0,108(sp)
7f00c116:	e269      	addu	v0,v1
7f00c118:	d21b      	sw	v0,108(sp)
7f00c11a:	f5fe 1010 	b	7f00acfe <_doprnt+0x62>
7f00c11e:	9940      	lw	v0,0(s1)
7f00c120:	d41f      	sw	a0,124(sp)
7f00c122:	6789      	move	a0,t1
7f00c124:	4aff      	addiu	v0,-1
7f00c126:	5200      	slti	v0,0
7f00c128:	676c      	move	v1,t4
7f00c12a:	d72c      	sw	a3,176(sp)
7f00c12c:	d42d      	sw	a0,180(sp)
7f00c12e:	d940      	sw	v0,0(s1)
7f00c130:	6104      	btnez	7f00c13a <_doprnt+0x149e>
7f00c132:	9941      	lw	v0,4(s1)
7f00c134:	6c25      	li	a0,37
7f00c136:	c280      	sb	a0,0(v0)
7f00c138:	100c      	b	7f00c152 <_doprnt+0x14b6>
7f00c13a:	a988      	lhu	a0,16(s1)
7f00c13c:	6d80      	li	a1,128
7f00c13e:	ecac      	and	a0,a1
7f00c140:	240b      	beqz	a0,7f00c158 <_doprnt+0x14bc>
7f00c142:	9983      	lw	a0,12(s1)
7f00c144:	ea4b      	neg	v0
7f00c146:	ea82      	slt	v0,a0
7f00c148:	6007      	bteqz	7f00c158 <_doprnt+0x14bc>
7f00c14a:	9941      	lw	v0,4(s1)
7f00c14c:	6c25      	li	a0,37
7f00c14e:	c280      	sb	a0,0(v0)
7f00c150:	9941      	lw	v0,4(s1)
7f00c152:	4a01      	addiu	v0,1
7f00c154:	d941      	sw	v0,4(s1)
7f00c156:	1006      	b	7f00c164 <_doprnt+0x14c8>
7f00c158:	6c25      	li	a0,37
7f00c15a:	67b1      	move	a1,s1
7f00c15c:	181e 2788 	jal	7f009e20 <_flsbuf>
7f00c160:	d327      	sw	v1,156(sp)
7f00c162:	9327      	lw	v1,156(sp)
7f00c164:	951b      	lw	a1,108(sp)
7f00c166:	4d01      	addiu	a1,1
7f00c168:	d51b      	sw	a1,108(sp)
7f00c16a:	2021      	beqz	s0,7f00c1ae <_doprnt+0x1512>
7f00c16c:	9940      	lw	v0,0(s1)
7f00c16e:	4aff      	addiu	v0,-1
7f00c170:	5200      	slti	v0,0
7f00c172:	d940      	sw	v0,0(s1)
7f00c174:	6104      	btnez	7f00c17e <_doprnt+0x14e2>
7f00c176:	9941      	lw	v0,4(s1)
7f00c178:	6c6c      	li	a0,108
7f00c17a:	c280      	sb	a0,0(v0)
7f00c17c:	100c      	b	7f00c196 <_doprnt+0x14fa>
7f00c17e:	a988      	lhu	a0,16(s1)
7f00c180:	6d80      	li	a1,128
7f00c182:	ecac      	and	a0,a1
7f00c184:	240b      	beqz	a0,7f00c19c <_doprnt+0x1500>
7f00c186:	9983      	lw	a0,12(s1)
7f00c188:	ea4b      	neg	v0
7f00c18a:	ea82      	slt	v0,a0
7f00c18c:	6007      	bteqz	7f00c19c <_doprnt+0x1500>
7f00c18e:	9941      	lw	v0,4(s1)
7f00c190:	6c6c      	li	a0,108
7f00c192:	c280      	sb	a0,0(v0)
7f00c194:	9941      	lw	v0,4(s1)
7f00c196:	4a01      	addiu	v0,1
7f00c198:	d941      	sw	v0,4(s1)
7f00c19a:	1006      	b	7f00c1a8 <_doprnt+0x150c>
7f00c19c:	6c6c      	li	a0,108
7f00c19e:	67b1      	move	a1,s1
7f00c1a0:	181e 2788 	jal	7f009e20 <_flsbuf>
7f00c1a4:	d327      	sw	v1,156(sp)
7f00c1a6:	9327      	lw	v1,156(sp)
7f00c1a8:	921b      	lw	v0,108(sp)
7f00c1aa:	4a01      	addiu	v0,1
7f00c1ac:	d21b      	sw	v0,108(sp)
7f00c1ae:	9940      	lw	v0,0(s1)
7f00c1b0:	4aff      	addiu	v0,-1
7f00c1b2:	5200      	slti	v0,0
7f00c1b4:	d940      	sw	v0,0(s1)
7f00c1b6:	6106      	btnez	7f00c1c4 <_doprnt+0x1528>
7f00c1b8:	677d      	move	v1,sp
7f00c1ba:	9941      	lw	v0,4(s1)
7f00c1bc:	f060 a37c 	lbu	v1,124(v1)
7f00c1c0:	f15f 100d 	b	7f00b45e <_doprnt+0x7c2>
7f00c1c4:	a988      	lhu	a0,16(s1)
7f00c1c6:	6d80      	li	a1,128
7f00c1c8:	ecac      	and	a0,a1
7f00c1ca:	240c      	beqz	a0,7f00c1e4 <_doprnt+0x1548>
7f00c1cc:	9983      	lw	a0,12(s1)
7f00c1ce:	ea4b      	neg	v0
7f00c1d0:	ea82      	slt	v0,a0
7f00c1d2:	6008      	bteqz	7f00c1e4 <_doprnt+0x1548>
7f00c1d4:	9941      	lw	v0,4(s1)
7f00c1d6:	730a      	cmpi	v1,10
7f00c1d8:	c260      	sb	v1,0(v0)
7f00c1da:	9941      	lw	v0,4(s1)
7f00c1dc:	f15f 610d 	btnez	7f00b47a <_doprnt+0x7de>
7f00c1e0:	a280      	lbu	a0,0(v0)
7f00c1e2:	1001      	b	7f00c1e6 <_doprnt+0x154a>
7f00c1e4:	941f      	lw	a0,124(sp)
7f00c1e6:	181e 2788 	jal	7f009e20 <_flsbuf>
7f00c1ea:	67b1      	move	a1,s1
7f00c1ec:	941b      	lw	a0,108(sp)
7f00c1ee:	4c01      	addiu	a0,1
7f00c1f0:	d41b      	sw	a0,108(sp)
7f00c1f2:	f59e 1004 	b	7f00acfe <_doprnt+0x62>
7f00c1f6:	921b      	lw	v0,108(sp)
7f00c1f8:	f010 6476 	restore	176,ra,s0-s1
7f00c1fc:	e8a0      	jrc	ra
7f00c1fe:	6d00      	li	a1,0
7f00c200:	d51d      	sw	a1,116(sp)
7f00c202:	1002      	b	7f00c208 <_doprnt+0x156c>
7f00c204:	6a00      	li	v0,0
7f00c206:	d21d      	sw	v0,116(sp)
7f00c208:	6b0a      	li	v1,10
7f00c20a:	f1bf 100b 	b	7f00b564 <_doprnt+0x8c8>
7f00c20e:	6b01      	li	v1,1
7f00c210:	d323      	sw	v1,140(sp)
7f00c212:	6c00      	li	a0,0
7f00c214:	d22d      	sw	v0,180(sp)
7f00c216:	d41d      	sw	a0,116(sp)
7f00c218:	6b0a      	li	v1,10
7f00c21a:	f19f 1016 	b	7f00b54a <_doprnt+0x8ae>
7f00c21e:	6500      	nop
7f00c220:	e300      	daddu	s0,v1,s0
7f00c222:	7f00      	sd	s0,0(a3)
7f00c224:	e310      	daddu	a0,v1,s0
7f00c226:	7f00      	sd	s0,0(a3)
7f00c228:	e318      	daddu	a2,v1,s0
7f00c22a:	7f00      	sd	s0,0(a3)
7f00c22c:	0000      	addiu	s0,sp,0
7f00c22e:	0000      	addiu	s0,sp,0
7f00c230:	0000      	addiu	s0,sp,0
7f00c232:	8000      	lb	s0,0(s0)
7f00c234:	ffff      	daddiu	a3,sp,124
7f00c236:	7fff      	sd	a3,248(a3)
7f00c238:	ffff      	daddiu	a3,sp,124
7f00c23a:	7f7f      	sd	v1,248(a3)
7f00c23c:	e308      	daddu	v0,v1,s0
7f00c23e:	7f00      	sd	s0,0(a3)
7f00c240:	e30c      	daddu	v1,s0
7f00c242:	7f00      	sd	s0,0(a3)
7f00c244:	0000      	addiu	s0,sp,0
7f00c246:	4120      	addiu	s1,s1,0
7f00c248:	d70a      	sw	a3,40(sp)
7f00c24a:	3c23      	ld	s1,24(a0)
7f00c24c:	b717      	lw	a3,7f00c2a8 <memset+0x34>
7f00c24e:	38d1      	ld	a2,136(s0)

7f00c250 <index>:
7f00c250:	90860000 	lbu	a2,0(a0)
7f00c254:	10c50005 	beq	a2,a1,7f00c26c <fnd>
7f00c258:	24840001 	addiu	a0,a0,1
7f00c25c:	14c0fffc 	bnez	a2,7f00c250 <index>
7f00c260:	00000000 	nop

7f00c264 <notfnd>:
7f00c264:	03e00008 	jr	ra
7f00c268:	00001021 	move	v0,zero

7f00c26c <fnd>:
7f00c26c:	03e00008 	jr	ra
7f00c270:	2482ffff 	addiu	v0,a0,-1

7f00c274 <memset>:
7f00c274:	28c1000c 	slti	at,a2,12
7f00c278:	14200012 	bnez	at,7f00c2c4 <smallclr>
7f00c27c:	00801021 	move	v0,a0
7f00c280:	00054a00 	sll	t1,a1,0x8
7f00c284:	01254825 	or	t1,t1,a1
7f00c288:	00095400 	sll	t2,t1,0x10
7f00c28c:	01494825 	or	t1,t2,t1
7f00c290:	00044023 	negu	t0,a0
7f00c294:	31080003 	andi	t0,t0,0x3
7f00c298:	11000003 	beqz	t0,7f00c2a8 <memset+0x34>
7f00c29c:	00c83023 	subu	a2,a2,t0
7f00c2a0:	b8890000 	swr	t1,0(a0)
7f00c2a4:	00882021 	addu	a0,a0,t0
7f00c2a8:	30c30003 	andi	v1,a2,0x3
7f00c2ac:	00c34023 	subu	t0,a2,v1
7f00c2b0:	00c83023 	subu	a2,a2,t0
7f00c2b4:	01044021 	addu	t0,t0,a0
7f00c2b8:	24840004 	addiu	a0,a0,4
7f00c2bc:	1488fffe 	bne	a0,t0,7f00c2b8 <memset+0x44>
7f00c2c0:	ac89fffc 	sw	t1,-4(a0)

7f00c2c4 <smallclr>:
7f00c2c4:	18c00004 	blez	a2,7f00c2d8 <smallclr+0x14>
7f00c2c8:	00c44021 	addu	t0,a2,a0
7f00c2cc:	24840001 	addiu	a0,a0,1
7f00c2d0:	1488fffe 	bne	a0,t0,7f00c2cc <smallclr+0x8>
7f00c2d4:	a085ffff 	sb	a1,-1(a0)
7f00c2d8:	03e00008 	jr	ra
7f00c2dc:	00000000 	nop

7f00c2e0 <modf>:
7f00c2e0:	64f5      	save	40,ra,s0-s1
7f00c2e2:	b116      	lw	s1,7f00c338 <modf+0x58>
7f00c2e4:	b316      	lw	v1,7f00c33c <modf+0x5c>
7f00c2e6:	6744      	move	v0,a0
7f00c2e8:	ea2c      	and	v0,s1
7f00c2ea:	eb43      	sltu	v1,v0
7f00c2ec:	6704      	move	s0,a0
7f00c2ee:	6008      	bteqz	7f00c300 <modf+0x20>
7f00c2f0:	b314      	lw	v1,7f00c340 <modf+0x60>
7f00c2f2:	dd80      	sw	a0,0(a1)
7f00c2f4:	eb43      	sltu	v1,v0
7f00c2f6:	6102      	btnez	7f00c2fc <modf+0x1c>
7f00c2f8:	b213      	lw	v0,7f00c344 <modf+0x64>
7f00c2fa:	e84c      	and	s0,v0
7f00c2fc:	6750      	move	v0,s0
7f00c2fe:	101a      	b	7f00c334 <modf+0x54>
7f00c300:	b312      	lw	v1,7f00c348 <modf+0x68>
7f00c302:	eb43      	sltu	v1,v0
7f00c304:	b310      	lw	v1,7f00c344 <modf+0x64>
7f00c306:	6104      	btnez	7f00c310 <modf+0x30>
7f00c308:	e86c      	and	s0,v1
7f00c30a:	6744      	move	v0,a0
7f00c30c:	dd00      	sw	s0,0(a1)
7f00c30e:	1012      	b	7f00c334 <modf+0x54>
7f00c310:	6c96      	li	a0,150
7f00c312:	f5c0 3242 	srl	v0,23
7f00c316:	6e01      	li	a2,1
7f00c318:	e44b      	subu	v0,a0,v0
7f00c31a:	eecb      	neg	a2
7f00c31c:	eac4      	sllv	a2,v0
7f00c31e:	ee0c      	and	a2,s0
7f00c320:	ddc0      	sw	a2,0(a1)
7f00c322:	6790      	move	a0,s0
7f00c324:	67a6      	move	a1,a2
7f00c326:	1c1e 3484 	jalx	7f00d210 <__subsf3>
7f00c32a:	d304      	sw	v1,16(sp)
7f00c32c:	9304      	lw	v1,16(sp)
7f00c32e:	ea2c      	and	v0,s1
7f00c330:	e86c      	and	s0,v1
7f00c332:	ea0d      	or	v0,s0
7f00c334:	6475      	restore	40,ra,s0-s1
7f00c336:	e8a0      	jrc	ra
7f00c338:	ffff      	daddiu	a3,sp,124
7f00c33a:	7fff      	sd	a3,248(a3)
7f00c33c:	ffff      	daddiu	a3,sp,124
7f00c33e:	4aff      	addiu	v0,-1
7f00c340:	0000      	addiu	s0,sp,0
7f00c342:	7f80      	sd	a0,0(a3)
7f00c344:	0000      	addiu	s0,sp,0
7f00c346:	8000      	lb	s0,0(s0)
7f00c348:	ffff      	daddiu	a3,sp,124
7f00c34a:	3f7f      	ld	v1,248(a3)

7f00c34c <sigaction>:
7f00c34c:	3c077f01 	lui	a3,0x7f01
7f00c350:	24e7c368 	addiu	a3,a3,-15512
7f00c354:	000007cc 	syscall	0x1f
7f00c358:	3c097f01 	lui	t1,0x7f01
7f00c35c:	ad28e8fc 	sw	t0,-5892(t1)
7f00c360:	03e00008 	jr	ra
7f00c364:	00000000 	nop

7f00c368 <sigtramp>:
7f00c368:	000019cc 	syscall	0x67
7f00c36c:	0000004c 	syscall	0x1

7f00c370 <strncpy>:
7f00c370:	6744      	move	v0,a0
7f00c372:	6764      	move	v1,a0
7f00c374:	6c00      	li	a0,0
7f00c376:	100e      	b	7f00c394 <strncpy+0x24>
7f00c378:	85e0      	lb	a3,0(a1)
7f00c37a:	c3e0      	sb	a3,0(v1)
7f00c37c:	4b01      	addiu	v1,1
7f00c37e:	2f08      	bnez	a3,7f00c390 <strncpy+0x20>
7f00c380:	1003      	b	7f00c388 <strncpy+0x18>
7f00c382:	6d00      	li	a1,0
7f00c384:	c3a0      	sb	a1,0(v1)
7f00c386:	4b01      	addiu	v1,1
7f00c388:	4c01      	addiu	a0,1
7f00c38a:	ecc3      	sltu	a0,a2
7f00c38c:	61fa      	btnez	7f00c382 <strncpy+0x12>
7f00c38e:	e8a0      	jrc	ra
7f00c390:	4d01      	addiu	a1,1
7f00c392:	4c01      	addiu	a0,1
7f00c394:	ecc3      	sltu	a0,a2
7f00c396:	61f0      	btnez	7f00c378 <strncpy+0x8>
7f00c398:	e8a0      	jrc	ra
7f00c39a:	6500      	nop

7f00c39c <__addsf3>:
7f00c39c:	7c8307c0 	ext	v1,a0,0x1f,0x1
7f00c3a0:	7c88b000 	ext	t0,a0,0x0,0x17
7f00c3a4:	7ca7b000 	ext	a3,a1,0x0,0x17
7f00c3a8:	00054fc2 	srl	t1,a1,0x1f
7f00c3ac:	306600ff 	andi	a2,v1,0xff
7f00c3b0:	7c843dc0 	ext	a0,a0,0x17,0x8
7f00c3b4:	000840c0 	sll	t0,t0,0x3
7f00c3b8:	7ca53dc0 	ext	a1,a1,0x17,0x8
7f00c3bc:	10c90047 	beq	a2,t1,7f00c4dc <__addsf3+0x140>
7f00c3c0:	000738c0 	sll	a3,a3,0x3
7f00c3c4:	00851823 	subu	v1,a0,a1
7f00c3c8:	18600088 	blez	v1,7f00c5ec <__addsf3+0x250>
7f00c3cc:	00000000 	nop
7f00c3d0:	14a00021 	bnez	a1,7f00c458 <__addsf3+0xbc>
7f00c3d4:	240200ff 	li	v0,255
7f00c3d8:	14e0005e 	bnez	a3,7f00c554 <__addsf3+0x1b8>
7f00c3dc:	2463ffff 	addiu	v1,v1,-1
7f00c3e0:	24830001 	addiu	v1,a0,1
7f00c3e4:	310a000f 	andi	t2,t0,0xf
7f00c3e8:	01001021 	move	v0,t0
7f00c3ec:	00802821 	move	a1,a0
7f00c3f0:	24040004 	li	a0,4
7f00c3f4:	11440004 	beq	t2,a0,7f00c408 <__addsf3+0x6c>
7f00c3f8:	7c440680 	ext	a0,v0,0x1a,0x1
7f00c3fc:	24420004 	addiu	v0,v0,4
7f00c400:	24a30001 	addiu	v1,a1,1
7f00c404:	7c440680 	ext	a0,v0,0x1a,0x1
7f00c408:	50800009 	beqzl	a0,7f00c430 <__addsf3+0x94>
7f00c40c:	306300ff 	andi	v1,v1,0xff
7f00c410:	240400ff 	li	a0,255
7f00c414:	10640081 	beq	v1,a0,7f00c61c <__addsf3+0x280>
7f00c418:	3c04fbff 	lui	a0,0xfbff
7f00c41c:	3484ffff 	ori	a0,a0,0xffff
7f00c420:	00602821 	move	a1,v1
7f00c424:	00441024 	and	v0,v0,a0
7f00c428:	24630001 	addiu	v1,v1,1
7f00c42c:	306300ff 	andi	v1,v1,0xff
7f00c430:	28630002 	slti	v1,v1,2
7f00c434:	14600060 	bnez	v1,7f00c5b8 <__addsf3+0x21c>
7f00c438:	000210c2 	srl	v0,v0,0x3
7f00c43c:	7c43b000 	ext	v1,v0,0x0,0x17
7f00c440:	30a500ff 	andi	a1,a1,0xff
7f00c444:	00001021 	move	v0,zero
7f00c448:	7c62b004 	ins	v0,v1,0x0,0x17
7f00c44c:	7ca2f5c4 	ins	v0,a1,0x17,0x8
7f00c450:	03e00008 	jr	ra
7f00c454:	7cc2ffc4 	ins	v0,a2,0x1f,0x1
7f00c458:	10820053 	beq	a0,v0,7f00c5a8 <__addsf3+0x20c>
7f00c45c:	310a000f 	andi	t2,t0,0xf
7f00c460:	3c020400 	lui	v0,0x400
7f00c464:	00e23825 	or	a3,a3,v0
7f00c468:	2865001c 	slti	a1,v1,28
7f00c46c:	10a00006 	beqz	a1,7f00c488 <__addsf3+0xec>
7f00c470:	24020001 	li	v0,1
7f00c474:	00031023 	negu	v0,v1
7f00c478:	00471004 	sllv	v0,a3,v0
7f00c47c:	0002102b 	sltu	v0,zero,v0
7f00c480:	00673806 	srlv	a3,a3,v1
7f00c484:	00471025 	or	v0,v0,a3
7f00c488:	01021023 	subu	v0,t0,v0
7f00c48c:	7c430680 	ext	v1,v0,0x1a,0x1
7f00c490:	00802821 	move	a1,a0
7f00c494:	10600036 	beqz	v1,7f00c570 <__addsf3+0x1d4>
7f00c498:	7c4ac800 	ext	t2,v0,0x0,0x1a
7f00c49c:	71431820 	clz	v1,t2
7f00c4a0:	2463fffb 	addiu	v1,v1,-5
7f00c4a4:	0065102a 	slt	v0,v1,a1
7f00c4a8:	14400063 	bnez	v0,7f00c638 <__addsf3+0x29c>
7f00c4ac:	006a5004 	sllv	t2,t2,v1
7f00c4b0:	00651823 	subu	v1,v1,a1
7f00c4b4:	24630001 	addiu	v1,v1,1
7f00c4b8:	00031023 	negu	v0,v1
7f00c4bc:	004a1004 	sllv	v0,t2,v0
7f00c4c0:	0002102b 	sltu	v0,zero,v0
7f00c4c4:	006a5006 	srlv	t2,t2,v1
7f00c4c8:	004a1025 	or	v0,v0,t2
7f00c4cc:	304a000f 	andi	t2,v0,0xf
7f00c4d0:	24030001 	li	v1,1
7f00c4d4:	0bc030fc 	j	7f00c3f0 <__addsf3+0x54>
7f00c4d8:	00002821 	move	a1,zero
7f00c4dc:	00854823 	subu	t1,a0,a1
7f00c4e0:	1920005c 	blez	t1,7f00c654 <__addsf3+0x2b8>
7f00c4e4:	00000000 	nop
7f00c4e8:	10a00024 	beqz	a1,7f00c57c <__addsf3+0x1e0>
7f00c4ec:	240200ff 	li	v0,255
7f00c4f0:	1082002d 	beq	a0,v0,7f00c5a8 <__addsf3+0x20c>
7f00c4f4:	310a000f 	andi	t2,t0,0xf
7f00c4f8:	3c020400 	lui	v0,0x400
7f00c4fc:	00e23825 	or	a3,a3,v0
7f00c500:	2925001c 	slti	a1,t1,28
7f00c504:	14a0007c 	bnez	a1,7f00c6f8 <__addsf3+0x35c>
7f00c508:	24020001 	li	v0,1
7f00c50c:	00481021 	addu	v0,v0,t0
7f00c510:	00802821 	move	a1,a0
7f00c514:	7c440680 	ext	a0,v0,0x1a,0x1
7f00c518:	50800016 	beqzl	a0,7f00c574 <__addsf3+0x1d8>
7f00c51c:	24a30001 	addiu	v1,a1,1
7f00c520:	24a50001 	addiu	a1,a1,1
7f00c524:	240400ff 	li	a0,255
7f00c528:	50a40084 	beql	a1,a0,7f00c73c <__addsf3+0x3a0>
7f00c52c:	30660001 	andi	a2,v1,0x1
7f00c530:	3c03fbff 	lui	v1,0xfbff
7f00c534:	3463ffff 	ori	v1,v1,0xffff
7f00c538:	00431824 	and	v1,v0,v1
7f00c53c:	00031842 	srl	v1,v1,0x1
7f00c540:	30420001 	andi	v0,v0,0x1
7f00c544:	00431025 	or	v0,v0,v1
7f00c548:	304a000f 	andi	t2,v0,0xf
7f00c54c:	0bc030fc 	j	7f00c3f0 <__addsf3+0x54>
7f00c550:	24a30001 	addiu	v1,a1,1
7f00c554:	14600011 	bnez	v1,7f00c59c <__addsf3+0x200>
7f00c558:	240200ff 	li	v0,255
7f00c55c:	01071023 	subu	v0,t0,a3
7f00c560:	00802821 	move	a1,a0
7f00c564:	7c430680 	ext	v1,v0,0x1a,0x1
7f00c568:	1460ffcc 	bnez	v1,7f00c49c <__addsf3+0x100>
7f00c56c:	7c4ac800 	ext	t2,v0,0x0,0x1a
7f00c570:	24a30001 	addiu	v1,a1,1
7f00c574:	0bc030fc 	j	7f00c3f0 <__addsf3+0x54>
7f00c578:	304a000f 	andi	t2,v0,0xf
7f00c57c:	50e0ff99 	beqzl	a3,7f00c3e4 <__addsf3+0x48>
7f00c580:	24830001 	addiu	v1,a0,1
7f00c584:	2529ffff 	addiu	t1,t1,-1
7f00c588:	55200068 	bnezl	t1,7f00c72c <__addsf3+0x390>
7f00c58c:	240200ff 	li	v0,255
7f00c590:	00e81021 	addu	v0,a3,t0
7f00c594:	0bc03145 	j	7f00c514 <__addsf3+0x178>
7f00c598:	00802821 	move	a1,a0
7f00c59c:	5482ffb3 	bnel	a0,v0,7f00c46c <__addsf3+0xd0>
7f00c5a0:	2865001c 	slti	a1,v1,28
7f00c5a4:	310a000f 	andi	t2,t0,0xf
7f00c5a8:	01001021 	move	v0,t0
7f00c5ac:	24030100 	li	v1,256
7f00c5b0:	0bc030fc 	j	7f00c3f0 <__addsf3+0x54>
7f00c5b4:	240500ff 	li	a1,255
7f00c5b8:	504000e1 	beqzl	v0,7f00c940 <__addsf3+0x5a4>
7f00c5bc:	30a500ff 	andi	a1,a1,0xff
7f00c5c0:	10a0ffa0 	beqz	a1,7f00c444 <__addsf3+0xa8>
7f00c5c4:	7c43b000 	ext	v1,v0,0x0,0x17
7f00c5c8:	3c030040 	lui	v1,0x40
7f00c5cc:	00431825 	or	v1,v0,v1
7f00c5d0:	7c63b000 	ext	v1,v1,0x0,0x17
7f00c5d4:	00001021 	move	v0,zero
7f00c5d8:	30a500ff 	andi	a1,a1,0xff
7f00c5dc:	7c62b004 	ins	v0,v1,0x0,0x17
7f00c5e0:	7ca2f5c4 	ins	v0,a1,0x17,0x8
7f00c5e4:	03e00008 	jr	ra
7f00c5e8:	7cc2ffc4 	ins	v0,a2,0x1f,0x1
7f00c5ec:	14600029 	bnez	v1,7f00c694 <__addsf3+0x2f8>
7f00c5f0:	24820001 	addiu	v0,a0,1
7f00c5f4:	304200ff 	andi	v0,v0,0xff
7f00c5f8:	28420002 	slti	v0,v0,2
7f00c5fc:	1440005a 	bnez	v0,7f00c768 <__addsf3+0x3cc>
7f00c600:	01075023 	subu	t2,t0,a3
7f00c604:	7d420680 	ext	v0,t2,0x1a,0x1
7f00c608:	10400034 	beqz	v0,7f00c6dc <__addsf3+0x340>
7f00c60c:	00802821 	move	a1,a0
7f00c610:	00e85023 	subu	t2,a3,t0
7f00c614:	0bc03127 	j	7f00c49c <__addsf3+0x100>
7f00c618:	01203021 	move	a2,t1
7f00c61c:	00001821 	move	v1,zero
7f00c620:	00001021 	move	v0,zero
7f00c624:	240500ff 	li	a1,255
7f00c628:	7c62b004 	ins	v0,v1,0x0,0x17
7f00c62c:	7ca2f5c4 	ins	v0,a1,0x17,0x8
7f00c630:	03e00008 	jr	ra
7f00c634:	7cc2ffc4 	ins	v0,a2,0x1f,0x1
7f00c638:	3c02fbff 	lui	v0,0xfbff
7f00c63c:	00a32823 	subu	a1,a1,v1
7f00c640:	3442ffff 	ori	v0,v0,0xffff
7f00c644:	01421024 	and	v0,t2,v0
7f00c648:	24a30001 	addiu	v1,a1,1
7f00c64c:	0bc030fc 	j	7f00c3f0 <__addsf3+0x54>
7f00c650:	314a000f 	andi	t2,t2,0xf
7f00c654:	15200050 	bnez	t1,7f00c798 <__addsf3+0x3fc>
7f00c658:	00000000 	nop
7f00c65c:	24850001 	addiu	a1,a0,1
7f00c660:	30a200ff 	andi	v0,a1,0xff
7f00c664:	28420002 	slti	v0,v0,2
7f00c668:	14400037 	bnez	v0,7f00c748 <__addsf3+0x3ac>
7f00c66c:	240200ff 	li	v0,255
7f00c670:	50a20032 	beql	a1,v0,7f00c73c <__addsf3+0x3a0>
7f00c674:	30660001 	andi	a2,v1,0x1
7f00c678:	00e83821 	addu	a3,a3,t0
7f00c67c:	30e20001 	andi	v0,a3,0x1
7f00c680:	00073842 	srl	a3,a3,0x1
7f00c684:	00471025 	or	v0,v0,a3
7f00c688:	24830002 	addiu	v1,a0,2
7f00c68c:	0bc030fc 	j	7f00c3f0 <__addsf3+0x54>
7f00c690:	304a000f 	andi	t2,v0,0xf
7f00c694:	1080001e 	beqz	a0,7f00c710 <__addsf3+0x374>
7f00c698:	00031823 	negu	v1,v1
7f00c69c:	240200ff 	li	v0,255
7f00c6a0:	10a20052 	beq	a1,v0,7f00c7ec <__addsf3+0x450>
7f00c6a4:	30ea000f 	andi	t2,a3,0xf
7f00c6a8:	3c020400 	lui	v0,0x400
7f00c6ac:	01024025 	or	t0,t0,v0
7f00c6b0:	2864001c 	slti	a0,v1,28
7f00c6b4:	10800006 	beqz	a0,7f00c6d0 <__addsf3+0x334>
7f00c6b8:	24020001 	li	v0,1
7f00c6bc:	00031023 	negu	v0,v1
7f00c6c0:	00481004 	sllv	v0,t0,v0
7f00c6c4:	00681806 	srlv	v1,t0,v1
7f00c6c8:	0002102b 	sltu	v0,zero,v0
7f00c6cc:	00431025 	or	v0,v0,v1
7f00c6d0:	00e21023 	subu	v0,a3,v0
7f00c6d4:	0bc03159 	j	7f00c564 <__addsf3+0x1c8>
7f00c6d8:	01203021 	move	a2,t1
7f00c6dc:	5540ff70 	bnezl	t2,7f00c4a0 <__addsf3+0x104>
7f00c6e0:	71431820 	clz	v1,t2
7f00c6e4:	00003021 	move	a2,zero
7f00c6e8:	24030001 	li	v1,1
7f00c6ec:	24020004 	li	v0,4
7f00c6f0:	0bc03101 	j	7f00c404 <__addsf3+0x68>
7f00c6f4:	00002821 	move	a1,zero
7f00c6f8:	00091023 	negu	v0,t1
7f00c6fc:	00471004 	sllv	v0,a3,v0
7f00c700:	0002102b 	sltu	v0,zero,v0
7f00c704:	01273806 	srlv	a3,a3,t1
7f00c708:	0bc03143 	j	7f00c50c <__addsf3+0x170>
7f00c70c:	00471025 	or	v0,v0,a3
7f00c710:	55000048 	bnezl	t0,7f00c834 <__addsf3+0x498>
7f00c714:	2463ffff 	addiu	v1,v1,-1
7f00c718:	24a30001 	addiu	v1,a1,1
7f00c71c:	30ea000f 	andi	t2,a3,0xf
7f00c720:	00e01021 	move	v0,a3
7f00c724:	0bc030fc 	j	7f00c3f0 <__addsf3+0x54>
7f00c728:	01203021 	move	a2,t1
7f00c72c:	5482ff75 	bnel	a0,v0,7f00c504 <__addsf3+0x168>
7f00c730:	2925001c 	slti	a1,t1,28
7f00c734:	0bc0316a 	j	7f00c5a8 <__addsf3+0x20c>
7f00c738:	310a000f 	andi	t2,t0,0xf
7f00c73c:	24020004 	li	v0,4
7f00c740:	0bc03101 	j	7f00c404 <__addsf3+0x68>
7f00c744:	24030100 	li	v1,256
7f00c748:	14800059 	bnez	a0,7f00c8b0 <__addsf3+0x514>
7f00c74c:	00000000 	nop
7f00c750:	15000068 	bnez	t0,7f00c8f4 <__addsf3+0x558>
7f00c754:	30ea000f 	andi	t2,a3,0xf
7f00c758:	00e01021 	move	v0,a3
7f00c75c:	24030001 	li	v1,1
7f00c760:	0bc030fc 	j	7f00c3f0 <__addsf3+0x54>
7f00c764:	00002821 	move	a1,zero
7f00c768:	14800013 	bnez	a0,7f00c7b8 <__addsf3+0x41c>
7f00c76c:	00000000 	nop
7f00c770:	15000044 	bnez	t0,7f00c884 <__addsf3+0x4e8>
7f00c774:	00000000 	nop
7f00c778:	50e0ffdb 	beqzl	a3,7f00c6e8 <__addsf3+0x34c>
7f00c77c:	00003021 	move	a2,zero
7f00c780:	30ea000f 	andi	t2,a3,0xf
7f00c784:	00e01021 	move	v0,a3
7f00c788:	01203021 	move	a2,t1
7f00c78c:	24030001 	li	v1,1
7f00c790:	0bc030fc 	j	7f00c3f0 <__addsf3+0x54>
7f00c794:	00002821 	move	a1,zero
7f00c798:	1480002b 	bnez	a0,7f00c848 <__addsf3+0x4ac>
7f00c79c:	00094823 	negu	t1,t1
7f00c7a0:	5500004d 	bnezl	t0,7f00c8d8 <__addsf3+0x53c>
7f00c7a4:	2529ffff 	addiu	t1,t1,-1
7f00c7a8:	24a30001 	addiu	v1,a1,1
7f00c7ac:	30ea000f 	andi	t2,a3,0xf
7f00c7b0:	0bc030fc 	j	7f00c3f0 <__addsf3+0x54>
7f00c7b4:	00e01021 	move	v0,a3
7f00c7b8:	15000011 	bnez	t0,7f00c800 <__addsf3+0x464>
7f00c7bc:	00000000 	nop
7f00c7c0:	14e0000a 	bnez	a3,7f00c7ec <__addsf3+0x450>
7f00c7c4:	30ea000f 	andi	t2,a3,0xf
7f00c7c8:	3c0203ff 	lui	v0,0x3ff
7f00c7cc:	00003021 	move	a2,zero
7f00c7d0:	24030100 	li	v1,256
7f00c7d4:	3442fffc 	ori	v0,v0,0xfffc
7f00c7d8:	0bc03101 	j	7f00c404 <__addsf3+0x68>
7f00c7dc:	240500ff 	li	a1,255
7f00c7e0:	14a2ffb4 	bne	a1,v0,7f00c6b4 <__addsf3+0x318>
7f00c7e4:	2864001c 	slti	a0,v1,28
7f00c7e8:	30ea000f 	andi	t2,a3,0xf
7f00c7ec:	00e01021 	move	v0,a3
7f00c7f0:	01203021 	move	a2,t1
7f00c7f4:	24030100 	li	v1,256
7f00c7f8:	0bc030fc 	j	7f00c3f0 <__addsf3+0x54>
7f00c7fc:	240500ff 	li	a1,255
7f00c800:	10e0ff69 	beqz	a3,7f00c5a8 <__addsf3+0x20c>
7f00c804:	310a000f 	andi	t2,t0,0xf
7f00c808:	000810c2 	srl	v0,t0,0x3
7f00c80c:	000718c2 	srl	v1,a3,0x3
7f00c810:	00621825 	or	v1,v1,v0
7f00c814:	7c630580 	ext	v1,v1,0x16,0x1
7f00c818:	54600043 	bnezl	v1,7f00c928 <__addsf3+0x58c>
7f00c81c:	3c0203ff 	lui	v0,0x3ff
7f00c820:	000210c0 	sll	v0,v0,0x3
7f00c824:	304a000f 	andi	t2,v0,0xf
7f00c828:	24030100 	li	v1,256
7f00c82c:	0bc030fc 	j	7f00c3f0 <__addsf3+0x54>
7f00c830:	240500ff 	li	a1,255
7f00c834:	5460ffea 	bnezl	v1,7f00c7e0 <__addsf3+0x444>
7f00c838:	240200ff 	li	v0,255
7f00c83c:	00e81023 	subu	v0,a3,t0
7f00c840:	0bc03159 	j	7f00c564 <__addsf3+0x1c8>
7f00c844:	01203021 	move	a2,t1
7f00c848:	240200ff 	li	v0,255
7f00c84c:	10a2001a 	beq	a1,v0,7f00c8b8 <__addsf3+0x51c>
7f00c850:	30ea000f 	andi	t2,a3,0xf
7f00c854:	3c020400 	lui	v0,0x400
7f00c858:	01024025 	or	t0,t0,v0
7f00c85c:	2924001c 	slti	a0,t1,28
7f00c860:	10800006 	beqz	a0,7f00c87c <__addsf3+0x4e0>
7f00c864:	24020001 	li	v0,1
7f00c868:	00091023 	negu	v0,t1
7f00c86c:	00481004 	sllv	v0,t0,v0
7f00c870:	01284806 	srlv	t1,t0,t1
7f00c874:	0002102b 	sltu	v0,zero,v0
7f00c878:	00491025 	or	v0,v0,t1
7f00c87c:	0bc03145 	j	7f00c514 <__addsf3+0x178>
7f00c880:	00471021 	addu	v0,v0,a3
7f00c884:	10e00010 	beqz	a3,7f00c8c8 <__addsf3+0x52c>
7f00c888:	310a000f 	andi	t2,t0,0xf
7f00c88c:	01071023 	subu	v0,t0,a3
7f00c890:	7c430680 	ext	v1,v0,0x1a,0x1
7f00c894:	1060002c 	beqz	v1,7f00c948 <__addsf3+0x5ac>
7f00c898:	24030001 	li	v1,1
7f00c89c:	00e81023 	subu	v0,a3,t0
7f00c8a0:	304a000f 	andi	t2,v0,0xf
7f00c8a4:	01203021 	move	a2,t1
7f00c8a8:	0bc030fc 	j	7f00c3f0 <__addsf3+0x54>
7f00c8ac:	00002821 	move	a1,zero
7f00c8b0:	1500ffd3 	bnez	t0,7f00c800 <__addsf3+0x464>
7f00c8b4:	30ea000f 	andi	t2,a3,0xf
7f00c8b8:	00e01021 	move	v0,a3
7f00c8bc:	24030100 	li	v1,256
7f00c8c0:	0bc030fc 	j	7f00c3f0 <__addsf3+0x54>
7f00c8c4:	240500ff 	li	a1,255
7f00c8c8:	01001021 	move	v0,t0
7f00c8cc:	24030001 	li	v1,1
7f00c8d0:	0bc030fc 	j	7f00c3f0 <__addsf3+0x54>
7f00c8d4:	00002821 	move	a1,zero
7f00c8d8:	1120ff0e 	beqz	t1,7f00c514 <__addsf3+0x178>
7f00c8dc:	00e81021 	addu	v0,a3,t0
7f00c8e0:	240200ff 	li	v0,255
7f00c8e4:	14a2ffde 	bne	a1,v0,7f00c860 <__addsf3+0x4c4>
7f00c8e8:	2924001c 	slti	a0,t1,28
7f00c8ec:	0bc0322e 	j	7f00c8b8 <__addsf3+0x51c>
7f00c8f0:	30ea000f 	andi	t2,a3,0xf
7f00c8f4:	10e0fff4 	beqz	a3,7f00c8c8 <__addsf3+0x52c>
7f00c8f8:	310a000f 	andi	t2,t0,0xf
7f00c8fc:	00e81021 	addu	v0,a3,t0
7f00c900:	7c430680 	ext	v1,v0,0x1a,0x1
7f00c904:	5060fef2 	beqzl	v1,7f00c4d0 <__addsf3+0x134>
7f00c908:	304a000f 	andi	t2,v0,0xf
7f00c90c:	3c03fbff 	lui	v1,0xfbff
7f00c910:	3463ffff 	ori	v1,v1,0xffff
7f00c914:	00431024 	and	v0,v0,v1
7f00c918:	304a000f 	andi	t2,v0,0xf
7f00c91c:	24030002 	li	v1,2
7f00c920:	0bc030fc 	j	7f00c3f0 <__addsf3+0x54>
7f00c924:	24050001 	li	a1,1
7f00c928:	240a0008 	li	t2,8
7f00c92c:	3442fff8 	ori	v0,v0,0xfff8
7f00c930:	00003021 	move	a2,zero
7f00c934:	24030100 	li	v1,256
7f00c938:	0bc030fc 	j	7f00c3f0 <__addsf3+0x54>
7f00c93c:	240500ff 	li	a1,255
7f00c940:	0bc03111 	j	7f00c444 <__addsf3+0xa8>
7f00c944:	00001821 	move	v1,zero
7f00c948:	5040ff67 	beqzl	v0,7f00c6e8 <__addsf3+0x34c>
7f00c94c:	00003021 	move	a2,zero
7f00c950:	0bc03134 	j	7f00c4d0 <__addsf3+0x134>
7f00c954:	304a000f 	andi	t2,v0,0xf

7f00c958 <__divsf3>:
7f00c958:	7c8607c0 	ext	a2,a0,0x1f,0x1
7f00c95c:	7c833dc0 	ext	v1,a0,0x17,0x8
7f00c960:	30cb00ff 	andi	t3,a2,0xff
7f00c964:	14600019 	bnez	v1,7f00c9cc <__divsf3+0x74>
7f00c968:	7c84b000 	ext	a0,a0,0x0,0x17
7f00c96c:	5480003d 	bnezl	a0,7f00ca64 <__divsf3+0x10c>
7f00c970:	70831820 	clz	v1,a0
7f00c974:	7ca73dc0 	ext	a3,a1,0x17,0x8
7f00c978:	7ca8b000 	ext	t0,a1,0x0,0x17
7f00c97c:	240a0004 	li	t2,4
7f00c980:	240d0001 	li	t5,1
7f00c984:	10e0001d 	beqz	a3,7f00c9fc <__divsf3+0xa4>
7f00c988:	00052fc2 	srl	a1,a1,0x1f
7f00c98c:	240900ff 	li	t1,255
7f00c990:	10e90031 	beq	a3,t1,7f00ca58 <__divsf3+0x100>
7f00c994:	24090002 	li	t1,2
7f00c998:	3c090080 	lui	t1,0x80
7f00c99c:	01094025 	or	t0,t0,t1
7f00c9a0:	000840c0 	sll	t0,t0,0x3
7f00c9a4:	24e7ff81 	addiu	a3,a3,-127
7f00c9a8:	00004821 	move	t1,zero
7f00c9ac:	012a5025 	or	t2,t1,t2
7f00c9b0:	3c0c7f01 	lui	t4,0x7f01
7f00c9b4:	258ce320 	addiu	t4,t4,-7392
7f00c9b8:	000a5080 	sll	t2,t2,0x2
7f00c9bc:	018a5021 	addu	t2,t4,t2
7f00c9c0:	8d4a0000 	lw	t2,0(t2)
7f00c9c4:	01400008 	jr	t2
7f00c9c8:	00ab6026 	xor	t4,a1,t3
7f00c9cc:	240700ff 	li	a3,255
7f00c9d0:	10670013 	beq	v1,a3,7f00ca20 <__divsf3+0xc8>
7f00c9d4:	3c070080 	lui	a3,0x80
7f00c9d8:	00872025 	or	a0,a0,a3
7f00c9dc:	000420c0 	sll	a0,a0,0x3
7f00c9e0:	2463ff81 	addiu	v1,v1,-127
7f00c9e4:	00005021 	move	t2,zero
7f00c9e8:	00006821 	move	t5,zero
7f00c9ec:	7ca73dc0 	ext	a3,a1,0x17,0x8
7f00c9f0:	7ca8b000 	ext	t0,a1,0x0,0x17
7f00c9f4:	14e0ffe5 	bnez	a3,7f00c98c <__divsf3+0x34>
7f00c9f8:	00052fc2 	srl	a1,a1,0x1f
7f00c9fc:	1100ffeb 	beqz	t0,7f00c9ac <__divsf3+0x54>
7f00ca00:	24090001 	li	t1,1
7f00ca04:	71073820 	clz	a3,t0
7f00ca08:	24e9fffb 	addiu	t1,a3,-5
7f00ca0c:	01284004 	sllv	t0,t0,t1
7f00ca10:	2409ff8a 	li	t1,-118
7f00ca14:	01273823 	subu	a3,t1,a3
7f00ca18:	0bc0326b 	j	7f00c9ac <__divsf3+0x54>
7f00ca1c:	00004821 	move	t1,zero
7f00ca20:	2407000c 	li	a3,12
7f00ca24:	240a0008 	li	t2,8
7f00ca28:	240d0002 	li	t5,2
7f00ca2c:	00e4500b 	movn	t2,a3,a0
7f00ca30:	24070003 	li	a3,3
7f00ca34:	0bc0327b 	j	7f00c9ec <__divsf3+0x94>
7f00ca38:	00e4680b 	movn	t5,a3,a0
7f00ca3c:	240300ff 	li	v1,255
7f00ca40:	00002021 	move	a0,zero
7f00ca44:	00001021 	move	v0,zero
7f00ca48:	7c82b004 	ins	v0,a0,0x0,0x17
7f00ca4c:	7c62f5c4 	ins	v0,v1,0x17,0x8
7f00ca50:	03e00008 	jr	ra
7f00ca54:	7d82ffc4 	ins	v0,t4,0x1f,0x1
7f00ca58:	240c0003 	li	t4,3
7f00ca5c:	0bc0326b 	j	7f00c9ac <__divsf3+0x54>
7f00ca60:	0188480b 	movn	t1,t4,t0
7f00ca64:	2467fffb 	addiu	a3,v1,-5
7f00ca68:	00e42004 	sllv	a0,a0,a3
7f00ca6c:	2407ff8a 	li	a3,-118
7f00ca70:	00e31823 	subu	v1,a3,v1
7f00ca74:	00005021 	move	t2,zero
7f00ca78:	0bc0327b 	j	7f00c9ec <__divsf3+0x94>
7f00ca7c:	00006821 	move	t5,zero
7f00ca80:	3c04007f 	lui	a0,0x7f
7f00ca84:	3484ffff 	ori	a0,a0,0xffff
7f00ca88:	00006021 	move	t4,zero
7f00ca8c:	7c84b000 	ext	a0,a0,0x0,0x17
7f00ca90:	240300ff 	li	v1,255
7f00ca94:	00001021 	move	v0,zero
7f00ca98:	7c82b004 	ins	v0,a0,0x0,0x17
7f00ca9c:	7c62f5c4 	ins	v0,v1,0x17,0x8
7f00caa0:	03e00008 	jr	ra
7f00caa4:	7d82ffc4 	ins	v0,t4,0x1f,0x1
7f00caa8:	00002021 	move	a0,zero
7f00caac:	00001021 	move	v0,zero
7f00cab0:	00001821 	move	v1,zero
7f00cab4:	7c82b004 	ins	v0,a0,0x0,0x17
7f00cab8:	7c62f5c4 	ins	v0,v1,0x17,0x8
7f00cabc:	03e00008 	jr	ra
7f00cac0:	7d82ffc4 	ins	v0,t4,0x1f,0x1
7f00cac4:	01002021 	move	a0,t0
7f00cac8:	00a06021 	move	t4,a1
7f00cacc:	24030002 	li	v1,2
7f00cad0:	1123ffda 	beq	t1,v1,7f00ca3c <__divsf3+0xe4>
7f00cad4:	24030003 	li	v1,3
7f00cad8:	51230072 	beql	t1,v1,7f00cca4 <__divsf3+0x34c>
7f00cadc:	3c020040 	lui	v0,0x40
7f00cae0:	24030001 	li	v1,1
7f00cae4:	5123fff1 	beql	t1,v1,7f00caac <__divsf3+0x154>
7f00cae8:	00002021 	move	a0,zero
7f00caec:	2443007f 	addiu	v1,v0,127
7f00caf0:	18600056 	blez	v1,7f00cc4c <__divsf3+0x2f4>
7f00caf4:	3086000f 	andi	a2,a0,0xf
7f00caf8:	24850004 	addiu	a1,a0,4
7f00cafc:	38c60004 	xori	a2,a2,0x4
7f00cb00:	00a6200b 	movn	a0,a1,a2
7f00cb04:	7c8506c0 	ext	a1,a0,0x1b,0x1
7f00cb08:	50a00006 	beqzl	a1,7f00cb24 <__divsf3+0x1cc>
7f00cb0c:	286200ff 	slti	v0,v1,255
7f00cb10:	3c03f7ff 	lui	v1,0xf7ff
7f00cb14:	3463ffff 	ori	v1,v1,0xffff
7f00cb18:	00832024 	and	a0,a0,v1
7f00cb1c:	24430080 	addiu	v1,v0,128
7f00cb20:	286200ff 	slti	v0,v1,255
7f00cb24:	5040ffc6 	beqzl	v0,7f00ca40 <__divsf3+0xe8>
7f00cb28:	240300ff 	li	v1,255
7f00cb2c:	7c84b0c0 	ext	a0,a0,0x3,0x17
7f00cb30:	0bc03291 	j	7f00ca44 <__divsf3+0xec>
7f00cb34:	306300ff 	andi	v1,v1,0xff
7f00cb38:	01044025 	or	t0,t0,a0
7f00cb3c:	3c020040 	lui	v0,0x40
7f00cb40:	01024024 	and	t0,t0,v0
7f00cb44:	5500ffcf 	bnezl	t0,7f00ca84 <__divsf3+0x12c>
7f00cb48:	3c04007f 	lui	a0,0x7f
7f00cb4c:	00822025 	or	a0,a0,v0
7f00cb50:	30cc0001 	andi	t4,a2,0x1
7f00cb54:	7c84b000 	ext	a0,a0,0x0,0x17
7f00cb58:	0bc032a5 	j	7f00ca94 <__divsf3+0x13c>
7f00cb5c:	240300ff 	li	v1,255
7f00cb60:	0088282b 	sltu	a1,a0,t0
7f00cb64:	00671023 	subu	v0,v1,a3
7f00cb68:	10a00034 	beqz	a1,7f00cc3c <__divsf3+0x2e4>
7f00cb6c:	00084140 	sll	t0,t0,0x5
7f00cb70:	2442ffff 	addiu	v0,v0,-1
7f00cb74:	00003021 	move	a2,zero
7f00cb78:	00081c02 	srl	v1,t0,0x10
7f00cb7c:	0083001b 	divu	zero,a0,v1
7f00cb80:	006001f4 	teq	v1,zero,0x7
7f00cb84:	3109ffff 	andi	t1,t0,0xffff
7f00cb88:	00003812 	mflo	a3
7f00cb8c:	00002010 	mfhi	a0
7f00cb90:	00042400 	sll	a0,a0,0x10
7f00cb94:	00863025 	or	a2,a0,a2
7f00cb98:	70e95002 	mul	t2,a3,t1
7f00cb9c:	00ca202b 	sltu	a0,a2,t2
7f00cba0:	5080000b 	beqzl	a0,7f00cbd0 <__divsf3+0x278>
7f00cba4:	00ca3023 	subu	a2,a2,t2
7f00cba8:	00c83021 	addu	a2,a2,t0
7f00cbac:	00c8202b 	sltu	a0,a2,t0
7f00cbb0:	14800006 	bnez	a0,7f00cbcc <__divsf3+0x274>
7f00cbb4:	24e7ffff 	addiu	a3,a3,-1
7f00cbb8:	00ca202b 	sltu	a0,a2,t2
7f00cbbc:	50800004 	beqzl	a0,7f00cbd0 <__divsf3+0x278>
7f00cbc0:	00ca3023 	subu	a2,a2,t2
7f00cbc4:	24e7ffff 	addiu	a3,a3,-1
7f00cbc8:	00c83021 	addu	a2,a2,t0
7f00cbcc:	00ca3023 	subu	a2,a2,t2
7f00cbd0:	00c3001b 	divu	zero,a2,v1
7f00cbd4:	006001f4 	teq	v1,zero,0x7
7f00cbd8:	00002012 	mflo	a0
7f00cbdc:	00002810 	mfhi	a1
7f00cbe0:	00052c00 	sll	a1,a1,0x10
7f00cbe4:	70894802 	mul	t1,a0,t1
7f00cbe8:	00a9582b 	sltu	t3,a1,t1
7f00cbec:	5160000b 	beqzl	t3,7f00cc1c <__divsf3+0x2c4>
7f00cbf0:	00073c00 	sll	a3,a3,0x10
7f00cbf4:	00a82821 	addu	a1,a1,t0
7f00cbf8:	00a8582b 	sltu	t3,a1,t0
7f00cbfc:	15600006 	bnez	t3,7f00cc18 <__divsf3+0x2c0>
7f00cc00:	2484ffff 	addiu	a0,a0,-1
7f00cc04:	00a9582b 	sltu	t3,a1,t1
7f00cc08:	51600004 	beqzl	t3,7f00cc1c <__divsf3+0x2c4>
7f00cc0c:	00073c00 	sll	a3,a3,0x10
7f00cc10:	2484ffff 	addiu	a0,a0,-1
7f00cc14:	00a82821 	addu	a1,a1,t0
7f00cc18:	00073c00 	sll	a3,a3,0x10
7f00cc1c:	00a94823 	subu	t1,a1,t1
7f00cc20:	00872025 	or	a0,a0,a3
7f00cc24:	0009482b 	sltu	t1,zero,t1
7f00cc28:	0bc032bb 	j	7f00caec <__divsf3+0x194>
7f00cc2c:	00892025 	or	a0,a0,t1
7f00cc30:	01606021 	move	t4,t3
7f00cc34:	0bc032b3 	j	7f00cacc <__divsf3+0x174>
7f00cc38:	01a04821 	move	t1,t5
7f00cc3c:	000437c0 	sll	a2,a0,0x1f
7f00cc40:	00063402 	srl	a2,a2,0x10
7f00cc44:	0bc032de 	j	7f00cb78 <__divsf3+0x220>
7f00cc48:	00042042 	srl	a0,a0,0x1
7f00cc4c:	24020001 	li	v0,1
7f00cc50:	00431823 	subu	v1,v0,v1
7f00cc54:	2862001c 	slti	v0,v1,28
7f00cc58:	5040ff94 	beqzl	v0,7f00caac <__divsf3+0x154>
7f00cc5c:	00002021 	move	a0,zero
7f00cc60:	00031023 	negu	v0,v1
7f00cc64:	00441004 	sllv	v0,a0,v0
7f00cc68:	00641806 	srlv	v1,a0,v1
7f00cc6c:	0002202b 	sltu	a0,zero,v0
7f00cc70:	00832025 	or	a0,a0,v1
7f00cc74:	3083000f 	andi	v1,a0,0xf
7f00cc78:	24820004 	addiu	v0,a0,4
7f00cc7c:	38630004 	xori	v1,v1,0x4
7f00cc80:	0043200b 	movn	a0,v0,v1
7f00cc84:	7c820680 	ext	v0,a0,0x1a,0x1
7f00cc88:	50400004 	beqzl	v0,7f00cc9c <__divsf3+0x344>
7f00cc8c:	7c84b0c0 	ext	a0,a0,0x3,0x17
7f00cc90:	24030001 	li	v1,1
7f00cc94:	0bc03291 	j	7f00ca44 <__divsf3+0xec>
7f00cc98:	00002021 	move	a0,zero
7f00cc9c:	0bc03291 	j	7f00ca44 <__divsf3+0xec>
7f00cca0:	00001821 	move	v1,zero
7f00cca4:	00822025 	or	a0,a0,v0
7f00cca8:	7c84b000 	ext	a0,a0,0x0,0x17
7f00ccac:	0bc032a5 	j	7f00ca94 <__divsf3+0x13c>
7f00ccb0:	240300ff 	li	v1,255

7f00ccb4 <__eqsf2>:
7f00ccb4:	7c833dc0 	ext	v1,a0,0x17,0x8
7f00ccb8:	240200ff 	li	v0,255
7f00ccbc:	7c87b000 	ext	a3,a0,0x0,0x17
7f00ccc0:	7ca8b000 	ext	t0,a1,0x0,0x17
7f00ccc4:	7ca63dc0 	ext	a2,a1,0x17,0x8
7f00ccc8:	000427c2 	srl	a0,a0,0x1f
7f00cccc:	1062000e 	beq	v1,v0,7f00cd08 <__eqsf2+0x54>
7f00ccd0:	00052fc2 	srl	a1,a1,0x1f
7f00ccd4:	240200ff 	li	v0,255
7f00ccd8:	10c20010 	beq	a2,v0,7f00cd1c <__eqsf2+0x68>
7f00ccdc:	00000000 	nop
7f00cce0:	14660010 	bne	v1,a2,7f00cd24 <__eqsf2+0x70>
7f00cce4:	24020001 	li	v0,1
7f00cce8:	14e8000e 	bne	a3,t0,7f00cd24 <__eqsf2+0x70>
7f00ccec:	00000000 	nop
7f00ccf0:	1085000c 	beq	a0,a1,7f00cd24 <__eqsf2+0x70>
7f00ccf4:	00001021 	move	v0,zero
7f00ccf8:	0007382b 	sltu	a3,zero,a3
7f00ccfc:	24020001 	li	v0,1
7f00cd00:	03e00008 	jr	ra
7f00cd04:	00e3100a 	movz	v0,a3,v1
7f00cd08:	14e00006 	bnez	a3,7f00cd24 <__eqsf2+0x70>
7f00cd0c:	24020001 	li	v0,1
7f00cd10:	240200ff 	li	v0,255
7f00cd14:	14c2fff2 	bne	a2,v0,7f00cce0 <__eqsf2+0x2c>
7f00cd18:	00000000 	nop
7f00cd1c:	1100fff0 	beqz	t0,7f00cce0 <__eqsf2+0x2c>
7f00cd20:	24020001 	li	v0,1
7f00cd24:	03e00008 	jr	ra
7f00cd28:	00000000 	nop

7f00cd2c <__gesf2>:
7f00cd2c:	7c833dc0 	ext	v1,a0,0x17,0x8
7f00cd30:	240200ff 	li	v0,255
7f00cd34:	7c88b000 	ext	t0,a0,0x0,0x17
7f00cd38:	7ca7b000 	ext	a3,a1,0x0,0x17
7f00cd3c:	7ca63dc0 	ext	a2,a1,0x17,0x8
7f00cd40:	000427c2 	srl	a0,a0,0x1f
7f00cd44:	10620029 	beq	v1,v0,7f00cdec <__gesf2+0xc0>
7f00cd48:	00052fc2 	srl	a1,a1,0x1f
7f00cd4c:	240200ff 	li	v0,255
7f00cd50:	10c2002a 	beq	a2,v0,7f00cdfc <__gesf2+0xd0>
7f00cd54:	00000000 	nop
7f00cd58:	2d020001 	sltiu	v0,t0,1
7f00cd5c:	2ce90001 	sltiu	t1,a3,1
7f00cd60:	0003100b 	movn	v0,zero,v1
7f00cd64:	10400007 	beqz	v0,7f00cd84 <__gesf2+0x58>
7f00cd68:	0006480b 	movn	t1,zero,a2
7f00cd6c:	15200021 	bnez	t1,7f00cdf4 <__gesf2+0xc8>
7f00cd70:	00001021 	move	v0,zero
7f00cd74:	24020001 	li	v0,1
7f00cd78:	2403ffff 	li	v1,-1
7f00cd7c:	03e00008 	jr	ra
7f00cd80:	0065100a 	movz	v0,v1,a1
7f00cd84:	1520000d 	bnez	t1,7f00cdbc <__gesf2+0x90>
7f00cd88:	2402ffff 	li	v0,-1
7f00cd8c:	5485000c 	bnel	a0,a1,7f00cdc0 <__gesf2+0x94>
7f00cd90:	24030001 	li	v1,1
7f00cd94:	00c3102a 	slt	v0,a2,v1
7f00cd98:	54400008 	bnezl	v0,7f00cdbc <__gesf2+0x90>
7f00cd9c:	2402ffff 	li	v0,-1
7f00cda0:	0066182a 	slt	v1,v1,a2
7f00cda4:	50600008 	beqzl	v1,7f00cdc8 <__gesf2+0x9c>
7f00cda8:	00e8102b 	sltu	v0,a3,t0
7f00cdac:	24020001 	li	v0,1
7f00cdb0:	2403ffff 	li	v1,-1
7f00cdb4:	03e00008 	jr	ra
7f00cdb8:	0064100a 	movz	v0,v1,a0
7f00cdbc:	24030001 	li	v1,1
7f00cdc0:	03e00008 	jr	ra
7f00cdc4:	0064100a 	movz	v0,v1,a0
7f00cdc8:	1440fffc 	bnez	v0,7f00cdbc <__gesf2+0x90>
7f00cdcc:	2402ffff 	li	v0,-1
7f00cdd0:	0107382b 	sltu	a3,t0,a3
7f00cdd4:	10e00007 	beqz	a3,7f00cdf4 <__gesf2+0xc8>
7f00cdd8:	00001021 	move	v0,zero
7f00cddc:	24020001 	li	v0,1
7f00cde0:	2403ffff 	li	v1,-1
7f00cde4:	03e00008 	jr	ra
7f00cde8:	0064100a 	movz	v0,v1,a0
7f00cdec:	1100ffd7 	beqz	t0,7f00cd4c <__gesf2+0x20>
7f00cdf0:	2402fffe 	li	v0,-2
7f00cdf4:	03e00008 	jr	ra
7f00cdf8:	00000000 	nop
7f00cdfc:	10e0ffd6 	beqz	a3,7f00cd58 <__gesf2+0x2c>
7f00ce00:	2402fffe 	li	v0,-2
7f00ce04:	03e00008 	jr	ra
7f00ce08:	00000000 	nop

7f00ce0c <__lesf2>:
7f00ce0c:	7c833dc0 	ext	v1,a0,0x17,0x8
7f00ce10:	240200ff 	li	v0,255
7f00ce14:	7c87b000 	ext	a3,a0,0x0,0x17
7f00ce18:	7ca8b000 	ext	t0,a1,0x0,0x17
7f00ce1c:	7ca63dc0 	ext	a2,a1,0x17,0x8
7f00ce20:	000427c2 	srl	a0,a0,0x1f
7f00ce24:	10620018 	beq	v1,v0,7f00ce88 <__lesf2+0x7c>
7f00ce28:	00052fc2 	srl	a1,a1,0x1f
7f00ce2c:	240200ff 	li	v0,255
7f00ce30:	10c2000c 	beq	a2,v0,7f00ce64 <__lesf2+0x58>
7f00ce34:	00000000 	nop
7f00ce38:	2ce20001 	sltiu	v0,a3,1
7f00ce3c:	2d090001 	sltiu	t1,t0,1
7f00ce40:	0003100b 	movn	v0,zero,v1
7f00ce44:	1040000b 	beqz	v0,7f00ce74 <__lesf2+0x68>
7f00ce48:	0006480b 	movn	t1,zero,a2
7f00ce4c:	15200007 	bnez	t1,7f00ce6c <__lesf2+0x60>
7f00ce50:	00001021 	move	v0,zero
7f00ce54:	24020001 	li	v0,1
7f00ce58:	2403ffff 	li	v1,-1
7f00ce5c:	03e00008 	jr	ra
7f00ce60:	0065100a 	movz	v0,v1,a1
7f00ce64:	1100fff4 	beqz	t0,7f00ce38 <__lesf2+0x2c>
7f00ce68:	24020002 	li	v0,2
7f00ce6c:	03e00008 	jr	ra
7f00ce70:	00000000 	nop
7f00ce74:	11200008 	beqz	t1,7f00ce98 <__lesf2+0x8c>
7f00ce78:	2402ffff 	li	v0,-1
7f00ce7c:	24030001 	li	v1,1
7f00ce80:	03e00008 	jr	ra
7f00ce84:	0064100a 	movz	v0,v1,a0
7f00ce88:	10e0ffe8 	beqz	a3,7f00ce2c <__lesf2+0x20>
7f00ce8c:	24020002 	li	v0,2
7f00ce90:	03e00008 	jr	ra
7f00ce94:	00000000 	nop
7f00ce98:	1485fff8 	bne	a0,a1,7f00ce7c <__lesf2+0x70>
7f00ce9c:	00000000 	nop
7f00cea0:	00c3102a 	slt	v0,a2,v1
7f00cea4:	5440fff5 	bnezl	v0,7f00ce7c <__lesf2+0x70>
7f00cea8:	2402ffff 	li	v0,-1
7f00ceac:	0066182a 	slt	v1,v1,a2
7f00ceb0:	50600005 	beqzl	v1,7f00cec8 <__lesf2+0xbc>
7f00ceb4:	0107102b 	sltu	v0,t0,a3
7f00ceb8:	24020001 	li	v0,1
7f00cebc:	2403ffff 	li	v1,-1
7f00cec0:	03e00008 	jr	ra
7f00cec4:	0064100a 	movz	v0,v1,a0
7f00cec8:	5440ffec 	bnezl	v0,7f00ce7c <__lesf2+0x70>
7f00cecc:	2402ffff 	li	v0,-1
7f00ced0:	00e8382b 	sltu	a3,a3,t0
7f00ced4:	10e0ffe5 	beqz	a3,7f00ce6c <__lesf2+0x60>
7f00ced8:	00001021 	move	v0,zero
7f00cedc:	2403ffff 	li	v1,-1
7f00cee0:	24020001 	li	v0,1
7f00cee4:	03e00008 	jr	ra
7f00cee8:	0064100a 	movz	v0,v1,a0

7f00ceec <__mulsf3>:
7f00ceec:	7c8607c0 	ext	a2,a0,0x1f,0x1
7f00cef0:	7c833dc0 	ext	v1,a0,0x17,0x8
7f00cef4:	30ca00ff 	andi	t2,a2,0xff
7f00cef8:	1460001a 	bnez	v1,7f00cf64 <__mulsf3+0x78>
7f00cefc:	7c84b000 	ext	a0,a0,0x0,0x17
7f00cf00:	54800038 	bnezl	a0,7f00cfe4 <__mulsf3+0xf8>
7f00cf04:	70831820 	clz	v1,a0
7f00cf08:	7cac07c0 	ext	t4,a1,0x1f,0x1
7f00cf0c:	7ca73dc0 	ext	a3,a1,0x17,0x8
7f00cf10:	24090004 	li	t1,4
7f00cf14:	240e0001 	li	t6,1
7f00cf18:	7ca5b000 	ext	a1,a1,0x0,0x17
7f00cf1c:	10e0001e 	beqz	a3,7f00cf98 <__mulsf3+0xac>
7f00cf20:	318b00ff 	andi	t3,t4,0xff
7f00cf24:	240800ff 	li	t0,255
7f00cf28:	10e8002b 	beq	a3,t0,7f00cfd8 <__mulsf3+0xec>
7f00cf2c:	24080002 	li	t0,2
7f00cf30:	3c080080 	lui	t0,0x80
7f00cf34:	00a82825 	or	a1,a1,t0
7f00cf38:	000528c0 	sll	a1,a1,0x3
7f00cf3c:	24e7ff81 	addiu	a3,a3,-127
7f00cf40:	00004021 	move	t0,zero
7f00cf44:	01094825 	or	t1,t0,t1
7f00cf48:	3c0d7f01 	lui	t5,0x7f01
7f00cf4c:	25ade360 	addiu	t5,t5,-7328
7f00cf50:	00094880 	sll	t1,t1,0x2
7f00cf54:	01a94821 	addu	t1,t5,t1
7f00cf58:	8d2d0000 	lw	t5,0(t1)
7f00cf5c:	01a00008 	jr	t5
7f00cf60:	016a4826 	xor	t1,t3,t2
7f00cf64:	240700ff 	li	a3,255
7f00cf68:	10670014 	beq	v1,a3,7f00cfbc <__mulsf3+0xd0>
7f00cf6c:	3c070080 	lui	a3,0x80
7f00cf70:	00872025 	or	a0,a0,a3
7f00cf74:	000420c0 	sll	a0,a0,0x3
7f00cf78:	2463ff81 	addiu	v1,v1,-127
7f00cf7c:	00004821 	move	t1,zero
7f00cf80:	00007021 	move	t6,zero
7f00cf84:	7cac07c0 	ext	t4,a1,0x1f,0x1
7f00cf88:	7ca73dc0 	ext	a3,a1,0x17,0x8
7f00cf8c:	318b00ff 	andi	t3,t4,0xff
7f00cf90:	14e0ffe4 	bnez	a3,7f00cf24 <__mulsf3+0x38>
7f00cf94:	7ca5b000 	ext	a1,a1,0x0,0x17
7f00cf98:	10a0ffea 	beqz	a1,7f00cf44 <__mulsf3+0x58>
7f00cf9c:	24080001 	li	t0,1
7f00cfa0:	70a73820 	clz	a3,a1
7f00cfa4:	24e8fffb 	addiu	t0,a3,-5
7f00cfa8:	01052804 	sllv	a1,a1,t0
7f00cfac:	2408ff8a 	li	t0,-118
7f00cfb0:	01073823 	subu	a3,t0,a3
7f00cfb4:	0bc033d1 	j	7f00cf44 <__mulsf3+0x58>
7f00cfb8:	00004021 	move	t0,zero
7f00cfbc:	2407000c 	li	a3,12
7f00cfc0:	24090008 	li	t1,8
7f00cfc4:	240e0002 	li	t6,2
7f00cfc8:	00e4480b 	movn	t1,a3,a0
7f00cfcc:	24070003 	li	a3,3
7f00cfd0:	0bc033e1 	j	7f00cf84 <__mulsf3+0x98>
7f00cfd4:	00e4700b 	movn	t6,a3,a0
7f00cfd8:	240d0003 	li	t5,3
7f00cfdc:	0bc033d1 	j	7f00cf44 <__mulsf3+0x58>
7f00cfe0:	01a5400b 	movn	t0,t5,a1
7f00cfe4:	2467fffb 	addiu	a3,v1,-5
7f00cfe8:	00e42004 	sllv	a0,a0,a3
7f00cfec:	2407ff8a 	li	a3,-118
7f00cff0:	00e31823 	subu	v1,a3,v1
7f00cff4:	00004821 	move	t1,zero
7f00cff8:	0bc033e1 	j	7f00cf84 <__mulsf3+0x98>
7f00cffc:	00007021 	move	t6,zero
7f00d000:	30c60001 	andi	a2,a2,0x1
7f00d004:	01404821 	move	t1,t2
7f00d008:	01c04021 	move	t0,t6
7f00d00c:	24030002 	li	v1,2
7f00d010:	51030038 	beql	t0,v1,7f00d0f4 <__mulsf3+0x208>
7f00d014:	00002021 	move	a0,zero
7f00d018:	24030003 	li	v1,3
7f00d01c:	11030067 	beq	t0,v1,7f00d1bc <__mulsf3+0x2d0>
7f00d020:	24030001 	li	v1,1
7f00d024:	51030059 	beql	t0,v1,7f00d18c <__mulsf3+0x2a0>
7f00d028:	00002021 	move	a0,zero
7f00d02c:	2443007f 	addiu	v1,v0,127
7f00d030:	1860004f 	blez	v1,7f00d170 <__mulsf3+0x284>
7f00d034:	3086000f 	andi	a2,a0,0xf
7f00d038:	24850004 	addiu	a1,a0,4
7f00d03c:	38c60004 	xori	a2,a2,0x4
7f00d040:	00a6200b 	movn	a0,a1,a2
7f00d044:	7c8506c0 	ext	a1,a0,0x1b,0x1
7f00d048:	50a00006 	beqzl	a1,7f00d064 <__mulsf3+0x178>
7f00d04c:	286200ff 	slti	v0,v1,255
7f00d050:	3c03f7ff 	lui	v1,0xf7ff
7f00d054:	3463ffff 	ori	v1,v1,0xffff
7f00d058:	00832024 	and	a0,a0,v1
7f00d05c:	24430080 	addiu	v1,v0,128
7f00d060:	286200ff 	slti	v0,v1,255
7f00d064:	1440004f 	bnez	v0,7f00d1a4 <__mulsf3+0x2b8>
7f00d068:	7c84b0c0 	ext	a0,a0,0x3,0x17
7f00d06c:	01203021 	move	a2,t1
7f00d070:	240300ff 	li	v1,255
7f00d074:	00002021 	move	a0,zero
7f00d078:	00001021 	move	v0,zero
7f00d07c:	7c82b004 	ins	v0,a0,0x0,0x17
7f00d080:	7c62f5c4 	ins	v0,v1,0x17,0x8
7f00d084:	03e00008 	jr	ra
7f00d088:	7cc2ffc4 	ins	v0,a2,0x1f,0x1
7f00d08c:	00a40019 	multu	a1,a0
7f00d090:	00e31021 	addu	v0,a3,v1
7f00d094:	00001812 	mflo	v1
7f00d098:	00032180 	sll	a0,v1,0x6
7f00d09c:	0004202b 	sltu	a0,zero,a0
7f00d0a0:	00005810 	mfhi	t3
7f00d0a4:	00031e82 	srl	v1,v1,0x1a
7f00d0a8:	000b2980 	sll	a1,t3,0x6
7f00d0ac:	00a42025 	or	a0,a1,a0
7f00d0b0:	00832025 	or	a0,a0,v1
7f00d0b4:	7c8306c0 	ext	v1,a0,0x1b,0x1
7f00d0b8:	1060ffdd 	beqz	v1,7f00d030 <__mulsf3+0x144>
7f00d0bc:	2443007f 	addiu	v1,v0,127
7f00d0c0:	30830001 	andi	v1,a0,0x1
7f00d0c4:	00042042 	srl	a0,a0,0x1
7f00d0c8:	24420001 	addiu	v0,v0,1
7f00d0cc:	0bc0340b 	j	7f00d02c <__mulsf3+0x140>
7f00d0d0:	00642025 	or	a0,v1,a0
7f00d0d4:	3c04007f 	lui	a0,0x7f
7f00d0d8:	24080003 	li	t0,3
7f00d0dc:	24030002 	li	v1,2
7f00d0e0:	00003021 	move	a2,zero
7f00d0e4:	3484ffff 	ori	a0,a0,0xffff
7f00d0e8:	1503ffcb 	bne	t0,v1,7f00d018 <__mulsf3+0x12c>
7f00d0ec:	00004821 	move	t1,zero
7f00d0f0:	00002021 	move	a0,zero
7f00d0f4:	00001021 	move	v0,zero
7f00d0f8:	240300ff 	li	v1,255
7f00d0fc:	7c82b004 	ins	v0,a0,0x0,0x17
7f00d100:	7c62f5c4 	ins	v0,v1,0x17,0x8
7f00d104:	03e00008 	jr	ra
7f00d108:	7cc2ffc4 	ins	v0,a2,0x1f,0x1
7f00d10c:	01203021 	move	a2,t1
7f00d110:	0bc03403 	j	7f00d00c <__mulsf3+0x120>
7f00d114:	01c04021 	move	t0,t6
7f00d118:	31860001 	andi	a2,t4,0x1
7f00d11c:	00a02021 	move	a0,a1
7f00d120:	0bc03403 	j	7f00d00c <__mulsf3+0x120>
7f00d124:	01604821 	move	t1,t3
7f00d128:	01203021 	move	a2,t1
7f00d12c:	0bc03403 	j	7f00d00c <__mulsf3+0x120>
7f00d130:	00a02021 	move	a0,a1
7f00d134:	00a42825 	or	a1,a1,a0
7f00d138:	3c020040 	lui	v0,0x40
7f00d13c:	00a22824 	and	a1,a1,v0
7f00d140:	54a0001b 	bnezl	a1,7f00d1b0 <__mulsf3+0x2c4>
7f00d144:	3c04007f 	lui	a0,0x7f
7f00d148:	00822025 	or	a0,a0,v0
7f00d14c:	01404821 	move	t1,t2
7f00d150:	7c84b000 	ext	a0,a0,0x0,0x17
7f00d154:	00001021 	move	v0,zero
7f00d158:	240300ff 	li	v1,255
7f00d15c:	7c82b004 	ins	v0,a0,0x0,0x17
7f00d160:	01203021 	move	a2,t1
7f00d164:	7c62f5c4 	ins	v0,v1,0x17,0x8
7f00d168:	03e00008 	jr	ra
7f00d16c:	7cc2ffc4 	ins	v0,a2,0x1f,0x1
7f00d170:	24020001 	li	v0,1
7f00d174:	00431823 	subu	v1,v0,v1
7f00d178:	2862001c 	slti	v0,v1,28
7f00d17c:	54400012 	bnezl	v0,7f00d1c8 <__mulsf3+0x2dc>
7f00d180:	00031023 	negu	v0,v1
7f00d184:	01203021 	move	a2,t1
7f00d188:	00002021 	move	a0,zero
7f00d18c:	00001021 	move	v0,zero
7f00d190:	00001821 	move	v1,zero
7f00d194:	7c82b004 	ins	v0,a0,0x0,0x17
7f00d198:	7c62f5c4 	ins	v0,v1,0x17,0x8
7f00d19c:	03e00008 	jr	ra
7f00d1a0:	7cc2ffc4 	ins	v0,a2,0x1f,0x1
7f00d1a4:	306300ff 	andi	v1,v1,0xff
7f00d1a8:	0bc0341e 	j	7f00d078 <__mulsf3+0x18c>
7f00d1ac:	01203021 	move	a2,t1
7f00d1b0:	3484ffff 	ori	a0,a0,0xffff
7f00d1b4:	0bc03454 	j	7f00d150 <__mulsf3+0x264>
7f00d1b8:	00004821 	move	t1,zero
7f00d1bc:	3c050040 	lui	a1,0x40
7f00d1c0:	0bc03454 	j	7f00d150 <__mulsf3+0x264>
7f00d1c4:	00852025 	or	a0,a0,a1
7f00d1c8:	00441004 	sllv	v0,a0,v0
7f00d1cc:	00641806 	srlv	v1,a0,v1
7f00d1d0:	0002202b 	sltu	a0,zero,v0
7f00d1d4:	00832025 	or	a0,a0,v1
7f00d1d8:	3083000f 	andi	v1,a0,0xf
7f00d1dc:	24820004 	addiu	v0,a0,4
7f00d1e0:	38630004 	xori	v1,v1,0x4
7f00d1e4:	0043200b 	movn	a0,v0,v1
7f00d1e8:	7c820680 	ext	v0,a0,0x1a,0x1
7f00d1ec:	50400005 	beqzl	v0,7f00d204 <__mulsf3+0x318>
7f00d1f0:	7c84b0c0 	ext	a0,a0,0x3,0x17
7f00d1f4:	01203021 	move	a2,t1
7f00d1f8:	24030001 	li	v1,1
7f00d1fc:	0bc0341e 	j	7f00d078 <__mulsf3+0x18c>
7f00d200:	00002021 	move	a0,zero
7f00d204:	01203021 	move	a2,t1
7f00d208:	0bc0341e 	j	7f00d078 <__mulsf3+0x18c>
7f00d20c:	00001821 	move	v1,zero

7f00d210 <__subsf3>:
7f00d210:	7c89b000 	ext	t1,a0,0x0,0x17
7f00d214:	7c8607c0 	ext	a2,a0,0x1f,0x1
7f00d218:	7ca7b000 	ext	a3,a1,0x0,0x17
7f00d21c:	7ca33dc0 	ext	v1,a1,0x17,0x8
7f00d220:	240200ff 	li	v0,255
7f00d224:	7c843dc0 	ext	a0,a0,0x17,0x8
7f00d228:	30c800ff 	andi	t0,a2,0xff
7f00d22c:	000948c0 	sll	t1,t1,0x3
7f00d230:	00052fc2 	srl	a1,a1,0x1f
7f00d234:	10620029 	beq	v1,v0,7f00d2dc <__subsf3+0xcc>
7f00d238:	000738c0 	sll	a3,a3,0x3
7f00d23c:	38a50001 	xori	a1,a1,0x1
7f00d240:	5105004b 	beql	t0,a1,7f00d370 <__subsf3+0x160>
7f00d244:	00832823 	subu	a1,a0,v1
7f00d248:	00833023 	subu	a2,a0,v1
7f00d24c:	18c0008a 	blez	a2,7f00d478 <__subsf3+0x268>
7f00d250:	00000000 	nop
7f00d254:	14600025 	bnez	v1,7f00d2ec <__subsf3+0xdc>
7f00d258:	240200ff 	li	v0,255
7f00d25c:	14e00060 	bnez	a3,7f00d3e0 <__subsf3+0x1d0>
7f00d260:	24c6ffff 	addiu	a2,a2,-1
7f00d264:	24860001 	addiu	a2,a0,1
7f00d268:	312a000f 	andi	t2,t1,0xf
7f00d26c:	01201021 	move	v0,t1
7f00d270:	00801821 	move	v1,a0
7f00d274:	24040004 	li	a0,4
7f00d278:	11440003 	beq	t2,a0,7f00d288 <__subsf3+0x78>
7f00d27c:	31080001 	andi	t0,t0,0x1
7f00d280:	24420004 	addiu	v0,v0,4
7f00d284:	24660001 	addiu	a2,v1,1
7f00d288:	7c440680 	ext	a0,v0,0x1a,0x1
7f00d28c:	50800009 	beqzl	a0,7f00d2b4 <__subsf3+0xa4>
7f00d290:	30c600ff 	andi	a2,a2,0xff
7f00d294:	240300ff 	li	v1,255
7f00d298:	10c30083 	beq	a2,v1,7f00d4a8 <__subsf3+0x298>
7f00d29c:	3c04fbff 	lui	a0,0xfbff
7f00d2a0:	3484ffff 	ori	a0,a0,0xffff
7f00d2a4:	00c01821 	move	v1,a2
7f00d2a8:	00441024 	and	v0,v0,a0
7f00d2ac:	24c60001 	addiu	a2,a2,1
7f00d2b0:	30c600ff 	andi	a2,a2,0xff
7f00d2b4:	28c60002 	slti	a2,a2,2
7f00d2b8:	14c00062 	bnez	a2,7f00d444 <__subsf3+0x234>
7f00d2bc:	000210c2 	srl	v0,v0,0x3
7f00d2c0:	7c44b000 	ext	a0,v0,0x0,0x17
7f00d2c4:	306300ff 	andi	v1,v1,0xff
7f00d2c8:	00001021 	move	v0,zero
7f00d2cc:	7c82b004 	ins	v0,a0,0x0,0x17
7f00d2d0:	7c62f5c4 	ins	v0,v1,0x17,0x8
7f00d2d4:	03e00008 	jr	ra
7f00d2d8:	7d02ffc4 	ins	v0,t0,0x1f,0x1
7f00d2dc:	50e0ffd8 	beqzl	a3,7f00d240 <__subsf3+0x30>
7f00d2e0:	38a50001 	xori	a1,a1,0x1
7f00d2e4:	0bc03490 	j	7f00d240 <__subsf3+0x30>
7f00d2e8:	00000000 	nop
7f00d2ec:	10820051 	beq	a0,v0,7f00d434 <__subsf3+0x224>
7f00d2f0:	312a000f 	andi	t2,t1,0xf
7f00d2f4:	3c020400 	lui	v0,0x400
7f00d2f8:	00e23825 	or	a3,a3,v0
7f00d2fc:	28c3001c 	slti	v1,a2,28
7f00d300:	10600006 	beqz	v1,7f00d31c <__subsf3+0x10c>
7f00d304:	24020001 	li	v0,1
7f00d308:	00061023 	negu	v0,a2
7f00d30c:	00471004 	sllv	v0,a3,v0
7f00d310:	0002102b 	sltu	v0,zero,v0
7f00d314:	00c73806 	srlv	a3,a3,a2
7f00d318:	00471025 	or	v0,v0,a3
7f00d31c:	01221023 	subu	v0,t1,v0
7f00d320:	00801821 	move	v1,a0
7f00d324:	7c440680 	ext	a0,v0,0x1a,0x1
7f00d328:	10800034 	beqz	a0,7f00d3fc <__subsf3+0x1ec>
7f00d32c:	7c4ac800 	ext	t2,v0,0x0,0x1a
7f00d330:	71442020 	clz	a0,t2
7f00d334:	2484fffb 	addiu	a0,a0,-5
7f00d338:	0083102a 	slt	v0,a0,v1
7f00d33c:	14400061 	bnez	v0,7f00d4c4 <__subsf3+0x2b4>
7f00d340:	008a5004 	sllv	t2,t2,a0
7f00d344:	00831823 	subu	v1,a0,v1
7f00d348:	24630001 	addiu	v1,v1,1
7f00d34c:	00031023 	negu	v0,v1
7f00d350:	004a1004 	sllv	v0,t2,v0
7f00d354:	0002102b 	sltu	v0,zero,v0
7f00d358:	006a5006 	srlv	t2,t2,v1
7f00d35c:	004a1025 	or	v0,v0,t2
7f00d360:	304a000f 	andi	t2,v0,0xf
7f00d364:	24060001 	li	a2,1
7f00d368:	0bc0349d 	j	7f00d274 <__subsf3+0x64>
7f00d36c:	00001821 	move	v1,zero
7f00d370:	18a0005b 	blez	a1,7f00d4e0 <__subsf3+0x2d0>
7f00d374:	00000000 	nop
7f00d378:	10600023 	beqz	v1,7f00d408 <__subsf3+0x1f8>
7f00d37c:	240200ff 	li	v0,255
7f00d380:	1082002c 	beq	a0,v0,7f00d434 <__subsf3+0x224>
7f00d384:	312a000f 	andi	t2,t1,0xf
7f00d388:	3c020400 	lui	v0,0x400
7f00d38c:	00e23825 	or	a3,a3,v0
7f00d390:	28a3001c 	slti	v1,a1,28
7f00d394:	1460007b 	bnez	v1,7f00d584 <__subsf3+0x374>
7f00d398:	24020001 	li	v0,1
7f00d39c:	00491021 	addu	v0,v0,t1
7f00d3a0:	00801821 	move	v1,a0
7f00d3a4:	7c440680 	ext	a0,v0,0x1a,0x1
7f00d3a8:	50800015 	beqzl	a0,7f00d400 <__subsf3+0x1f0>
7f00d3ac:	24660001 	addiu	a2,v1,1
7f00d3b0:	24630001 	addiu	v1,v1,1
7f00d3b4:	240400ff 	li	a0,255
7f00d3b8:	10640083 	beq	v1,a0,7f00d5c8 <__subsf3+0x3b8>
7f00d3bc:	3c04fbff 	lui	a0,0xfbff
7f00d3c0:	3484ffff 	ori	a0,a0,0xffff
7f00d3c4:	00442024 	and	a0,v0,a0
7f00d3c8:	00042042 	srl	a0,a0,0x1
7f00d3cc:	30420001 	andi	v0,v0,0x1
7f00d3d0:	00441025 	or	v0,v0,a0
7f00d3d4:	24660001 	addiu	a2,v1,1
7f00d3d8:	0bc0349d 	j	7f00d274 <__subsf3+0x64>
7f00d3dc:	304a000f 	andi	t2,v0,0xf
7f00d3e0:	14c00011 	bnez	a2,7f00d428 <__subsf3+0x218>
7f00d3e4:	240200ff 	li	v0,255
7f00d3e8:	01271023 	subu	v0,t1,a3
7f00d3ec:	00801821 	move	v1,a0
7f00d3f0:	7c440680 	ext	a0,v0,0x1a,0x1
7f00d3f4:	1480ffce 	bnez	a0,7f00d330 <__subsf3+0x120>
7f00d3f8:	7c4ac800 	ext	t2,v0,0x0,0x1a
7f00d3fc:	24660001 	addiu	a2,v1,1
7f00d400:	0bc0349d 	j	7f00d274 <__subsf3+0x64>
7f00d404:	304a000f 	andi	t2,v0,0xf
7f00d408:	50e0ff97 	beqzl	a3,7f00d268 <__subsf3+0x58>
7f00d40c:	24860001 	addiu	a2,a0,1
7f00d410:	24a5ffff 	addiu	a1,a1,-1
7f00d414:	54a00068 	bnezl	a1,7f00d5b8 <__subsf3+0x3a8>
7f00d418:	240200ff 	li	v0,255
7f00d41c:	00e91021 	addu	v0,a3,t1
7f00d420:	0bc034e9 	j	7f00d3a4 <__subsf3+0x194>
7f00d424:	00801821 	move	v1,a0
7f00d428:	5482ffb5 	bnel	a0,v0,7f00d300 <__subsf3+0xf0>
7f00d42c:	28c3001c 	slti	v1,a2,28
7f00d430:	312a000f 	andi	t2,t1,0xf
7f00d434:	01201021 	move	v0,t1
7f00d438:	24060100 	li	a2,256
7f00d43c:	0bc0349d 	j	7f00d274 <__subsf3+0x64>
7f00d440:	240300ff 	li	v1,255
7f00d444:	504000e2 	beqzl	v0,7f00d7d0 <__subsf3+0x5c0>
7f00d448:	306300ff 	andi	v1,v1,0xff
7f00d44c:	1060ff9e 	beqz	v1,7f00d2c8 <__subsf3+0xb8>
7f00d450:	7c44b000 	ext	a0,v0,0x0,0x17
7f00d454:	3c040040 	lui	a0,0x40
7f00d458:	00442025 	or	a0,v0,a0
7f00d45c:	7c84b000 	ext	a0,a0,0x0,0x17
7f00d460:	00001021 	move	v0,zero
7f00d464:	306300ff 	andi	v1,v1,0xff
7f00d468:	7c82b004 	ins	v0,a0,0x0,0x17
7f00d46c:	7c62f5c4 	ins	v0,v1,0x17,0x8
7f00d470:	03e00008 	jr	ra
7f00d474:	7d02ffc4 	ins	v0,t0,0x1f,0x1
7f00d478:	14c00029 	bnez	a2,7f00d520 <__subsf3+0x310>
7f00d47c:	24820001 	addiu	v0,a0,1
7f00d480:	304200ff 	andi	v0,v0,0xff
7f00d484:	28420002 	slti	v0,v0,2
7f00d488:	1440005b 	bnez	v0,7f00d5f8 <__subsf3+0x3e8>
7f00d48c:	01275023 	subu	t2,t1,a3
7f00d490:	7d420680 	ext	v0,t2,0x1a,0x1
7f00d494:	10400034 	beqz	v0,7f00d568 <__subsf3+0x358>
7f00d498:	00801821 	move	v1,a0
7f00d49c:	00e95023 	subu	t2,a3,t1
7f00d4a0:	0bc034cc 	j	7f00d330 <__subsf3+0x120>
7f00d4a4:	00a04021 	move	t0,a1
7f00d4a8:	00002021 	move	a0,zero
7f00d4ac:	00001021 	move	v0,zero
7f00d4b0:	240300ff 	li	v1,255
7f00d4b4:	7c82b004 	ins	v0,a0,0x0,0x17
7f00d4b8:	7c62f5c4 	ins	v0,v1,0x17,0x8
7f00d4bc:	03e00008 	jr	ra
7f00d4c0:	7d02ffc4 	ins	v0,t0,0x1f,0x1
7f00d4c4:	3c02fbff 	lui	v0,0xfbff
7f00d4c8:	00641823 	subu	v1,v1,a0
7f00d4cc:	3442ffff 	ori	v0,v0,0xffff
7f00d4d0:	01421024 	and	v0,t2,v0
7f00d4d4:	24660001 	addiu	a2,v1,1
7f00d4d8:	0bc0349d 	j	7f00d274 <__subsf3+0x64>
7f00d4dc:	314a000f 	andi	t2,t2,0xf
7f00d4e0:	14a00051 	bnez	a1,7f00d628 <__subsf3+0x418>
7f00d4e4:	00000000 	nop
7f00d4e8:	24830001 	addiu	v1,a0,1
7f00d4ec:	306200ff 	andi	v0,v1,0xff
7f00d4f0:	28420002 	slti	v0,v0,2
7f00d4f4:	14400038 	bnez	v0,7f00d5d8 <__subsf3+0x3c8>
7f00d4f8:	240200ff 	li	v0,255
7f00d4fc:	50620033 	beql	v1,v0,7f00d5cc <__subsf3+0x3bc>
7f00d500:	30c80001 	andi	t0,a2,0x1
7f00d504:	00e93821 	addu	a3,a3,t1
7f00d508:	30e20001 	andi	v0,a3,0x1
7f00d50c:	00073842 	srl	a3,a3,0x1
7f00d510:	00471025 	or	v0,v0,a3
7f00d514:	24860002 	addiu	a2,a0,2
7f00d518:	0bc0349d 	j	7f00d274 <__subsf3+0x64>
7f00d51c:	304a000f 	andi	t2,v0,0xf
7f00d520:	1080001e 	beqz	a0,7f00d59c <__subsf3+0x38c>
7f00d524:	00063023 	negu	a2,a2
7f00d528:	240200ff 	li	v0,255
7f00d52c:	10620053 	beq	v1,v0,7f00d67c <__subsf3+0x46c>
7f00d530:	30ea000f 	andi	t2,a3,0xf
7f00d534:	3c020400 	lui	v0,0x400
7f00d538:	01224825 	or	t1,t1,v0
7f00d53c:	28c4001c 	slti	a0,a2,28
7f00d540:	10800006 	beqz	a0,7f00d55c <__subsf3+0x34c>
7f00d544:	24020001 	li	v0,1
7f00d548:	00061023 	negu	v0,a2
7f00d54c:	00491004 	sllv	v0,t1,v0
7f00d550:	00c93006 	srlv	a2,t1,a2
7f00d554:	0002102b 	sltu	v0,zero,v0
7f00d558:	00461025 	or	v0,v0,a2
7f00d55c:	00e21023 	subu	v0,a3,v0
7f00d560:	0bc034fc 	j	7f00d3f0 <__subsf3+0x1e0>
7f00d564:	00a04021 	move	t0,a1
7f00d568:	1540ff72 	bnez	t2,7f00d334 <__subsf3+0x124>
7f00d56c:	71442020 	clz	a0,t2
7f00d570:	00004021 	move	t0,zero
7f00d574:	24060001 	li	a2,1
7f00d578:	24020004 	li	v0,4
7f00d57c:	0bc034a2 	j	7f00d288 <__subsf3+0x78>
7f00d580:	00001821 	move	v1,zero
7f00d584:	00051023 	negu	v0,a1
7f00d588:	00471004 	sllv	v0,a3,v0
7f00d58c:	0002102b 	sltu	v0,zero,v0
7f00d590:	00a73806 	srlv	a3,a3,a1
7f00d594:	0bc034e7 	j	7f00d39c <__subsf3+0x18c>
7f00d598:	00471025 	or	v0,v0,a3
7f00d59c:	55200049 	bnezl	t1,7f00d6c4 <__subsf3+0x4b4>
7f00d5a0:	24c6ffff 	addiu	a2,a2,-1
7f00d5a4:	24660001 	addiu	a2,v1,1
7f00d5a8:	30ea000f 	andi	t2,a3,0xf
7f00d5ac:	00e01021 	move	v0,a3
7f00d5b0:	0bc0349d 	j	7f00d274 <__subsf3+0x64>
7f00d5b4:	00a04021 	move	t0,a1
7f00d5b8:	5482ff76 	bnel	a0,v0,7f00d394 <__subsf3+0x184>
7f00d5bc:	28a3001c 	slti	v1,a1,28
7f00d5c0:	0bc0350d 	j	7f00d434 <__subsf3+0x224>
7f00d5c4:	312a000f 	andi	t2,t1,0xf
7f00d5c8:	30c80001 	andi	t0,a2,0x1
7f00d5cc:	24020004 	li	v0,4
7f00d5d0:	0bc034a2 	j	7f00d288 <__subsf3+0x78>
7f00d5d4:	24060100 	li	a2,256
7f00d5d8:	14800059 	bnez	a0,7f00d740 <__subsf3+0x530>
7f00d5dc:	00000000 	nop
7f00d5e0:	15200068 	bnez	t1,7f00d784 <__subsf3+0x574>
7f00d5e4:	30ea000f 	andi	t2,a3,0xf
7f00d5e8:	00e01021 	move	v0,a3
7f00d5ec:	24060001 	li	a2,1
7f00d5f0:	0bc0349d 	j	7f00d274 <__subsf3+0x64>
7f00d5f4:	00001821 	move	v1,zero
7f00d5f8:	14800013 	bnez	a0,7f00d648 <__subsf3+0x438>
7f00d5fc:	00000000 	nop
7f00d600:	15200044 	bnez	t1,7f00d714 <__subsf3+0x504>
7f00d604:	00000000 	nop
7f00d608:	50e0ffda 	beqzl	a3,7f00d574 <__subsf3+0x364>
7f00d60c:	00004021 	move	t0,zero
7f00d610:	30ea000f 	andi	t2,a3,0xf
7f00d614:	00e01021 	move	v0,a3
7f00d618:	00a04021 	move	t0,a1
7f00d61c:	24060001 	li	a2,1
7f00d620:	0bc0349d 	j	7f00d274 <__subsf3+0x64>
7f00d624:	00001821 	move	v1,zero
7f00d628:	1480002b 	bnez	a0,7f00d6d8 <__subsf3+0x4c8>
7f00d62c:	00052823 	negu	a1,a1
7f00d630:	5520004d 	bnezl	t1,7f00d768 <__subsf3+0x558>
7f00d634:	24a5ffff 	addiu	a1,a1,-1
7f00d638:	24660001 	addiu	a2,v1,1
7f00d63c:	30ea000f 	andi	t2,a3,0xf
7f00d640:	0bc0349d 	j	7f00d274 <__subsf3+0x64>
7f00d644:	00e01021 	move	v0,a3
7f00d648:	15200011 	bnez	t1,7f00d690 <__subsf3+0x480>
7f00d64c:	00000000 	nop
7f00d650:	14e0000a 	bnez	a3,7f00d67c <__subsf3+0x46c>
7f00d654:	30ea000f 	andi	t2,a3,0xf
7f00d658:	3c0203ff 	lui	v0,0x3ff
7f00d65c:	00004021 	move	t0,zero
7f00d660:	24060100 	li	a2,256
7f00d664:	3442fffc 	ori	v0,v0,0xfffc
7f00d668:	0bc034a2 	j	7f00d288 <__subsf3+0x78>
7f00d66c:	240300ff 	li	v1,255
7f00d670:	1462ffb3 	bne	v1,v0,7f00d540 <__subsf3+0x330>
7f00d674:	28c4001c 	slti	a0,a2,28
7f00d678:	30ea000f 	andi	t2,a3,0xf
7f00d67c:	00e01021 	move	v0,a3
7f00d680:	00a04021 	move	t0,a1
7f00d684:	24060100 	li	a2,256
7f00d688:	0bc0349d 	j	7f00d274 <__subsf3+0x64>
7f00d68c:	240300ff 	li	v1,255
7f00d690:	10e0ff68 	beqz	a3,7f00d434 <__subsf3+0x224>
7f00d694:	312a000f 	andi	t2,t1,0xf
7f00d698:	000910c2 	srl	v0,t1,0x3
7f00d69c:	000718c2 	srl	v1,a3,0x3
7f00d6a0:	00621825 	or	v1,v1,v0
7f00d6a4:	7c630580 	ext	v1,v1,0x16,0x1
7f00d6a8:	54600043 	bnezl	v1,7f00d7b8 <__subsf3+0x5a8>
7f00d6ac:	3c0203ff 	lui	v0,0x3ff
7f00d6b0:	000210c0 	sll	v0,v0,0x3
7f00d6b4:	304a000f 	andi	t2,v0,0xf
7f00d6b8:	24060100 	li	a2,256
7f00d6bc:	0bc0349d 	j	7f00d274 <__subsf3+0x64>
7f00d6c0:	240300ff 	li	v1,255
7f00d6c4:	54c0ffea 	bnezl	a2,7f00d670 <__subsf3+0x460>
7f00d6c8:	240200ff 	li	v0,255
7f00d6cc:	00e91023 	subu	v0,a3,t1
7f00d6d0:	0bc034fc 	j	7f00d3f0 <__subsf3+0x1e0>
7f00d6d4:	00a04021 	move	t0,a1
7f00d6d8:	240200ff 	li	v0,255
7f00d6dc:	1062001a 	beq	v1,v0,7f00d748 <__subsf3+0x538>
7f00d6e0:	30ea000f 	andi	t2,a3,0xf
7f00d6e4:	3c020400 	lui	v0,0x400
7f00d6e8:	01224825 	or	t1,t1,v0
7f00d6ec:	28a4001c 	slti	a0,a1,28
7f00d6f0:	10800006 	beqz	a0,7f00d70c <__subsf3+0x4fc>
7f00d6f4:	24020001 	li	v0,1
7f00d6f8:	00051023 	negu	v0,a1
7f00d6fc:	00491004 	sllv	v0,t1,v0
7f00d700:	00a92806 	srlv	a1,t1,a1
7f00d704:	0002102b 	sltu	v0,zero,v0
7f00d708:	00451025 	or	v0,v0,a1
7f00d70c:	0bc034e9 	j	7f00d3a4 <__subsf3+0x194>
7f00d710:	00471021 	addu	v0,v0,a3
7f00d714:	10e00010 	beqz	a3,7f00d758 <__subsf3+0x548>
7f00d718:	312a000f 	andi	t2,t1,0xf
7f00d71c:	01271023 	subu	v0,t1,a3
7f00d720:	7c430680 	ext	v1,v0,0x1a,0x1
7f00d724:	1060002c 	beqz	v1,7f00d7d8 <__subsf3+0x5c8>
7f00d728:	24060001 	li	a2,1
7f00d72c:	00e91023 	subu	v0,a3,t1
7f00d730:	304a000f 	andi	t2,v0,0xf
7f00d734:	00a04021 	move	t0,a1
7f00d738:	0bc0349d 	j	7f00d274 <__subsf3+0x64>
7f00d73c:	00001821 	move	v1,zero
7f00d740:	1520ffd3 	bnez	t1,7f00d690 <__subsf3+0x480>
7f00d744:	30ea000f 	andi	t2,a3,0xf
7f00d748:	00e01021 	move	v0,a3
7f00d74c:	24060100 	li	a2,256
7f00d750:	0bc0349d 	j	7f00d274 <__subsf3+0x64>
7f00d754:	240300ff 	li	v1,255
7f00d758:	01201021 	move	v0,t1
7f00d75c:	24060001 	li	a2,1
7f00d760:	0bc0349d 	j	7f00d274 <__subsf3+0x64>
7f00d764:	00001821 	move	v1,zero
7f00d768:	10a0ff0e 	beqz	a1,7f00d3a4 <__subsf3+0x194>
7f00d76c:	00e91021 	addu	v0,a3,t1
7f00d770:	240200ff 	li	v0,255
7f00d774:	1462ffde 	bne	v1,v0,7f00d6f0 <__subsf3+0x4e0>
7f00d778:	28a4001c 	slti	a0,a1,28
7f00d77c:	0bc035d2 	j	7f00d748 <__subsf3+0x538>
7f00d780:	30ea000f 	andi	t2,a3,0xf
7f00d784:	10e0fff4 	beqz	a3,7f00d758 <__subsf3+0x548>
7f00d788:	312a000f 	andi	t2,t1,0xf
7f00d78c:	00e91021 	addu	v0,a3,t1
7f00d790:	7c430680 	ext	v1,v0,0x1a,0x1
7f00d794:	50600014 	beqzl	v1,7f00d7e8 <__subsf3+0x5d8>
7f00d798:	304a000f 	andi	t2,v0,0xf
7f00d79c:	3c03fbff 	lui	v1,0xfbff
7f00d7a0:	3463ffff 	ori	v1,v1,0xffff
7f00d7a4:	00431024 	and	v0,v0,v1
7f00d7a8:	304a000f 	andi	t2,v0,0xf
7f00d7ac:	24060002 	li	a2,2
7f00d7b0:	0bc0349d 	j	7f00d274 <__subsf3+0x64>
7f00d7b4:	24030001 	li	v1,1
7f00d7b8:	240a0008 	li	t2,8
7f00d7bc:	3442fff8 	ori	v0,v0,0xfff8
7f00d7c0:	00004021 	move	t0,zero
7f00d7c4:	24060100 	li	a2,256
7f00d7c8:	0bc0349d 	j	7f00d274 <__subsf3+0x64>
7f00d7cc:	240300ff 	li	v1,255
7f00d7d0:	0bc034b2 	j	7f00d2c8 <__subsf3+0xb8>
7f00d7d4:	00002021 	move	a0,zero
7f00d7d8:	5040ff66 	beqzl	v0,7f00d574 <__subsf3+0x364>
7f00d7dc:	00004021 	move	t0,zero
7f00d7e0:	0bc034d9 	j	7f00d364 <__subsf3+0x154>
7f00d7e4:	304a000f 	andi	t2,v0,0xf
7f00d7e8:	0bc0349d 	j	7f00d274 <__subsf3+0x64>
7f00d7ec:	24060001 	li	a2,1

7f00d7f0 <__unordsf2>:
7f00d7f0:	7c863dc0 	ext	a2,a0,0x17,0x8
7f00d7f4:	240300ff 	li	v1,255
7f00d7f8:	7ca7b000 	ext	a3,a1,0x0,0x17
7f00d7fc:	7c84b000 	ext	a0,a0,0x0,0x17
7f00d800:	10c30006 	beq	a2,v1,7f00d81c <__unordsf2+0x2c>
7f00d804:	7ca53dc0 	ext	a1,a1,0x17,0x8
7f00d808:	0007382b 	sltu	a3,zero,a3
7f00d80c:	38a500ff 	xori	a1,a1,0xff
7f00d810:	00001021 	move	v0,zero
7f00d814:	03e00008 	jr	ra
7f00d818:	00e5100a 	movz	v0,a3,a1
7f00d81c:	1080fffa 	beqz	a0,7f00d808 <__unordsf2+0x18>
7f00d820:	24020001 	li	v0,1
7f00d824:	03e00008 	jr	ra
7f00d828:	00000000 	nop

7f00d82c <__fixsfsi>:
7f00d82c:	7c833dc0 	ext	v1,a0,0x17,0x8
7f00d830:	2865007f 	slti	a1,v1,127
7f00d834:	7c86b000 	ext	a2,a0,0x0,0x17
7f00d838:	00001021 	move	v0,zero
7f00d83c:	14a0000b 	bnez	a1,7f00d86c <__fixsfsi+0x40>
7f00d840:	000427c2 	srl	a0,a0,0x1f
7f00d844:	2862009e 	slti	v0,v1,158
7f00d848:	1040000a 	beqz	v0,7f00d874 <__fixsfsi+0x48>
7f00d84c:	28650096 	slti	a1,v1,150
7f00d850:	3c020080 	lui	v0,0x80
7f00d854:	14a0000b 	bnez	a1,7f00d884 <__fixsfsi+0x58>
7f00d858:	00c23025 	or	a2,a2,v0
7f00d85c:	2463ff6a 	addiu	v1,v1,-150
7f00d860:	00663004 	sllv	a2,a2,v1
7f00d864:	00061023 	negu	v0,a2
7f00d868:	00c4100a 	movz	v0,a2,a0
7f00d86c:	03e00008 	jr	ra
7f00d870:	00000000 	nop
7f00d874:	3c027fff 	lui	v0,0x7fff
7f00d878:	3442ffff 	ori	v0,v0,0xffff
7f00d87c:	03e00008 	jr	ra
7f00d880:	00821021 	addu	v0,a0,v0
7f00d884:	24020096 	li	v0,150
7f00d888:	00431823 	subu	v1,v0,v1
7f00d88c:	00663006 	srlv	a2,a2,v1
7f00d890:	00061023 	negu	v0,a2
7f00d894:	03e00008 	jr	ra
7f00d898:	00c4100a 	movz	v0,a2,a0

7f00d89c <__floatsisf>:
7f00d89c:	1080003d 	beqz	a0,7f00d994 <__floatsisf+0xf8>
7f00d8a0:	000437c2 	srl	a2,a0,0x1f
7f00d8a4:	00041023 	negu	v0,a0
7f00d8a8:	0046200b 	movn	a0,v0,a2
7f00d8ac:	2403009e 	li	v1,158
7f00d8b0:	70821020 	clz	v0,a0
7f00d8b4:	00621023 	subu	v0,v1,v0
7f00d8b8:	28430097 	slti	v1,v0,151
7f00d8bc:	1060000c 	beqz	v1,7f00d8f0 <__floatsisf+0x54>
7f00d8c0:	2843009a 	slti	v1,v0,154
7f00d8c4:	24030096 	li	v1,150
7f00d8c8:	00621823 	subu	v1,v1,v0
7f00d8cc:	00642004 	sllv	a0,a0,v1
7f00d8d0:	7c84b000 	ext	a0,a0,0x0,0x17
7f00d8d4:	304500ff 	andi	a1,v0,0xff
7f00d8d8:	00c01821 	move	v1,a2
7f00d8dc:	00001021 	move	v0,zero
7f00d8e0:	7c82b004 	ins	v0,a0,0x0,0x17
7f00d8e4:	7ca2f5c4 	ins	v0,a1,0x17,0x8
7f00d8e8:	03e00008 	jr	ra
7f00d8ec:	7c62ffc4 	ins	v0,v1,0x1f,0x1
7f00d8f0:	14600009 	bnez	v1,7f00d918 <__floatsisf+0x7c>
7f00d8f4:	24030099 	li	v1,153
7f00d8f8:	240300b9 	li	v1,185
7f00d8fc:	00621823 	subu	v1,v1,v0
7f00d900:	00641804 	sllv	v1,a0,v1
7f00d904:	2445ff67 	addiu	a1,v0,-153
7f00d908:	00a42006 	srlv	a0,a0,a1
7f00d90c:	0003182b 	sltu	v1,zero,v1
7f00d910:	00642025 	or	a0,v1,a0
7f00d914:	24030099 	li	v1,153
7f00d918:	00621823 	subu	v1,v1,v0
7f00d91c:	00642804 	sllv	a1,a0,v1
7f00d920:	0003182a 	slt	v1,zero,v1
7f00d924:	00a3200b 	movn	a0,a1,v1
7f00d928:	3c05fbff 	lui	a1,0xfbff
7f00d92c:	34a5ffff 	ori	a1,a1,0xffff
7f00d930:	00851824 	and	v1,a0,a1
7f00d934:	3084000f 	andi	a0,a0,0xf
7f00d938:	38840004 	xori	a0,a0,0x4
7f00d93c:	24670004 	addiu	a3,v1,4
7f00d940:	00e4180b 	movn	v1,a3,a0
7f00d944:	7c640680 	ext	a0,v1,0x1a,0x1
7f00d948:	10800006 	beqz	a0,7f00d964 <__floatsisf+0xc8>
7f00d94c:	24440001 	addiu	a0,v0,1
7f00d950:	24420001 	addiu	v0,v0,1
7f00d954:	240400ff 	li	a0,255
7f00d958:	1044001d 	beq	v0,a0,7f00d9d0 <__floatsisf+0x134>
7f00d95c:	00651824 	and	v1,v1,a1
7f00d960:	24440001 	addiu	a0,v0,1
7f00d964:	308400ff 	andi	a0,a0,0xff
7f00d968:	28840002 	slti	a0,a0,2
7f00d96c:	14800011 	bnez	a0,7f00d9b4 <__floatsisf+0x118>
7f00d970:	000318c2 	srl	v1,v1,0x3
7f00d974:	7c64b000 	ext	a0,v1,0x0,0x17
7f00d978:	304500ff 	andi	a1,v0,0xff
7f00d97c:	00001021 	move	v0,zero
7f00d980:	7c82b004 	ins	v0,a0,0x0,0x17
7f00d984:	00c01821 	move	v1,a2
7f00d988:	7ca2f5c4 	ins	v0,a1,0x17,0x8
7f00d98c:	03e00008 	jr	ra
7f00d990:	7c62ffc4 	ins	v0,v1,0x1f,0x1
7f00d994:	00002021 	move	a0,zero
7f00d998:	00001021 	move	v0,zero
7f00d99c:	00002821 	move	a1,zero
7f00d9a0:	7c82b004 	ins	v0,a0,0x0,0x17
7f00d9a4:	00001821 	move	v1,zero
7f00d9a8:	7ca2f5c4 	ins	v0,a1,0x17,0x8
7f00d9ac:	03e00008 	jr	ra
7f00d9b0:	7c62ffc4 	ins	v0,v1,0x1f,0x1
7f00d9b4:	1060000a 	beqz	v1,7f00d9e0 <__floatsisf+0x144>
7f00d9b8:	304500ff 	andi	a1,v0,0xff
7f00d9bc:	3c040040 	lui	a0,0x40
7f00d9c0:	00642025 	or	a0,v1,a0
7f00d9c4:	7c84b000 	ext	a0,a0,0x0,0x17
7f00d9c8:	0bc03637 	j	7f00d8dc <__floatsisf+0x40>
7f00d9cc:	00c01821 	move	v1,a2
7f00d9d0:	00c01821 	move	v1,a2
7f00d9d4:	240500ff 	li	a1,255
7f00d9d8:	0bc03637 	j	7f00d8dc <__floatsisf+0x40>
7f00d9dc:	00002021 	move	a0,zero
7f00d9e0:	00c01821 	move	v1,a2
7f00d9e4:	0bc03637 	j	7f00d8dc <__floatsisf+0x40>
7f00d9e8:	00002021 	move	a0,zero
