
btlgammon.elf:     file format elf32-tradlittlemips


Disassembly of section .text:

7f008000 <_start>:
7f008000:	27bdffe8 	addiu	sp,sp,-24
7f008004:	afbf0014 	sw	ra,20(sp)
7f008008:	3c1c7f01 	lui	gp,0x7f01
7f00800c:	279c70f0 	addiu	gp,gp,28912
7f008010:	1880000e 	blez	a0,7f00804c <_start+0x4c>
7f008014:	af868048 	sw	a2,-32696(gp)
7f008018:	8ca20000 	lw	v0,0(a1)
7f00801c:	1040000b 	beqz	v0,7f00804c <_start+0x4c>
7f008020:	00000000 	nop
7f008024:	af828008 	sw	v0,-32760(gp)
7f008028:	80430000 	lb	v1,0(v0)
7f00802c:	10600007 	beqz	v1,7f00804c <_start+0x4c>
7f008030:	24420001 	addiu	v0,v0,1
7f008034:	2407002f 	li	a3,47
7f008038:	50670001 	beql	v1,a3,7f008040 <_start+0x40>
7f00803c:	af828008 	sw	v0,-32760(gp)
7f008040:	80430000 	lb	v1,0(v0)
7f008044:	1460fffc 	bnez	v1,7f008038 <_start+0x38>
7f008048:	24420001 	addiu	v0,v0,1
7f00804c:	0fc02722 	jal	7f009c88 <main>
7f008050:	00000000 	nop
7f008054:	77c0299f 	jalx	7f00a67c <exit>
7f008058:	00402021 	move	a0,v0

7f00805c <piececount>:
7f00805c:	00c5182a 	slt	v1,a2,a1
7f008060:	1460000a 	bnez	v1,7f00808c <piececount+0x30>
7f008064:	00001021 	move	v0,zero
7f008068:	00051080 	sll	v0,a1,0x2
7f00806c:	00822021 	addu	a0,a0,v0
7f008070:	00001021 	move	v0,zero
7f008074:	8c830000 	lw	v1,0(a0)
7f008078:	00431021 	addu	v0,v0,v1
7f00807c:	24a50001 	addiu	a1,a1,1
7f008080:	00c5182a 	slt	v1,a2,a1
7f008084:	1060fffb 	beqz	v1,7f008074 <piececount+0x18>
7f008088:	24840004 	addiu	a0,a0,4
7f00808c:	03e00008 	jr	ra
7f008090:	00000000 	nop

7f008094 <play>:
7f008094:	27bdffc0 	addiu	sp,sp,-64
7f008098:	afbf003c 	sw	ra,60(sp)
7f00809c:	afbe0038 	sw	s8,56(sp)
7f0080a0:	afb70034 	sw	s7,52(sp)
7f0080a4:	afb60030 	sw	s6,48(sp)
7f0080a8:	afb5002c 	sw	s5,44(sp)
7f0080ac:	afb40028 	sw	s4,40(sp)
7f0080b0:	afb30024 	sw	s3,36(sp)
7f0080b4:	afb20020 	sw	s2,32(sp)
7f0080b8:	afb1001c 	sw	s1,28(sp)
7f0080bc:	afb00018 	sw	s0,24(sp)
7f0080c0:	00a0f021 	move	s8,a1
7f0080c4:	afa60048 	sw	a2,72(sp)
7f0080c8:	8c850000 	lw	a1,0(a0)
7f0080cc:	18a0000d 	blez	a1,7f008104 <play+0x70>
7f0080d0:	00808821 	move	s1,a0
7f0080d4:	8cc30000 	lw	v1,0(a2)
7f0080d8:	2404ffff 	li	a0,-1
7f0080dc:	1064008f 	beq	v1,a0,7f00831c <play+0x288>
7f0080e0:	00001021 	move	v0,zero
7f0080e4:	10600019 	beqz	v1,7f00814c <play+0xb8>
7f0080e8:	8fa30048 	lw	v1,72(sp)
7f0080ec:	0bc0204b 	j	7f00812c <play+0x98>
7f0080f0:	3c047f01 	lui	a0,0x7f01
7f0080f4:	1486000a 	bne	a0,a2,7f008120 <play+0x8c>
7f0080f8:	00008021 	move	s0,zero
7f0080fc:	0bc020d4 	j	7f008350 <play+0x2bc>
7f008100:	8fa40048 	lw	a0,72(sp)
7f008104:	8fa20048 	lw	v0,72(sp)
7f008108:	8c500000 	lw	s0,0(v0)
7f00810c:	2402ffff 	li	v0,-1
7f008110:	1602008f 	bne	s0,v0,7f008350 <play+0x2bc>
7f008114:	8fa40048 	lw	a0,72(sp)
7f008118:	0bc020c7 	j	7f00831c <play+0x288>
7f00811c:	00001021 	move	v0,zero
7f008120:	1080000c 	beqz	a0,7f008154 <play+0xc0>
7f008124:	24630004 	addiu	v1,v1,4
7f008128:	3c047f01 	lui	a0,0x7f01
7f00812c:	2484e798 	addiu	a0,a0,-6248
7f008130:	24050001 	li	a1,1
7f008134:	24060022 	li	a2,34
7f008138:	3c077f01 	lui	a3,0x7f01
7f00813c:	77c02ab9 	jalx	7f00aae4 <fwrite>
7f008140:	24e7ed78 	addiu	a3,a3,-4744
7f008144:	0bc020c7 	j	7f00831c <play+0x288>
7f008148:	2402ffff 	li	v0,-1
7f00814c:	00001021 	move	v0,zero
7f008150:	2406ffff 	li	a2,-1
7f008154:	24420001 	addiu	v0,v0,1
7f008158:	0045202a 	slt	a0,v0,a1
7f00815c:	5480ffe5 	bnezl	a0,7f0080f4 <play+0x60>
7f008160:	8c640004 	lw	a0,4(v1)
7f008164:	0bc020d3 	j	7f00834c <play+0x2b8>
7f008168:	00008021 	move	s0,zero
7f00816c:	52600002 	beqzl	s3,7f008178 <play+0xe4>
7f008170:	8f928060 	lw	s2,-32672(gp)
7f008174:	8f928054 	lw	s2,-32684(gp)
7f008178:	0010a880 	sll	s5,s0,0x2
7f00817c:	0235a821 	addu	s5,s1,s5
7f008180:	8eb40000 	lw	s4,0(s5)
7f008184:	12800044 	beqz	s4,7f008298 <play+0x204>
7f008188:	02f01023 	subu	v0,s7,s0
7f00818c:	00521023 	subu	v0,v0,s2
7f008190:	18400008 	blez	v0,7f0081b4 <play+0x120>
7f008194:	00021080 	sll	v0,v0,0x2
7f008198:	03c21021 	addu	v0,s8,v0
7f00819c:	8c420000 	lw	v0,0(v0)
7f0081a0:	28420002 	slti	v0,v0,2
7f0081a4:	54400012 	bnezl	v0,7f0081f0 <play+0x15c>
7f0081a8:	2694ffff 	addiu	s4,s4,-1
7f0081ac:	0bc020a7 	j	7f00829c <play+0x208>
7f0081b0:	3c047f01 	lui	a0,0x7f01
7f0081b4:	02202021 	move	a0,s1
7f0081b8:	00002821 	move	a1,zero
7f0081bc:	0fc02017 	jal	7f00805c <piececount>
7f0081c0:	24060012 	li	a2,18
7f0081c4:	14400034 	bnez	v0,7f008298 <play+0x204>
7f0081c8:	02501021 	addu	v0,s2,s0
7f0081cc:	10570007 	beq	v0,s7,7f0081ec <play+0x158>
7f0081d0:	02202021 	move	a0,s1
7f0081d4:	24050013 	li	a1,19
7f0081d8:	24030018 	li	v1,24
7f0081dc:	0fc02017 	jal	7f00805c <piececount>
7f0081e0:	00723023 	subu	a2,v1,s2
7f0081e4:	1440002d 	bnez	v0,7f00829c <play+0x208>
7f0081e8:	3c047f01 	lui	a0,0x7f01
7f0081ec:	2694ffff 	addiu	s4,s4,-1
7f0081f0:	aeb40000 	sw	s4,0(s5)
7f0081f4:	02508021 	addu	s0,s2,s0
7f0081f8:	00108080 	sll	s0,s0,0x2
7f0081fc:	02308021 	addu	s0,s1,s0
7f008200:	8e020000 	lw	v0,0(s0)
7f008204:	24420001 	addiu	v0,v0,1
7f008208:	ae020000 	sw	v0,0(s0)
7f00820c:	26730001 	addiu	s3,s3,1
7f008210:	8ed00004 	lw	s0,4(s6)
7f008214:	2404ffff 	li	a0,-1
7f008218:	1604ffd4 	bne	s0,a0,7f00816c <play+0xd8>
7f00821c:	26d60004 	addiu	s6,s6,4
7f008220:	8fa20048 	lw	v0,72(sp)
7f008224:	8c430000 	lw	v1,0(v0)
7f008228:	1064003c 	beq	v1,a0,7f00831c <play+0x288>
7f00822c:	00001021 	move	v0,zero
7f008230:	24060019 	li	a2,25
7f008234:	24070001 	li	a3,1
7f008238:	2405ffff 	li	a1,-1
7f00823c:	50400002 	beqzl	v0,7f008248 <play+0x1b4>
7f008240:	8f848060 	lw	a0,-32672(gp)
7f008244:	8f848054 	lw	a0,-32684(gp)
7f008248:	00c31823 	subu	v1,a2,v1
7f00824c:	00641823 	subu	v1,v1,a0
7f008250:	18600009 	blez	v1,7f008278 <play+0x1e4>
7f008254:	00031880 	sll	v1,v1,0x2
7f008258:	03c31821 	addu	v1,s8,v1
7f00825c:	8c640000 	lw	a0,0(v1)
7f008260:	54870006 	bnel	a0,a3,7f00827c <play+0x1e8>
7f008264:	24420001 	addiu	v0,v0,1
7f008268:	ac600000 	sw	zero,0(v1)
7f00826c:	8fc30000 	lw	v1,0(s8)
7f008270:	24630001 	addiu	v1,v1,1
7f008274:	afc30000 	sw	v1,0(s8)
7f008278:	24420001 	addiu	v0,v0,1
7f00827c:	8fa40010 	lw	a0,16(sp)
7f008280:	8c830004 	lw	v1,4(a0)
7f008284:	24840004 	addiu	a0,a0,4
7f008288:	1465ffec 	bne	v1,a1,7f00823c <play+0x1a8>
7f00828c:	afa40010 	sw	a0,16(sp)
7f008290:	0bc020c7 	j	7f00831c <play+0x288>
7f008294:	00001021 	move	v0,zero
7f008298:	3c047f01 	lui	a0,0x7f01
7f00829c:	2484ed78 	addiu	a0,a0,-4744
7f0082a0:	3c057f01 	lui	a1,0x7f01
7f0082a4:	24a5e7bc 	addiu	a1,a1,-6212
7f0082a8:	77c02a86 	jalx	7f00aa18 <fprintf>
7f0082ac:	02003021 	move	a2,s0
7f0082b0:	1260001a 	beqz	s3,7f00831c <play+0x288>
7f0082b4:	2402ffff 	li	v0,-1
7f0082b8:	2662ffff 	addiu	v0,s3,-1
7f0082bc:	00139880 	sll	s3,s3,0x2
7f0082c0:	8fa30048 	lw	v1,72(sp)
7f0082c4:	00739821 	addu	s3,v1,s3
7f0082c8:	50400002 	beqzl	v0,7f0082d4 <play+0x240>
7f0082cc:	8f868060 	lw	a2,-32672(gp)
7f0082d0:	8f868054 	lw	a2,-32684(gp)
7f0082d4:	8e64fffc 	lw	a0,-4(s3)
7f0082d8:	00042080 	sll	a0,a0,0x2
7f0082dc:	02242021 	addu	a0,s1,a0
7f0082e0:	8c850000 	lw	a1,0(a0)
7f0082e4:	24a50001 	addiu	a1,a1,1
7f0082e8:	ac850000 	sw	a1,0(a0)
7f0082ec:	8e63fffc 	lw	v1,-4(s3)
7f0082f0:	00c31821 	addu	v1,a2,v1
7f0082f4:	00031880 	sll	v1,v1,0x2
7f0082f8:	02231821 	addu	v1,s1,v1
7f0082fc:	8c640000 	lw	a0,0(v1)
7f008300:	2484ffff 	addiu	a0,a0,-1
7f008304:	ac640000 	sw	a0,0(v1)
7f008308:	10400003 	beqz	v0,7f008318 <play+0x284>
7f00830c:	2673fffc 	addiu	s3,s3,-4
7f008310:	0bc020b2 	j	7f0082c8 <play+0x234>
7f008314:	2442ffff 	addiu	v0,v0,-1
7f008318:	2402ffff 	li	v0,-1
7f00831c:	8fbf003c 	lw	ra,60(sp)
7f008320:	8fbe0038 	lw	s8,56(sp)
7f008324:	8fb70034 	lw	s7,52(sp)
7f008328:	8fb60030 	lw	s6,48(sp)
7f00832c:	8fb5002c 	lw	s5,44(sp)
7f008330:	8fb40028 	lw	s4,40(sp)
7f008334:	8fb30024 	lw	s3,36(sp)
7f008338:	8fb20020 	lw	s2,32(sp)
7f00833c:	8fb1001c 	lw	s1,28(sp)
7f008340:	8fb00018 	lw	s0,24(sp)
7f008344:	03e00008 	jr	ra
7f008348:	27bd0040 	addiu	sp,sp,64
7f00834c:	8fa40048 	lw	a0,72(sp)
7f008350:	afa40010 	sw	a0,16(sp)
7f008354:	0080b021 	move	s6,a0
7f008358:	00009821 	move	s3,zero
7f00835c:	0bc0205b 	j	7f00816c <play+0xd8>
7f008360:	24170019 	li	s7,25

7f008364 <moverecord>:
7f008364:	8f82806c 	lw	v0,-32660(gp)
7f008368:	284303e8 	slti	v1,v0,1000
7f00836c:	5060003c 	beqzl	v1,7f008460 <moverecord+0xfc>
7f008370:	8f828064 	lw	v0,-32668(gp)
7f008374:	00022940 	sll	a1,v0,0x5
7f008378:	3c037f01 	lui	v1,0x7f01
7f00837c:	2463f180 	addiu	v1,v1,-3712
7f008380:	00a31821 	addu	v1,a1,v1
7f008384:	2405ffff 	li	a1,-1
7f008388:	ac650000 	sw	a1,0(v1)
7f00838c:	ac650004 	sw	a1,4(v1)
7f008390:	ac650008 	sw	a1,8(v1)
7f008394:	ac65000c 	sw	a1,12(v1)
7f008398:	8f838064 	lw	v1,-32668(gp)
7f00839c:	24050002 	li	a1,2
7f0083a0:	1065001c 	beq	v1,a1,7f008414 <moverecord+0xb0>
7f0083a4:	28650003 	slti	a1,v1,3
7f0083a8:	10a00006 	beqz	a1,7f0083c4 <moverecord+0x60>
7f0083ac:	24050003 	li	a1,3
7f0083b0:	24050001 	li	a1,1
7f0083b4:	5465002a 	bnel	v1,a1,7f008460 <moverecord+0xfc>
7f0083b8:	8f828064 	lw	v0,-32668(gp)
7f0083bc:	0bc0210e 	j	7f008438 <moverecord+0xd4>
7f0083c0:	00022940 	sll	a1,v0,0x5
7f0083c4:	1065000b 	beq	v1,a1,7f0083f4 <moverecord+0x90>
7f0083c8:	24050004 	li	a1,4
7f0083cc:	54650024 	bnel	v1,a1,7f008460 <moverecord+0xfc>
7f0083d0:	8f828064 	lw	v0,-32668(gp)
7f0083d4:	00022940 	sll	a1,v0,0x5
7f0083d8:	3c037f01 	lui	v1,0x7f01
7f0083dc:	2463f180 	addiu	v1,v1,-3712
7f0083e0:	00a31821 	addu	v1,a1,v1
7f0083e4:	8f858068 	lw	a1,-32664(gp)
7f0083e8:	ac65000c 	sw	a1,12(v1)
7f0083ec:	8f858060 	lw	a1,-32672(gp)
7f0083f0:	ac65001c 	sw	a1,28(v1)
7f0083f4:	00022940 	sll	a1,v0,0x5
7f0083f8:	3c037f01 	lui	v1,0x7f01
7f0083fc:	2463f180 	addiu	v1,v1,-3712
7f008400:	00a31821 	addu	v1,a1,v1
7f008404:	8f858050 	lw	a1,-32688(gp)
7f008408:	ac650008 	sw	a1,8(v1)
7f00840c:	8f858060 	lw	a1,-32672(gp)
7f008410:	ac650018 	sw	a1,24(v1)
7f008414:	00022940 	sll	a1,v0,0x5
7f008418:	3c037f01 	lui	v1,0x7f01
7f00841c:	2463f180 	addiu	v1,v1,-3712
7f008420:	00a31821 	addu	v1,a1,v1
7f008424:	8f85804c 	lw	a1,-32692(gp)
7f008428:	ac650004 	sw	a1,4(v1)
7f00842c:	8f858054 	lw	a1,-32684(gp)
7f008430:	ac650014 	sw	a1,20(v1)
7f008434:	00022940 	sll	a1,v0,0x5
7f008438:	3c037f01 	lui	v1,0x7f01
7f00843c:	2463f180 	addiu	v1,v1,-3712
7f008440:	00a31821 	addu	v1,a1,v1
7f008444:	8f858058 	lw	a1,-32680(gp)
7f008448:	ac650000 	sw	a1,0(v1)
7f00844c:	8f858060 	lw	a1,-32672(gp)
7f008450:	ac650010 	sw	a1,16(v1)
7f008454:	24420001 	addiu	v0,v0,1
7f008458:	af82806c 	sw	v0,-32660(gp)
7f00845c:	8f828064 	lw	v0,-32668(gp)
7f008460:	24030002 	li	v1,2
7f008464:	10430016 	beq	v0,v1,7f0084c0 <moverecord+0x15c>
7f008468:	24030003 	li	v1,3
7f00846c:	10430005 	beq	v0,v1,7f008484 <moverecord+0x120>
7f008470:	24030001 	li	v1,1
7f008474:	1443002d 	bne	v0,v1,7f00852c <moverecord+0x1c8>
7f008478:	8f828058 	lw	v0,-32680(gp)
7f00847c:	0bc0213f 	j	7f0084fc <moverecord+0x198>
7f008480:	00021080 	sll	v0,v0,0x2
7f008484:	8f828050 	lw	v0,-32688(gp)
7f008488:	00021080 	sll	v0,v0,0x2
7f00848c:	00821021 	addu	v0,a0,v0
7f008490:	8c430000 	lw	v1,0(v0)
7f008494:	24630001 	addiu	v1,v1,1
7f008498:	ac430000 	sw	v1,0(v0)
7f00849c:	8f828050 	lw	v0,-32688(gp)
7f0084a0:	8f838060 	lw	v1,-32672(gp)
7f0084a4:	00621021 	addu	v0,v1,v0
7f0084a8:	00021080 	sll	v0,v0,0x2
7f0084ac:	00822021 	addu	a0,a0,v0
7f0084b0:	8c820000 	lw	v0,0(a0)
7f0084b4:	2442ffff 	addiu	v0,v0,-1
7f0084b8:	03e00008 	jr	ra
7f0084bc:	ac820000 	sw	v0,0(a0)
7f0084c0:	8f82804c 	lw	v0,-32692(gp)
7f0084c4:	00021080 	sll	v0,v0,0x2
7f0084c8:	00821021 	addu	v0,a0,v0
7f0084cc:	8c430000 	lw	v1,0(v0)
7f0084d0:	24630001 	addiu	v1,v1,1
7f0084d4:	ac430000 	sw	v1,0(v0)
7f0084d8:	8f82804c 	lw	v0,-32692(gp)
7f0084dc:	8f838054 	lw	v1,-32684(gp)
7f0084e0:	00621021 	addu	v0,v1,v0
7f0084e4:	00021080 	sll	v0,v0,0x2
7f0084e8:	00822021 	addu	a0,a0,v0
7f0084ec:	8c820000 	lw	v0,0(a0)
7f0084f0:	2442ffff 	addiu	v0,v0,-1
7f0084f4:	03e00008 	jr	ra
7f0084f8:	ac820000 	sw	v0,0(a0)
7f0084fc:	00821021 	addu	v0,a0,v0
7f008500:	8c430000 	lw	v1,0(v0)
7f008504:	24630001 	addiu	v1,v1,1
7f008508:	ac430000 	sw	v1,0(v0)
7f00850c:	8f828058 	lw	v0,-32680(gp)
7f008510:	8f838060 	lw	v1,-32672(gp)
7f008514:	00621021 	addu	v0,v1,v0
7f008518:	00021080 	sll	v0,v0,0x2
7f00851c:	00822021 	addu	a0,a0,v0
7f008520:	8c820000 	lw	v0,0(a0)
7f008524:	2442ffff 	addiu	v0,v0,-1
7f008528:	ac820000 	sw	v0,0(a0)
7f00852c:	03e00008 	jr	ra
7f008530:	00000000 	nop

7f008534 <movegen>:
7f008534:	27bdffc8 	addiu	sp,sp,-56
7f008538:	afbf0034 	sw	ra,52(sp)
7f00853c:	afb70030 	sw	s7,48(sp)
7f008540:	afb6002c 	sw	s6,44(sp)
7f008544:	afb50028 	sw	s5,40(sp)
7f008548:	afb40024 	sw	s4,36(sp)
7f00854c:	afb30020 	sw	s3,32(sp)
7f008550:	afb2001c 	sw	s2,28(sp)
7f008554:	afb10018 	sw	s1,24(sp)
7f008558:	afb00014 	sw	s0,20(sp)
7f00855c:	00808821 	move	s1,a0
7f008560:	00a09821 	move	s3,a1
7f008564:	af808058 	sw	zero,-32680(gp)
7f008568:	00001021 	move	v0,zero
7f00856c:	24120019 	li	s2,25
7f008570:	24170001 	li	s7,1
7f008574:	24160002 	li	s6,2
7f008578:	24150003 	li	s5,3
7f00857c:	24140004 	li	s4,4
7f008580:	af808064 	sw	zero,-32668(gp)
7f008584:	00021880 	sll	v1,v0,0x2
7f008588:	02231821 	addu	v1,s1,v1
7f00858c:	8c640000 	lw	a0,0(v1)
7f008590:	508000c9 	beqzl	a0,7f0088b8 <movegen+0x384>
7f008594:	8f828058 	lw	v0,-32680(gp)
7f008598:	02421023 	subu	v0,s2,v0
7f00859c:	8f858060 	lw	a1,-32672(gp)
7f0085a0:	00451023 	subu	v0,v0,a1
7f0085a4:	184000c3 	blez	v0,7f0088b4 <movegen+0x380>
7f0085a8:	00021080 	sll	v0,v0,0x2
7f0085ac:	02621021 	addu	v0,s3,v0
7f0085b0:	8c420000 	lw	v0,0(v0)
7f0085b4:	28420002 	slti	v0,v0,2
7f0085b8:	144000bf 	bnez	v0,7f0088b8 <movegen+0x384>
7f0085bc:	8f828058 	lw	v0,-32680(gp)
7f0085c0:	8e220000 	lw	v0,0(s1)
7f0085c4:	584000c2 	blezl	v0,7f0088d0 <movegen+0x39c>
7f0085c8:	2484ffff 	addiu	a0,a0,-1
7f0085cc:	0bc0224e 	j	7f008938 <movegen+0x404>
7f0085d0:	8fbf0034 	lw	ra,52(sp)
7f0085d4:	00021880 	sll	v1,v0,0x2
7f0085d8:	02231821 	addu	v1,s1,v1
7f0085dc:	8c640000 	lw	a0,0(v1)
7f0085e0:	50800099 	beqzl	a0,7f008848 <movegen+0x314>
7f0085e4:	8f82804c 	lw	v0,-32692(gp)
7f0085e8:	02421023 	subu	v0,s2,v0
7f0085ec:	8f858054 	lw	a1,-32684(gp)
7f0085f0:	00451023 	subu	v0,v0,a1
7f0085f4:	18400093 	blez	v0,7f008844 <movegen+0x310>
7f0085f8:	00021080 	sll	v0,v0,0x2
7f0085fc:	02621021 	addu	v0,s3,v0
7f008600:	8c420000 	lw	v0,0(v0)
7f008604:	28420002 	slti	v0,v0,2
7f008608:	1440008f 	bnez	v0,7f008848 <movegen+0x314>
7f00860c:	8f82804c 	lw	v0,-32692(gp)
7f008610:	8e220000 	lw	v0,0(s1)
7f008614:	1c400090 	bgtz	v0,7f008858 <movegen+0x324>
7f008618:	2484ffff 	addiu	a0,a0,-1
7f00861c:	ac640000 	sw	a0,0(v1)
7f008620:	8f82804c 	lw	v0,-32692(gp)
7f008624:	8f838054 	lw	v1,-32684(gp)
7f008628:	00621021 	addu	v0,v1,v0
7f00862c:	00021080 	sll	v0,v0,0x2
7f008630:	02221021 	addu	v0,s1,v0
7f008634:	8c430000 	lw	v1,0(v0)
7f008638:	24630001 	addiu	v1,v1,1
7f00863c:	ac430000 	sw	v1,0(v0)
7f008640:	af968064 	sw	s6,-32668(gp)
7f008644:	8f828054 	lw	v0,-32684(gp)
7f008648:	8f838060 	lw	v1,-32672(gp)
7f00864c:	50620008 	beql	v1,v0,7f008670 <movegen+0x13c>
7f008650:	af808050 	sw	zero,-32688(gp)
7f008654:	0fc020d9 	jal	7f008364 <moverecord>
7f008658:	02202021 	move	a0,s1
7f00865c:	8e220000 	lw	v0,0(s1)
7f008660:	5c40007e 	bgtzl	v0,7f00885c <movegen+0x328>
7f008664:	8f828064 	lw	v0,-32668(gp)
7f008668:	0bc02212 	j	7f008848 <movegen+0x314>
7f00866c:	8f82804c 	lw	v0,-32692(gp)
7f008670:	00001021 	move	v0,zero
7f008674:	00021880 	sll	v1,v0,0x2
7f008678:	02231821 	addu	v1,s1,v1
7f00867c:	8c640000 	lw	a0,0(v1)
7f008680:	50800055 	beqzl	a0,7f0087d8 <movegen+0x2a4>
7f008684:	8f828050 	lw	v0,-32688(gp)
7f008688:	02421023 	subu	v0,s2,v0
7f00868c:	8f858060 	lw	a1,-32672(gp)
7f008690:	00451023 	subu	v0,v0,a1
7f008694:	1840004f 	blez	v0,7f0087d4 <movegen+0x2a0>
7f008698:	00021080 	sll	v0,v0,0x2
7f00869c:	02621021 	addu	v0,s3,v0
7f0086a0:	8c420000 	lw	v0,0(v0)
7f0086a4:	28420002 	slti	v0,v0,2
7f0086a8:	1440004b 	bnez	v0,7f0087d8 <movegen+0x2a4>
7f0086ac:	8f828050 	lw	v0,-32688(gp)
7f0086b0:	8e220000 	lw	v0,0(s1)
7f0086b4:	58400093 	blezl	v0,7f008904 <movegen+0x3d0>
7f0086b8:	2484ffff 	addiu	a0,a0,-1
7f0086bc:	0bc021fb 	j	7f0087ec <movegen+0x2b8>
7f0086c0:	8f828064 	lw	v0,-32668(gp)
7f0086c4:	00101080 	sll	v0,s0,0x2
7f0086c8:	02221021 	addu	v0,s1,v0
7f0086cc:	8c420000 	lw	v0,0(v0)
7f0086d0:	50400025 	beqzl	v0,7f008768 <movegen+0x234>
7f0086d4:	8f908068 	lw	s0,-32664(gp)
7f0086d8:	02501823 	subu	v1,s2,s0
7f0086dc:	8f828060 	lw	v0,-32672(gp)
7f0086e0:	00621023 	subu	v0,v1,v0
7f0086e4:	0440001f 	bltz	v0,7f008764 <movegen+0x230>
7f0086e8:	00021880 	sll	v1,v0,0x2
7f0086ec:	02631821 	addu	v1,s3,v1
7f0086f0:	8c630000 	lw	v1,0(v1)
7f0086f4:	28630002 	slti	v1,v1,2
7f0086f8:	5460001b 	bnezl	v1,7f008768 <movegen+0x234>
7f0086fc:	8f908068 	lw	s0,-32664(gp)
7f008700:	8e230000 	lw	v1,0(s1)
7f008704:	5c60001d 	bgtzl	v1,7f00877c <movegen+0x248>
7f008708:	8f828064 	lw	v0,-32668(gp)
7f00870c:	5c400010 	bgtzl	v0,7f008750 <movegen+0x21c>
7f008710:	af948064 	sw	s4,-32668(gp)
7f008714:	02202021 	move	a0,s1
7f008718:	00002821 	move	a1,zero
7f00871c:	0fc02017 	jal	7f00805c <piececount>
7f008720:	24060012 	li	a2,18
7f008724:	14400014 	bnez	v0,7f008778 <movegen+0x244>
7f008728:	8f828054 	lw	v0,-32684(gp)
7f00872c:	02021021 	addu	v0,s0,v0
7f008730:	10520006 	beq	v0,s2,7f00874c <movegen+0x218>
7f008734:	02202021 	move	a0,s1
7f008738:	24050013 	li	a1,19
7f00873c:	0fc02017 	jal	7f00805c <piececount>
7f008740:	2606ffff 	addiu	a2,s0,-1
7f008744:	1440000d 	bnez	v0,7f00877c <movegen+0x248>
7f008748:	8f828064 	lw	v0,-32668(gp)
7f00874c:	af948064 	sw	s4,-32668(gp)
7f008750:	0fc020d9 	jal	7f008364 <moverecord>
7f008754:	02202021 	move	a0,s1
7f008758:	8e220000 	lw	v0,0(s1)
7f00875c:	1c400007 	bgtz	v0,7f00877c <movegen+0x248>
7f008760:	8f828064 	lw	v0,-32668(gp)
7f008764:	8f908068 	lw	s0,-32664(gp)
7f008768:	26100001 	addiu	s0,s0,1
7f00876c:	2a020019 	slti	v0,s0,25
7f008770:	1440ffd4 	bnez	v0,7f0086c4 <movegen+0x190>
7f008774:	af908068 	sw	s0,-32664(gp)
7f008778:	8f828064 	lw	v0,-32668(gp)
7f00877c:	54550005 	bnel	v0,s5,7f008794 <movegen+0x260>
7f008780:	8f828050 	lw	v0,-32688(gp)
7f008784:	0fc020d9 	jal	7f008364 <moverecord>
7f008788:	02202021 	move	a0,s1
7f00878c:	0bc021f3 	j	7f0087cc <movegen+0x298>
7f008790:	8e220000 	lw	v0,0(s1)
7f008794:	00021080 	sll	v0,v0,0x2
7f008798:	02221021 	addu	v0,s1,v0
7f00879c:	8c430000 	lw	v1,0(v0)
7f0087a0:	24630001 	addiu	v1,v1,1
7f0087a4:	ac430000 	sw	v1,0(v0)
7f0087a8:	8f828050 	lw	v0,-32688(gp)
7f0087ac:	8f838060 	lw	v1,-32672(gp)
7f0087b0:	00621021 	addu	v0,v1,v0
7f0087b4:	00021080 	sll	v0,v0,0x2
7f0087b8:	02221021 	addu	v0,s1,v0
7f0087bc:	8c430000 	lw	v1,0(v0)
7f0087c0:	2463ffff 	addiu	v1,v1,-1
7f0087c4:	ac430000 	sw	v1,0(v0)
7f0087c8:	8e220000 	lw	v0,0(s1)
7f0087cc:	1c400007 	bgtz	v0,7f0087ec <movegen+0x2b8>
7f0087d0:	8f828064 	lw	v0,-32668(gp)
7f0087d4:	8f828050 	lw	v0,-32688(gp)
7f0087d8:	24420001 	addiu	v0,v0,1
7f0087dc:	28430019 	slti	v1,v0,25
7f0087e0:	1460ffa4 	bnez	v1,7f008674 <movegen+0x140>
7f0087e4:	af828050 	sw	v0,-32688(gp)
7f0087e8:	8f828064 	lw	v0,-32668(gp)
7f0087ec:	54560005 	bnel	v0,s6,7f008804 <movegen+0x2d0>
7f0087f0:	8f82804c 	lw	v0,-32692(gp)
7f0087f4:	0fc020d9 	jal	7f008364 <moverecord>
7f0087f8:	02202021 	move	a0,s1
7f0087fc:	0bc0220f 	j	7f00883c <movegen+0x308>
7f008800:	8e220000 	lw	v0,0(s1)
7f008804:	00021080 	sll	v0,v0,0x2
7f008808:	02221021 	addu	v0,s1,v0
7f00880c:	8c430000 	lw	v1,0(v0)
7f008810:	24630001 	addiu	v1,v1,1
7f008814:	ac430000 	sw	v1,0(v0)
7f008818:	8f82804c 	lw	v0,-32692(gp)
7f00881c:	8f838060 	lw	v1,-32672(gp)
7f008820:	00621021 	addu	v0,v1,v0
7f008824:	00021080 	sll	v0,v0,0x2
7f008828:	02221021 	addu	v0,s1,v0
7f00882c:	8c430000 	lw	v1,0(v0)
7f008830:	2463ffff 	addiu	v1,v1,-1
7f008834:	ac430000 	sw	v1,0(v0)
7f008838:	8e220000 	lw	v0,0(s1)
7f00883c:	1c400007 	bgtz	v0,7f00885c <movegen+0x328>
7f008840:	8f828064 	lw	v0,-32668(gp)
7f008844:	8f82804c 	lw	v0,-32692(gp)
7f008848:	24420001 	addiu	v0,v0,1
7f00884c:	28430019 	slti	v1,v0,25
7f008850:	1460ff60 	bnez	v1,7f0085d4 <movegen+0xa0>
7f008854:	af82804c 	sw	v0,-32692(gp)
7f008858:	8f828064 	lw	v0,-32668(gp)
7f00885c:	54570005 	bnel	v0,s7,7f008874 <movegen+0x340>
7f008860:	8f828058 	lw	v0,-32680(gp)
7f008864:	0fc020d9 	jal	7f008364 <moverecord>
7f008868:	02202021 	move	a0,s1
7f00886c:	0bc0222b 	j	7f0088ac <movegen+0x378>
7f008870:	8e220000 	lw	v0,0(s1)
7f008874:	00021080 	sll	v0,v0,0x2
7f008878:	02221021 	addu	v0,s1,v0
7f00887c:	8c430000 	lw	v1,0(v0)
7f008880:	24630001 	addiu	v1,v1,1
7f008884:	ac430000 	sw	v1,0(v0)
7f008888:	8f828058 	lw	v0,-32680(gp)
7f00888c:	8f838060 	lw	v1,-32672(gp)
7f008890:	00621021 	addu	v0,v1,v0
7f008894:	00021080 	sll	v0,v0,0x2
7f008898:	02221021 	addu	v0,s1,v0
7f00889c:	8c430000 	lw	v1,0(v0)
7f0088a0:	2463ffff 	addiu	v1,v1,-1
7f0088a4:	ac430000 	sw	v1,0(v0)
7f0088a8:	8e220000 	lw	v0,0(s1)
7f0088ac:	1c400022 	bgtz	v0,7f008938 <movegen+0x404>
7f0088b0:	8fbf0034 	lw	ra,52(sp)
7f0088b4:	8f828058 	lw	v0,-32680(gp)
7f0088b8:	24420001 	addiu	v0,v0,1
7f0088bc:	28430019 	slti	v1,v0,25
7f0088c0:	1460ff2f 	bnez	v1,7f008580 <movegen+0x4c>
7f0088c4:	af828058 	sw	v0,-32680(gp)
7f0088c8:	0bc0224e 	j	7f008938 <movegen+0x404>
7f0088cc:	8fbf0034 	lw	ra,52(sp)
7f0088d0:	ac640000 	sw	a0,0(v1)
7f0088d4:	8f828060 	lw	v0,-32672(gp)
7f0088d8:	8f838058 	lw	v1,-32680(gp)
7f0088dc:	00621021 	addu	v0,v1,v0
7f0088e0:	00021080 	sll	v0,v0,0x2
7f0088e4:	02221021 	addu	v0,s1,v0
7f0088e8:	8c430000 	lw	v1,0(v0)
7f0088ec:	24630001 	addiu	v1,v1,1
7f0088f0:	ac430000 	sw	v1,0(v0)
7f0088f4:	af978064 	sw	s7,-32668(gp)
7f0088f8:	af80804c 	sw	zero,-32692(gp)
7f0088fc:	0bc02175 	j	7f0085d4 <movegen+0xa0>
7f008900:	00001021 	move	v0,zero
7f008904:	ac640000 	sw	a0,0(v1)
7f008908:	8f828050 	lw	v0,-32688(gp)
7f00890c:	8f838060 	lw	v1,-32672(gp)
7f008910:	00621021 	addu	v0,v1,v0
7f008914:	00021080 	sll	v0,v0,0x2
7f008918:	02221021 	addu	v0,s1,v0
7f00891c:	8c430000 	lw	v1,0(v0)
7f008920:	24630001 	addiu	v1,v1,1
7f008924:	ac430000 	sw	v1,0(v0)
7f008928:	af958064 	sw	s5,-32668(gp)
7f00892c:	af808068 	sw	zero,-32664(gp)
7f008930:	0bc021b1 	j	7f0086c4 <movegen+0x190>
7f008934:	00008021 	move	s0,zero
7f008938:	8fb70030 	lw	s7,48(sp)
7f00893c:	8fb6002c 	lw	s6,44(sp)
7f008940:	8fb50028 	lw	s5,40(sp)
7f008944:	8fb40024 	lw	s4,36(sp)
7f008948:	8fb30020 	lw	s3,32(sp)
7f00894c:	8fb2001c 	lw	s2,28(sp)
7f008950:	8fb10018 	lw	s1,24(sp)
7f008954:	8fb00014 	lw	s0,20(sp)
7f008958:	03e00008 	jr	ra
7f00895c:	27bd0038 	addiu	sp,sp,56

7f008960 <getprob>:
7f008960:	00e6182a 	slt	v1,a3,a2
7f008964:	14600024 	bnez	v1,7f0089f8 <getprob+0x98>
7f008968:	00001021 	move	v0,zero
7f00896c:	00061080 	sll	v0,a2,0x2
7f008970:	00822021 	addu	a0,a0,v0
7f008974:	240b0018 	li	t3,24
7f008978:	01665823 	subu	t3,t3,a2
7f00897c:	00001021 	move	v0,zero
7f008980:	240d0001 	li	t5,1
7f008984:	3c0e7f01 	lui	t6,0x7f01
7f008988:	3c0c7f01 	lui	t4,0x7f01
7f00898c:	258ced28 	addiu	t4,t4,-4824
7f008990:	8c830000 	lw	v1,0(a0)
7f008994:	546d0014 	bnel	v1,t5,7f0089e8 <getprob+0x88>
7f008998:	24c60001 	addiu	a2,a2,1
7f00899c:	05600011 	bltz	t3,7f0089e4 <getprob+0x84>
7f0089a0:	01604821 	move	t1,t3
7f0089a4:	2563ffff 	addiu	v1,t3,-1
7f0089a8:	0bc02270 	j	7f0089c0 <getprob+0x60>
7f0089ac:	25c8ecfc 	addiu	t0,t6,-4868
7f0089b0:	2463ffff 	addiu	v1,v1,-1
7f0089b4:	246a0001 	addiu	t2,v1,1
7f0089b8:	0540000a 	bltz	t2,7f0089e4 <getprob+0x84>
7f0089bc:	25080004 	addiu	t0,t0,4
7f0089c0:	00094880 	sll	t1,t1,0x2
7f0089c4:	00a94821 	addu	t1,a1,t1
7f0089c8:	8d290000 	lw	t1,0(t1)
7f0089cc:	11200003 	beqz	t1,7f0089dc <getprob+0x7c>
7f0089d0:	00000000 	nop
7f0089d4:	8d090000 	lw	t1,0(t0)
7f0089d8:	00491021 	addu	v0,v0,t1
7f0089dc:	150cfff4 	bne	t0,t4,7f0089b0 <getprob+0x50>
7f0089e0:	00604821 	move	t1,v1
7f0089e4:	24c60001 	addiu	a2,a2,1
7f0089e8:	24840004 	addiu	a0,a0,4
7f0089ec:	00e6182a 	slt	v1,a3,a2
7f0089f0:	1060ffe7 	beqz	v1,7f008990 <getprob+0x30>
7f0089f4:	256bffff 	addiu	t3,t3,-1
7f0089f8:	03e00008 	jr	ra
7f0089fc:	00000000 	nop

7f008a00 <eval>:
7f008a00:	27bdfee0 	addiu	sp,sp,-288
7f008a04:	afbf011c 	sw	ra,284(sp)
7f008a08:	afb40118 	sw	s4,280(sp)
7f008a0c:	afb30114 	sw	s3,276(sp)
7f008a10:	afb20110 	sw	s2,272(sp)
7f008a14:	afb1010c 	sw	s1,268(sp)
7f008a18:	afb00108 	sw	s0,264(sp)
7f008a1c:	00e09821 	move	s3,a3
7f008a20:	24820064 	addiu	v0,a0,100
7f008a24:	0082102b 	sltu	v0,a0,v0
7f008a28:	1040000d 	beqz	v0,7f008a60 <eval+0x60>
7f008a2c:	ace00000 	sw	zero,0(a3)
7f008a30:	24880064 	addiu	t0,a0,100
7f008a34:	27a30010 	addiu	v1,sp,16
7f008a38:	27a2008c 	addiu	v0,sp,140
7f008a3c:	8c870000 	lw	a3,0(a0)
7f008a40:	ac670000 	sw	a3,0(v1)
7f008a44:	24630004 	addiu	v1,v1,4
7f008a48:	24840004 	addiu	a0,a0,4
7f008a4c:	8ca70000 	lw	a3,0(a1)
7f008a50:	ac470000 	sw	a3,0(v0)
7f008a54:	24420004 	addiu	v0,v0,4
7f008a58:	1488fff8 	bne	a0,t0,7f008a3c <eval+0x3c>
7f008a5c:	24a50004 	addiu	a1,a1,4
7f008a60:	27a20074 	addiu	v0,sp,116
7f008a64:	27a3008c 	addiu	v1,sp,140
7f008a68:	0043102b 	sltu	v0,v0,v1
7f008a6c:	10400007 	beqz	v0,7f008a8c <eval+0x8c>
7f008a70:	00061940 	sll	v1,a2,0x5
7f008a74:	afa00074 	sw	zero,116(sp)
7f008a78:	afa00078 	sw	zero,120(sp)
7f008a7c:	afa0007c 	sw	zero,124(sp)
7f008a80:	afa00080 	sw	zero,128(sp)
7f008a84:	afa00084 	sw	zero,132(sp)
7f008a88:	afa00088 	sw	zero,136(sp)
7f008a8c:	3c027f01 	lui	v0,0x7f01
7f008a90:	2442f180 	addiu	v0,v0,-3712
7f008a94:	00621021 	addu	v0,v1,v0
7f008a98:	8c420000 	lw	v0,0(v0)
7f008a9c:	2403ffff 	li	v1,-1
7f008aa0:	1443000a 	bne	v0,v1,7f008acc <eval+0xcc>
7f008aa4:	00008021 	move	s0,zero
7f008aa8:	0bc022af 	j	7f008abc <eval+0xbc>
7f008aac:	8fa7008c 	lw	a3,140(sp)
7f008ab0:	14490013 	bne	v0,t1,7f008b00 <eval+0x100>
7f008ab4:	24c60004 	addiu	a2,a2,4
7f008ab8:	8fa7008c 	lw	a3,140(sp)
7f008abc:	10e00035 	beqz	a3,7f008b94 <eval+0x194>
7f008ac0:	00001821 	move	v1,zero
7f008ac4:	0bc022eb 	j	7f008bac <eval+0x1ac>
7f008ac8:	8fa60010 	lw	a2,16(sp)
7f008acc:	8384805c 	lb	a0,-32676(gp)
7f008ad0:	00063140 	sll	a2,a2,0x5
7f008ad4:	24c30010 	addiu	v1,a2,16
7f008ad8:	3c067f01 	lui	a2,0x7f01
7f008adc:	24c6f180 	addiu	a2,a2,-3712
7f008ae0:	00c33021 	addu	a2,a2,v1
7f008ae4:	00001821 	move	v1,zero
7f008ae8:	240b0019 	li	t3,25
7f008aec:	240a0001 	li	t2,1
7f008af0:	38840065 	xori	a0,a0,0x65
7f008af4:	2c8c0001 	sltiu	t4,a0,1
7f008af8:	24080004 	li	t0,4
7f008afc:	2409ffff 	li	t1,-1
7f008b00:	00022080 	sll	a0,v0,0x2
7f008b04:	27a50010 	addiu	a1,sp,16
7f008b08:	00a42021 	addu	a0,a1,a0
7f008b0c:	8c850000 	lw	a1,0(a0)
7f008b10:	24a5ffff 	addiu	a1,a1,-1
7f008b14:	ac850000 	sw	a1,0(a0)
7f008b18:	8cc40000 	lw	a0,0(a2)
7f008b1c:	00441021 	addu	v0,v0,a0
7f008b20:	00022080 	sll	a0,v0,0x2
7f008b24:	27ad0010 	addiu	t5,sp,16
7f008b28:	01a42021 	addu	a0,t5,a0
7f008b2c:	8c850000 	lw	a1,0(a0)
7f008b30:	24a50001 	addiu	a1,a1,1
7f008b34:	ac850000 	sw	a1,0(a0)
7f008b38:	28440019 	slti	a0,v0,25
7f008b3c:	10800010 	beqz	a0,7f008b80 <eval+0x180>
7f008b40:	00c03821 	move	a3,a2
7f008b44:	01622023 	subu	a0,t3,v0
7f008b48:	00042880 	sll	a1,a0,0x2
7f008b4c:	01a52821 	addu	a1,t5,a1
7f008b50:	8ca5007c 	lw	a1,124(a1)
7f008b54:	54aa000b 	bnel	a1,t2,7f008b84 <eval+0x184>
7f008b58:	24630001 	addiu	v1,v1,1
7f008b5c:	00042080 	sll	a0,a0,0x2
7f008b60:	01a42021 	addu	a0,t5,a0
7f008b64:	ac80007c 	sw	zero,124(a0)
7f008b68:	8fa4008c 	lw	a0,140(sp)
7f008b6c:	24840001 	addiu	a0,a0,1
7f008b70:	afa4008c 	sw	a0,140(sp)
7f008b74:	28420010 	slti	v0,v0,16
7f008b78:	020c2021 	addu	a0,s0,t4
7f008b7c:	0082800b 	movn	s0,a0,v0
7f008b80:	24630001 	addiu	v1,v1,1
7f008b84:	5468ffca 	bnel	v1,t0,7f008ab0 <eval+0xb0>
7f008b88:	8ce2fff4 	lw	v0,-12(a3)
7f008b8c:	0bc022af 	j	7f008abc <eval+0xbc>
7f008b90:	8fa7008c 	lw	a3,140(sp)
7f008b94:	27a20090 	addiu	v0,sp,144
7f008b98:	24630001 	addiu	v1,v1,1
7f008b9c:	8c440000 	lw	a0,0(v0)
7f008ba0:	1080fffd 	beqz	a0,7f008b98 <eval+0x198>
7f008ba4:	24420004 	addiu	v0,v0,4
7f008ba8:	8fa60010 	lw	a2,16(sp)
7f008bac:	14c0000f 	bnez	a2,7f008bec <eval+0x1ec>
7f008bb0:	27a20014 	addiu	v0,sp,20
7f008bb4:	00002021 	move	a0,zero
7f008bb8:	24840001 	addiu	a0,a0,1
7f008bbc:	8c450000 	lw	a1,0(v0)
7f008bc0:	10a0fffd 	beqz	a1,7f008bb8 <eval+0x1b8>
7f008bc4:	24420004 	addiu	v0,v0,4
7f008bc8:	24020019 	li	v0,25
7f008bcc:	00442023 	subu	a0,v0,a0
7f008bd0:	28820007 	slti	v0,a0,7
7f008bd4:	10400007 	beqz	v0,7f008bf4 <eval+0x1f4>
7f008bd8:	0083182a 	slt	v1,a0,v1
7f008bdc:	54600009 	bnezl	v1,7f008c04 <eval+0x204>
7f008be0:	241003e8 	li	s0,1000
7f008be4:	0bc02316 	j	7f008c58 <eval+0x258>
7f008be8:	00002021 	move	a0,zero
7f008bec:	24040019 	li	a0,25
7f008bf0:	0083182a 	slt	v1,a0,v1
7f008bf4:	50600018 	beqzl	v1,7f008c58 <eval+0x258>
7f008bf8:	00002021 	move	a0,zero
7f008bfc:	0bc02302 	j	7f008c08 <eval+0x208>
7f008c00:	8383805c 	lb	v1,-32676(gp)
7f008c04:	8383805c 	lb	v1,-32676(gp)
7f008c08:	24020065 	li	v0,101
7f008c0c:	54620012 	bnel	v1,v0,7f008c58 <eval+0x258>
7f008c10:	00002021 	move	a0,zero
7f008c14:	28820007 	slti	v0,a0,7
7f008c18:	5440000f 	bnezl	v0,7f008c58 <eval+0x258>
7f008c1c:	00002021 	move	a0,zero
7f008c20:	24020019 	li	v0,25
7f008c24:	00441023 	subu	v0,v0,a0
7f008c28:	00021080 	sll	v0,v0,0x2
7f008c2c:	27a30010 	addiu	v1,sp,16
7f008c30:	00621021 	addu	v0,v1,v0
7f008c34:	241003e8 	li	s0,1000
7f008c38:	24050006 	li	a1,6
7f008c3c:	8c430000 	lw	v1,0(v0)
7f008c40:	70834002 	mul	t0,a0,v1
7f008c44:	02088023 	subu	s0,s0,t0
7f008c48:	2484ffff 	addiu	a0,a0,-1
7f008c4c:	1485fffb 	bne	a0,a1,7f008c3c <eval+0x23c>
7f008c50:	24420004 	addiu	v0,v0,4
7f008c54:	00002021 	move	a0,zero
7f008c58:	14e00006 	bnez	a3,7f008c74 <eval+0x274>
7f008c5c:	27a20090 	addiu	v0,sp,144
7f008c60:	24040001 	li	a0,1
7f008c64:	24050019 	li	a1,25
7f008c68:	8c430000 	lw	v1,0(v0)
7f008c6c:	50600008 	beqzl	v1,7f008c90 <eval+0x290>
7f008c70:	24840001 	addiu	a0,a0,1
7f008c74:	27a20014 	addiu	v0,sp,20
7f008c78:	27a30074 	addiu	v1,sp,116
7f008c7c:	0043102b 	sltu	v0,v0,v1
7f008c80:	54400007 	bnezl	v0,7f008ca0 <eval+0x2a0>
7f008c84:	27a50074 	addiu	a1,sp,116
7f008c88:	0bc02330 	j	7f008cc0 <eval+0x2c0>
7f008c8c:	28820006 	slti	v0,a0,6
7f008c90:	1485fff5 	bne	a0,a1,7f008c68 <eval+0x268>
7f008c94:	24420004 	addiu	v0,v0,4
7f008c98:	0bc0231e 	j	7f008c78 <eval+0x278>
7f008c9c:	27a20014 	addiu	v0,sp,20
7f008ca0:	27a20014 	addiu	v0,sp,20
7f008ca4:	8c430000 	lw	v1,0(v0)
7f008ca8:	24420004 	addiu	v0,v0,4
7f008cac:	28630002 	slti	v1,v1,2
7f008cb0:	2c630001 	sltiu	v1,v1,1
7f008cb4:	1445fffb 	bne	v0,a1,7f008ca4 <eval+0x2a4>
7f008cb8:	02038021 	addu	s0,s0,v1
7f008cbc:	28820006 	slti	v0,a0,6
7f008cc0:	1440000e 	bnez	v0,7f008cfc <eval+0x2fc>
7f008cc4:	8383805c 	lb	v1,-32676(gp)
7f008cc8:	27a20074 	addiu	v0,sp,116
7f008ccc:	27a3008c 	addiu	v1,sp,140
7f008cd0:	0043102b 	sltu	v0,v0,v1
7f008cd4:	10400008 	beqz	v0,7f008cf8 <eval+0x2f8>
7f008cd8:	24020006 	li	v0,6
7f008cdc:	27a30074 	addiu	v1,sp,116
7f008ce0:	8c650000 	lw	a1,0(v1)
7f008ce4:	70453802 	mul	a3,v0,a1
7f008ce8:	00f08021 	addu	s0,a3,s0
7f008cec:	2442ffff 	addiu	v0,v0,-1
7f008cf0:	1440fffb 	bnez	v0,7f008ce0 <eval+0x2e0>
7f008cf4:	24630004 	addiu	v1,v1,4
7f008cf8:	8383805c 	lb	v1,-32676(gp)
7f008cfc:	24020062 	li	v0,98
7f008d00:	1062001a 	beq	v1,v0,7f008d6c <eval+0x36c>
7f008d04:	2484ffe7 	addiu	a0,a0,-25
7f008d08:	00042080 	sll	a0,a0,0x2
7f008d0c:	27a20010 	addiu	v0,sp,16
7f008d10:	00442023 	subu	a0,v0,a0
7f008d14:	27a2002c 	addiu	v0,sp,44
7f008d18:	0044102b 	sltu	v0,v0,a0
7f008d1c:	1040000a 	beqz	v0,7f008d48 <eval+0x348>
7f008d20:	27a2002c 	addiu	v0,sp,44
7f008d24:	24050001 	li	a1,1
7f008d28:	8c430000 	lw	v1,0(v0)
7f008d2c:	24420004 	addiu	v0,v0,4
7f008d30:	00651826 	xor	v1,v1,a1
7f008d34:	2c630001 	sltiu	v1,v1,1
7f008d38:	02038023 	subu	s0,s0,v1
7f008d3c:	0044182b 	sltu	v1,v0,a0
7f008d40:	5460fffa 	bnezl	v1,7f008d2c <eval+0x32c>
7f008d44:	8c430000 	lw	v1,0(v0)
7f008d48:	27a30010 	addiu	v1,sp,16
7f008d4c:	27a2001c 	addiu	v0,sp,28
7f008d50:	0062102b 	sltu	v0,v1,v0
7f008d54:	10400005 	beqz	v0,7f008d6c <eval+0x36c>
7f008d58:	8fa20014 	lw	v0,20(sp)
7f008d5c:	02068023 	subu	s0,s0,a2
7f008d60:	02028023 	subu	s0,s0,v0
7f008d64:	8fa20018 	lw	v0,24(sp)
7f008d68:	02028023 	subu	s0,s0,v0
7f008d6c:	24110001 	li	s1,1
7f008d70:	24120001 	li	s2,1
7f008d74:	24140005 	li	s4,5
7f008d78:	27a40010 	addiu	a0,sp,16
7f008d7c:	27a5008c 	addiu	a1,sp,140
7f008d80:	02203021 	move	a2,s1
7f008d84:	0fc02258 	jal	7f008960 <getprob>
7f008d88:	26270005 	addiu	a3,s1,5
7f008d8c:	8e630000 	lw	v1,0(s3)
7f008d90:	70522002 	mul	a0,v0,s2
7f008d94:	00831021 	addu	v0,a0,v1
7f008d98:	ae620000 	sw	v0,0(s3)
7f008d9c:	26520001 	addiu	s2,s2,1
7f008da0:	1654fff5 	bne	s2,s4,7f008d78 <eval+0x378>
7f008da4:	26310006 	addiu	s1,s1,6
7f008da8:	02001021 	move	v0,s0
7f008dac:	8fbf011c 	lw	ra,284(sp)
7f008db0:	8fb40118 	lw	s4,280(sp)
7f008db4:	8fb30114 	lw	s3,276(sp)
7f008db8:	8fb20110 	lw	s2,272(sp)
7f008dbc:	8fb1010c 	lw	s1,268(sp)
7f008dc0:	8fb00108 	lw	s0,264(sp)
7f008dc4:	03e00008 	jr	ra
7f008dc8:	27bd0120 	addiu	sp,sp,288

7f008dcc <strategy>:
7f008dcc:	27bdffc8 	addiu	sp,sp,-56
7f008dd0:	afbf0034 	sw	ra,52(sp)
7f008dd4:	afb60030 	sw	s6,48(sp)
7f008dd8:	afb5002c 	sw	s5,44(sp)
7f008ddc:	afb40028 	sw	s4,40(sp)
7f008de0:	afb30024 	sw	s3,36(sp)
7f008de4:	afb20020 	sw	s2,32(sp)
7f008de8:	afb1001c 	sw	s1,28(sp)
7f008dec:	afb00018 	sw	s0,24(sp)
7f008df0:	0080a021 	move	s4,a0
7f008df4:	00a09821 	move	s3,a1
7f008df8:	8f83806c 	lw	v1,-32660(gp)
7f008dfc:	10600059 	beqz	v1,7f008f64 <strategy+0x198>
7f008e00:	2402ffff 	li	v0,-1
7f008e04:	2404ffff 	li	a0,-1
7f008e08:	3c027f01 	lui	v0,0x7f01
7f008e0c:	ac446ea8 	sw	a0,28328(v0)
7f008e10:	18600023 	blez	v1,7f008ea0 <strategy+0xd4>
7f008e14:	00008821 	move	s1,zero
7f008e18:	24128300 	li	s2,-32000
7f008e1c:	00008021 	move	s0,zero
7f008e20:	24556ea8 	addiu	s5,v0,28328
7f008e24:	3c167f01 	lui	s6,0x7f01
7f008e28:	26d66e80 	addiu	s6,s6,28288
7f008e2c:	02802021 	move	a0,s4
7f008e30:	02602821 	move	a1,s3
7f008e34:	02003021 	move	a2,s0
7f008e38:	0fc02280 	jal	7f008a00 <eval>
7f008e3c:	27a70010 	addiu	a3,sp,16
7f008e40:	0052182a 	slt	v1,v0,s2
7f008e44:	54600012 	bnezl	v1,7f008e90 <strategy+0xc4>
7f008e48:	26100001 	addiu	s0,s0,1
7f008e4c:	0242182a 	slt	v1,s2,v0
7f008e50:	54600006 	bnezl	v1,7f008e6c <strategy+0xa0>
7f008e54:	00409021 	move	s2,v0
7f008e58:	2a22000a 	slti	v0,s1,10
7f008e5c:	5040000c 	beqzl	v0,7f008e90 <strategy+0xc4>
7f008e60:	26100001 	addiu	s0,s0,1
7f008e64:	0bc0239d 	j	7f008e74 <strategy+0xa8>
7f008e68:	00111080 	sll	v0,s1,0x2
7f008e6c:	00008821 	move	s1,zero
7f008e70:	00111080 	sll	v0,s1,0x2
7f008e74:	00551821 	addu	v1,v0,s5
7f008e78:	ac700000 	sw	s0,0(v1)
7f008e7c:	00561021 	addu	v0,v0,s6
7f008e80:	8fa30010 	lw	v1,16(sp)
7f008e84:	ac430000 	sw	v1,0(v0)
7f008e88:	26310001 	addiu	s1,s1,1
7f008e8c:	26100001 	addiu	s0,s0,1
7f008e90:	8f82806c 	lw	v0,-32660(gp)
7f008e94:	0202102a 	slt	v0,s0,v0
7f008e98:	1440ffe5 	bnez	v0,7f008e30 <strategy+0x64>
7f008e9c:	02802021 	move	a0,s4
7f008ea0:	8383805c 	lb	v1,-32676(gp)
7f008ea4:	24020065 	li	v0,101
7f008ea8:	14620023 	bne	v1,v0,7f008f38 <strategy+0x16c>
7f008eac:	2a220002 	slti	v0,s1,2
7f008eb0:	14400021 	bnez	v0,7f008f38 <strategy+0x16c>
7f008eb4:	24027d00 	li	v0,32000
7f008eb8:	1a20001e 	blez	s1,7f008f34 <strategy+0x168>
7f008ebc:	afa20010 	sw	v0,16(sp)
7f008ec0:	00114080 	sll	t0,s1,0x2
7f008ec4:	00001021 	move	v0,zero
7f008ec8:	24047d00 	li	a0,32000
7f008ecc:	00008821 	move	s1,zero
7f008ed0:	3c067f01 	lui	a2,0x7f01
7f008ed4:	24c66e80 	addiu	a2,a2,28288
7f008ed8:	3c077f01 	lui	a3,0x7f01
7f008edc:	24e76ea8 	addiu	a3,a3,28328
7f008ee0:	00c21821 	addu	v1,a2,v0
7f008ee4:	8c630000 	lw	v1,0(v1)
7f008ee8:	0083282a 	slt	a1,a0,v1
7f008eec:	54a0000d 	bnezl	a1,7f008f24 <strategy+0x158>
7f008ef0:	24420004 	addiu	v0,v0,4
7f008ef4:	0064282a 	slt	a1,v1,a0
7f008ef8:	0065200b 	movn	a0,v1,a1
7f008efc:	0005880b 	movn	s1,zero,a1
7f008f00:	00112880 	sll	a1,s1,0x2
7f008f04:	00a74821 	addu	t1,a1,a3
7f008f08:	00e25021 	addu	t2,a3,v0
7f008f0c:	8d4a0000 	lw	t2,0(t2)
7f008f10:	ad2a0000 	sw	t2,0(t1)
7f008f14:	00a62821 	addu	a1,a1,a2
7f008f18:	aca30000 	sw	v1,0(a1)
7f008f1c:	26310001 	addiu	s1,s1,1
7f008f20:	24420004 	addiu	v0,v0,4
7f008f24:	1448ffef 	bne	v0,t0,7f008ee4 <strategy+0x118>
7f008f28:	00c21821 	addu	v1,a2,v0
7f008f2c:	0bc023ce 	j	7f008f38 <strategy+0x16c>
7f008f30:	afa40010 	sw	a0,16(sp)
7f008f34:	00008821 	move	s1,zero
7f008f38:	77c02b7e 	jalx	7f00adf8 <rand>
7f008f3c:	00000000 	nop
7f008f40:	00021103 	sra	v0,v0,0x4
7f008f44:	0051001a 	div	zero,v0,s1
7f008f48:	022001f4 	teq	s1,zero,0x7
7f008f4c:	00001010 	mfhi	v0
7f008f50:	00021080 	sll	v0,v0,0x2
7f008f54:	3c037f01 	lui	v1,0x7f01
7f008f58:	24636ea8 	addiu	v1,v1,28328
7f008f5c:	00431021 	addu	v0,v0,v1
7f008f60:	8c420000 	lw	v0,0(v0)
7f008f64:	8fbf0034 	lw	ra,52(sp)
7f008f68:	8fb60030 	lw	s6,48(sp)
7f008f6c:	8fb5002c 	lw	s5,44(sp)
7f008f70:	8fb40028 	lw	s4,40(sp)
7f008f74:	8fb30024 	lw	s3,36(sp)
7f008f78:	8fb20020 	lw	s2,32(sp)
7f008f7c:	8fb1001c 	lw	s1,28(sp)
7f008f80:	8fb00018 	lw	s0,24(sp)
7f008f84:	03e00008 	jr	ra
7f008f88:	27bd0038 	addiu	sp,sp,56

7f008f8c <prtmov>:
7f008f8c:	27bdffd8 	addiu	sp,sp,-40
7f008f90:	afbf0024 	sw	ra,36(sp)
7f008f94:	afb40020 	sw	s4,32(sp)
7f008f98:	afb3001c 	sw	s3,28(sp)
7f008f9c:	afb20018 	sw	s2,24(sp)
7f008fa0:	afb10014 	sw	s1,20(sp)
7f008fa4:	2402ffff 	li	v0,-1
7f008fa8:	1082000b 	beq	a0,v0,7f008fd8 <prtmov+0x4c>
7f008fac:	afb00010 	sw	s0,16(sp)
7f008fb0:	00041940 	sll	v1,a0,0x5
7f008fb4:	3c027f01 	lui	v0,0x7f01
7f008fb8:	2442f180 	addiu	v0,v0,-3712
7f008fbc:	00621021 	addu	v0,v1,v0
7f008fc0:	8c430000 	lw	v1,0(v0)
7f008fc4:	2402ffff 	li	v0,-1
7f008fc8:	14620024 	bne	v1,v0,7f00905c <prtmov+0xd0>
7f008fcc:	00048140 	sll	s0,a0,0x5
7f008fd0:	0bc0240c 	j	7f009030 <prtmov+0xa4>
7f008fd4:	2404000a 	li	a0,10
7f008fd8:	3c047f01 	lui	a0,0x7f01
7f008fdc:	2484e7d0 	addiu	a0,a0,-6192
7f008fe0:	24050001 	li	a1,1
7f008fe4:	24060011 	li	a2,17
7f008fe8:	3c077f01 	lui	a3,0x7f01
7f008fec:	77c02ab9 	jalx	7f00aae4 <fwrite>
7f008ff0:	24e7ed78 	addiu	a3,a3,-4744
7f008ff4:	0bc0240c 	j	7f009030 <prtmov+0xa4>
7f008ff8:	2404000a 	li	a0,10
7f008ffc:	8e020000 	lw	v0,0(s0)
7f009000:	1052000a 	beq	v0,s2,7f00902c <prtmov+0xa0>
7f009004:	02602021 	move	a0,s3
7f009008:	02802821 	move	a1,s4
7f00900c:	24060019 	li	a2,25
7f009010:	00c23023 	subu	a2,a2,v0
7f009014:	77c02a86 	jalx	7f00aa18 <fprintf>
7f009018:	8e070010 	lw	a3,16(s0)
7f00901c:	26310001 	addiu	s1,s1,1
7f009020:	24020004 	li	v0,4
7f009024:	1622fff5 	bne	s1,v0,7f008ffc <prtmov+0x70>
7f009028:	26100004 	addiu	s0,s0,4
7f00902c:	2404000a 	li	a0,10
7f009030:	3c057f01 	lui	a1,0x7f01
7f009034:	77c02aa1 	jalx	7f00aa84 <fputc>
7f009038:	24a5ed78 	addiu	a1,a1,-4744
7f00903c:	8fbf0024 	lw	ra,36(sp)
7f009040:	8fb40020 	lw	s4,32(sp)
7f009044:	8fb3001c 	lw	s3,28(sp)
7f009048:	8fb20018 	lw	s2,24(sp)
7f00904c:	8fb10014 	lw	s1,20(sp)
7f009050:	8fb00010 	lw	s0,16(sp)
7f009054:	03e00008 	jr	ra
7f009058:	27bd0028 	addiu	sp,sp,40
7f00905c:	3c117f01 	lui	s1,0x7f01
7f009060:	2631f180 	addiu	s1,s1,-3712
7f009064:	02111021 	addu	v0,s0,s1
7f009068:	3c047f01 	lui	a0,0x7f01
7f00906c:	2484ed78 	addiu	a0,a0,-4744
7f009070:	3c057f01 	lui	a1,0x7f01
7f009074:	24a5e7e4 	addiu	a1,a1,-6172
7f009078:	24060019 	li	a2,25
7f00907c:	00c33023 	subu	a2,a2,v1
7f009080:	77c02a86 	jalx	7f00aa18 <fprintf>
7f009084:	8c470010 	lw	a3,16(v0)
7f009088:	26100004 	addiu	s0,s0,4
7f00908c:	02308021 	addu	s0,s1,s0
7f009090:	24110001 	li	s1,1
7f009094:	2412ffff 	li	s2,-1
7f009098:	3c137f01 	lui	s3,0x7f01
7f00909c:	2673ed78 	addiu	s3,s3,-4744
7f0090a0:	3c147f01 	lui	s4,0x7f01
7f0090a4:	0bc023ff 	j	7f008ffc <prtmov+0x70>
7f0090a8:	2694e7e4 	addiu	s4,s4,-6172

7f0090ac <update>:
7f0090ac:	00061940 	sll	v1,a2,0x5
7f0090b0:	3c027f01 	lui	v0,0x7f01
7f0090b4:	2442f180 	addiu	v0,v0,-3712
7f0090b8:	00621021 	addu	v0,v1,v0
7f0090bc:	8c430000 	lw	v1,0(v0)
7f0090c0:	2402ffff 	li	v0,-1
7f0090c4:	1062002d 	beq	v1,v0,7f00917c <update+0xd0>
7f0090c8:	00063140 	sll	a2,a2,0x5
7f0090cc:	3c027f01 	lui	v0,0x7f01
7f0090d0:	2442f180 	addiu	v0,v0,-3712
7f0090d4:	00463021 	addu	a2,v0,a2
7f0090d8:	00001021 	move	v0,zero
7f0090dc:	24090019 	li	t1,25
7f0090e0:	240b0001 	li	t3,1
7f0090e4:	24080004 	li	t0,4
7f0090e8:	0bc0243e 	j	7f0090f8 <update+0x4c>
7f0090ec:	240affff 	li	t2,-1
7f0090f0:	106a0022 	beq	v1,t2,7f00917c <update+0xd0>
7f0090f4:	24c60004 	addiu	a2,a2,4
7f0090f8:	00031880 	sll	v1,v1,0x2
7f0090fc:	00831821 	addu	v1,a0,v1
7f009100:	8c670000 	lw	a3,0(v1)
7f009104:	24e7ffff 	addiu	a3,a3,-1
7f009108:	ac670000 	sw	a3,0(v1)
7f00910c:	8cc70010 	lw	a3,16(a2)
7f009110:	8cc30000 	lw	v1,0(a2)
7f009114:	00e31821 	addu	v1,a3,v1
7f009118:	00031880 	sll	v1,v1,0x2
7f00911c:	00831821 	addu	v1,a0,v1
7f009120:	8c670000 	lw	a3,0(v1)
7f009124:	24e70001 	addiu	a3,a3,1
7f009128:	ac670000 	sw	a3,0(v1)
7f00912c:	8cc30000 	lw	v1,0(a2)
7f009130:	01231823 	subu	v1,t1,v1
7f009134:	8cc70010 	lw	a3,16(a2)
7f009138:	00671823 	subu	v1,v1,a3
7f00913c:	1860000c 	blez	v1,7f009170 <update+0xc4>
7f009140:	00c06021 	move	t4,a2
7f009144:	00031880 	sll	v1,v1,0x2
7f009148:	00a31821 	addu	v1,a1,v1
7f00914c:	8c670000 	lw	a3,0(v1)
7f009150:	54eb0008 	bnel	a3,t3,7f009174 <update+0xc8>
7f009154:	24420001 	addiu	v0,v0,1
7f009158:	8ca70000 	lw	a3,0(a1)
7f00915c:	24e70001 	addiu	a3,a3,1
7f009160:	aca70000 	sw	a3,0(a1)
7f009164:	8c670000 	lw	a3,0(v1)
7f009168:	24e7ffff 	addiu	a3,a3,-1
7f00916c:	ac670000 	sw	a3,0(v1)
7f009170:	24420001 	addiu	v0,v0,1
7f009174:	5448ffde 	bnel	v0,t0,7f0090f0 <update+0x44>
7f009178:	8d830004 	lw	v1,4(t4)
7f00917c:	03e00008 	jr	ra
7f009180:	00000000 	nop

7f009184 <nextmove>:
7f009184:	27bdffe0 	addiu	sp,sp,-32
7f009188:	afbf001c 	sw	ra,28(sp)
7f00918c:	afb20018 	sw	s2,24(sp)
7f009190:	afb10014 	sw	s1,20(sp)
7f009194:	afb00010 	sw	s0,16(sp)
7f009198:	00808021 	move	s0,a0
7f00919c:	00a08821 	move	s1,a1
7f0091a0:	0fc0214d 	jal	7f008534 <movegen>
7f0091a4:	af80806c 	sw	zero,-32660(gp)
7f0091a8:	8f828060 	lw	v0,-32672(gp)
7f0091ac:	8f838054 	lw	v1,-32684(gp)
7f0091b0:	10430005 	beq	v0,v1,7f0091c8 <nextmove+0x44>
7f0091b4:	02002021 	move	a0,s0
7f0091b8:	af838060 	sw	v1,-32672(gp)
7f0091bc:	af828054 	sw	v0,-32684(gp)
7f0091c0:	0fc0214d 	jal	7f008534 <movegen>
7f0091c4:	02202821 	move	a1,s1
7f0091c8:	8f82806c 	lw	v0,-32660(gp)
7f0091cc:	1440000a 	bnez	v0,7f0091f8 <nextmove+0x74>
7f0091d0:	02002021 	move	a0,s0
7f0091d4:	3c047f01 	lui	a0,0x7f01
7f0091d8:	2484e7f0 	addiu	a0,a0,-6160
7f0091dc:	24050001 	li	a1,1
7f0091e0:	24060012 	li	a2,18
7f0091e4:	3c077f01 	lui	a3,0x7f01
7f0091e8:	77c02ab9 	jalx	7f00aae4 <fwrite>
7f0091ec:	24e7ed78 	addiu	a3,a3,-4744
7f0091f0:	0bc02488 	j	7f009220 <nextmove+0x9c>
7f0091f4:	2402ffff 	li	v0,-1
7f0091f8:	0fc02373 	jal	7f008dcc <strategy>
7f0091fc:	02202821 	move	a1,s1
7f009200:	00409021 	move	s2,v0
7f009204:	0fc023e3 	jal	7f008f8c <prtmov>
7f009208:	00402021 	move	a0,v0
7f00920c:	02002021 	move	a0,s0
7f009210:	02202821 	move	a1,s1
7f009214:	0fc0242b 	jal	7f0090ac <update>
7f009218:	02403021 	move	a2,s2
7f00921c:	00001021 	move	v0,zero
7f009220:	8fbf001c 	lw	ra,28(sp)
7f009224:	8fb20018 	lw	s2,24(sp)
7f009228:	8fb10014 	lw	s1,20(sp)
7f00922c:	8fb00010 	lw	s0,16(sp)
7f009230:	03e00008 	jr	ra
7f009234:	27bd0020 	addiu	sp,sp,32

7f009238 <pmoves>:
7f009238:	27bdffc0 	addiu	sp,sp,-64
7f00923c:	afbf003c 	sw	ra,60(sp)
7f009240:	afbe0038 	sw	s8,56(sp)
7f009244:	afb70034 	sw	s7,52(sp)
7f009248:	afb60030 	sw	s6,48(sp)
7f00924c:	afb5002c 	sw	s5,44(sp)
7f009250:	afb40028 	sw	s4,40(sp)
7f009254:	afb30024 	sw	s3,36(sp)
7f009258:	afb20020 	sw	s2,32(sp)
7f00925c:	afb1001c 	sw	s1,28(sp)
7f009260:	afb00018 	sw	s0,24(sp)
7f009264:	3c047f01 	lui	a0,0x7f01
7f009268:	2484e804 	addiu	a0,a0,-6140
7f00926c:	24050001 	li	a1,1
7f009270:	24060014 	li	a2,20
7f009274:	3c077f01 	lui	a3,0x7f01
7f009278:	77c02ab9 	jalx	7f00aae4 <fwrite>
7f00927c:	24e7ed78 	addiu	a3,a3,-4744
7f009280:	8f82806c 	lw	v0,-32660(gp)
7f009284:	18400022 	blez	v0,7f009310 <pmoves+0xd8>
7f009288:	3c147f01 	lui	s4,0x7f01
7f00928c:	2694f180 	addiu	s4,s4,-3712
7f009290:	00009021 	move	s2,zero
7f009294:	3c137f01 	lui	s3,0x7f01
7f009298:	2673ed78 	addiu	s3,s3,-4744
7f00929c:	3c1e7f01 	lui	s8,0x7f01
7f0092a0:	27dee81c 	addiu	s8,s8,-6116
7f0092a4:	3c177f01 	lui	s7,0x7f01
7f0092a8:	afb40010 	sw	s4,16(sp)
7f0092ac:	02602021 	move	a0,s3
7f0092b0:	03c02821 	move	a1,s8
7f0092b4:	77c02a86 	jalx	7f00aa18 <fprintf>
7f0092b8:	02403021 	move	a2,s2
7f0092bc:	8e860000 	lw	a2,0(s4)
7f0092c0:	2402ffff 	li	v0,-1
7f0092c4:	14c20022 	bne	a2,v0,7f009350 <pmoves+0x118>
7f0092c8:	02602021 	move	a0,s3
7f0092cc:	0bc024c0 	j	7f009300 <pmoves+0xc8>
7f0092d0:	26520001 	addiu	s2,s2,1
7f0092d4:	8e060000 	lw	a2,0(s0)
7f0092d8:	10d50008 	beq	a2,s5,7f0092fc <pmoves+0xc4>
7f0092dc:	02602021 	move	a0,s3
7f0092e0:	02c02821 	move	a1,s6
7f0092e4:	77c02a86 	jalx	7f00aa18 <fprintf>
7f0092e8:	8e070010 	lw	a3,16(s0)
7f0092ec:	26310001 	addiu	s1,s1,1
7f0092f0:	24020004 	li	v0,4
7f0092f4:	1622fff7 	bne	s1,v0,7f0092d4 <pmoves+0x9c>
7f0092f8:	26100004 	addiu	s0,s0,4
7f0092fc:	26520001 	addiu	s2,s2,1
7f009300:	8f82806c 	lw	v0,-32660(gp)
7f009304:	0242102a 	slt	v0,s2,v0
7f009308:	1440ffe8 	bnez	v0,7f0092ac <pmoves+0x74>
7f00930c:	26940020 	addiu	s4,s4,32
7f009310:	2404000a 	li	a0,10
7f009314:	3c057f01 	lui	a1,0x7f01
7f009318:	77c02aa1 	jalx	7f00aa84 <fputc>
7f00931c:	24a5ed78 	addiu	a1,a1,-4744
7f009320:	8fbf003c 	lw	ra,60(sp)
7f009324:	8fbe0038 	lw	s8,56(sp)
7f009328:	8fb70034 	lw	s7,52(sp)
7f00932c:	8fb60030 	lw	s6,48(sp)
7f009330:	8fb5002c 	lw	s5,44(sp)
7f009334:	8fb40028 	lw	s4,40(sp)
7f009338:	8fb30024 	lw	s3,36(sp)
7f00933c:	8fb20020 	lw	s2,32(sp)
7f009340:	8fb1001c 	lw	s1,28(sp)
7f009344:	8fb00018 	lw	s0,24(sp)
7f009348:	03e00008 	jr	ra
7f00934c:	27bd0040 	addiu	sp,sp,64
7f009350:	26e5e7e8 	addiu	a1,s7,-6168
7f009354:	77c02a86 	jalx	7f00aa18 <fprintf>
7f009358:	8e870010 	lw	a3,16(s4)
7f00935c:	00128140 	sll	s0,s2,0x5
7f009360:	26100004 	addiu	s0,s0,4
7f009364:	8fa20010 	lw	v0,16(sp)
7f009368:	00508021 	addu	s0,v0,s0
7f00936c:	24110001 	li	s1,1
7f009370:	2415ffff 	li	s5,-1
7f009374:	0bc024b5 	j	7f0092d4 <pmoves+0x9c>
7f009378:	26f6e7e8 	addiu	s6,s7,-6168

7f00937c <roll>:
7f00937c:	27bdffd8 	addiu	sp,sp,-40
7f009380:	afbf0024 	sw	ra,36(sp)
7f009384:	24020001 	li	v0,1
7f009388:	14820026 	bne	a0,v0,7f009424 <roll+0xa8>
7f00938c:	afb00020 	sw	s0,32(sp)
7f009390:	8f82801c 	lw	v0,-32740(gp)
7f009394:	10400023 	beqz	v0,7f009424 <roll+0xa8>
7f009398:	3c047f01 	lui	a0,0x7f01
7f00939c:	2484e820 	addiu	a0,a0,-6112
7f0093a0:	24050001 	li	a1,1
7f0093a4:	24060006 	li	a2,6
7f0093a8:	3c077f01 	lui	a3,0x7f01
7f0093ac:	77c02ab9 	jalx	7f00aae4 <fwrite>
7f0093b0:	24e7ed78 	addiu	a3,a3,-4744
7f0093b4:	77c02af1 	jalx	7f00abc4 <gets>
7f0093b8:	27a40010 	addiu	a0,sp,16
7f0093bc:	27a40010 	addiu	a0,sp,16
7f0093c0:	3c057f01 	lui	a1,0x7f01
7f0093c4:	24a5e828 	addiu	a1,a1,-6104
7f0093c8:	27868060 	addiu	a2,gp,-32672
7f0093cc:	77c02ba7 	jalx	7f00ae9c <sscanf>
7f0093d0:	27878054 	addiu	a3,gp,-32684
7f0093d4:	24030002 	li	v1,2
7f0093d8:	1443000c 	bne	v0,v1,7f00940c <roll+0x90>
7f0093dc:	3c047f01 	lui	a0,0x7f01
7f0093e0:	8f828060 	lw	v0,-32672(gp)
7f0093e4:	18400009 	blez	v0,7f00940c <roll+0x90>
7f0093e8:	28420007 	slti	v0,v0,7
7f0093ec:	10400008 	beqz	v0,7f009410 <roll+0x94>
7f0093f0:	2484e830 	addiu	a0,a0,-6096
7f0093f4:	8f828054 	lw	v0,-32684(gp)
7f0093f8:	18400003 	blez	v0,7f009408 <roll+0x8c>
7f0093fc:	28420007 	slti	v0,v0,7
7f009400:	14400023 	bnez	v0,7f009490 <roll+0x114>
7f009404:	8fbf0024 	lw	ra,36(sp)
7f009408:	3c047f01 	lui	a0,0x7f01
7f00940c:	2484e830 	addiu	a0,a0,-6096
7f009410:	24050001 	li	a1,1
7f009414:	24060016 	li	a2,22
7f009418:	3c077f01 	lui	a3,0x7f01
7f00941c:	77c02ab9 	jalx	7f00aae4 <fwrite>
7f009420:	24e7ed78 	addiu	a3,a3,-4744
7f009424:	77c02b7e 	jalx	7f00adf8 <rand>
7f009428:	3c102aaa 	lui	s0,0x2aaa
7f00942c:	00021a03 	sra	v1,v0,0x8
7f009430:	3610aaab 	ori	s0,s0,0xaaab
7f009434:	00700018 	mult	v1,s0
7f009438:	00002010 	mfhi	a0
7f00943c:	000217c3 	sra	v0,v0,0x1f
7f009440:	00821023 	subu	v0,a0,v0
7f009444:	00022040 	sll	a0,v0,0x1
7f009448:	000210c0 	sll	v0,v0,0x3
7f00944c:	00441023 	subu	v0,v0,a0
7f009450:	00621823 	subu	v1,v1,v0
7f009454:	24630001 	addiu	v1,v1,1
7f009458:	77c02b7e 	jalx	7f00adf8 <rand>
7f00945c:	af838060 	sw	v1,-32672(gp)
7f009460:	00021a03 	sra	v1,v0,0x8
7f009464:	00700018 	mult	v1,s0
7f009468:	00008010 	mfhi	s0
7f00946c:	000217c3 	sra	v0,v0,0x1f
7f009470:	02028023 	subu	s0,s0,v0
7f009474:	00101040 	sll	v0,s0,0x1
7f009478:	001080c0 	sll	s0,s0,0x3
7f00947c:	02028023 	subu	s0,s0,v0
7f009480:	00701823 	subu	v1,v1,s0
7f009484:	24630001 	addiu	v1,v1,1
7f009488:	af838054 	sw	v1,-32684(gp)
7f00948c:	8fbf0024 	lw	ra,36(sp)
7f009490:	8fb00020 	lw	s0,32(sp)
7f009494:	03e00008 	jr	ra
7f009498:	27bd0028 	addiu	sp,sp,40

7f00949c <instructions>:
7f00949c:	27bdfbe8 	addiu	sp,sp,-1048
7f0094a0:	afbf0414 	sw	ra,1044(sp)
7f0094a4:	afb00410 	sw	s0,1040(sp)
7f0094a8:	3c047f01 	lui	a0,0x7f01
7f0094ac:	2484e848 	addiu	a0,a0,-6072
7f0094b0:	0fc02b77 	jal	7f00addc <open>
7f0094b4:	00002821 	move	a1,zero
7f0094b8:	0441000d 	bgez	v0,7f0094f0 <instructions+0x54>
7f0094bc:	00408021 	move	s0,v0
7f0094c0:	3c047f01 	lui	a0,0x7f01
7f0094c4:	2484ed8c 	addiu	a0,a0,-4724
7f0094c8:	3c057f01 	lui	a1,0x7f01
7f0094cc:	24a5e860 	addiu	a1,a1,-6048
7f0094d0:	3c067f01 	lui	a2,0x7f01
7f0094d4:	77c02a86 	jalx	7f00aa18 <fprintf>
7f0094d8:	24c6e848 	addiu	a2,a2,-6072
7f0094dc:	0bc02543 	j	7f00950c <instructions+0x70>
7f0094e0:	8fbf0414 	lw	ra,1044(sp)
7f0094e4:	27a50010 	addiu	a1,sp,16
7f0094e8:	0fc02bfa 	jal	7f00afe8 <write>
7f0094ec:	00403021 	move	a2,v0
7f0094f0:	02002021 	move	a0,s0
7f0094f4:	27a50010 	addiu	a1,sp,16
7f0094f8:	0fc02b86 	jal	7f00ae18 <read>
7f0094fc:	24060400 	li	a2,1024
7f009500:	1c40fff8 	bgtz	v0,7f0094e4 <instructions+0x48>
7f009504:	24040001 	li	a0,1
7f009508:	8fbf0414 	lw	ra,1044(sp)
7f00950c:	8fb00410 	lw	s0,1040(sp)
7f009510:	03e00008 	jr	ra
7f009514:	27bd0418 	addiu	sp,sp,1048

7f009518 <numline>:
7f009518:	27bdffd0 	addiu	sp,sp,-48
7f00951c:	afbf002c 	sw	ra,44(sp)
7f009520:	afb60028 	sw	s6,40(sp)
7f009524:	afb50024 	sw	s5,36(sp)
7f009528:	afb40020 	sw	s4,32(sp)
7f00952c:	afb3001c 	sw	s3,28(sp)
7f009530:	afb20018 	sw	s2,24(sp)
7f009534:	afb10014 	sw	s1,20(sp)
7f009538:	afb00010 	sw	s0,16(sp)
7f00953c:	00e6102a 	slt	v0,a3,a2
7f009540:	14400020 	bnez	v0,7f0095c4 <numline+0xac>
7f009544:	00e09821 	move	s3,a3
7f009548:	00068080 	sll	s0,a2,0x2
7f00954c:	00908021 	addu	s0,a0,s0
7f009550:	24120019 	li	s2,25
7f009554:	02469023 	subu	s2,s2,a2
7f009558:	00129080 	sll	s2,s2,0x2
7f00955c:	00b29021 	addu	s2,a1,s2
7f009560:	00c08821 	move	s1,a2
7f009564:	3c147f01 	lui	s4,0x7f01
7f009568:	2694ed78 	addiu	s4,s4,-4744
7f00956c:	3c157f01 	lui	s5,0x7f01
7f009570:	26b5e878 	addiu	s5,s5,-6024
7f009574:	3c167f01 	lui	s6,0x7f01
7f009578:	8e060000 	lw	a2,0(s0)
7f00957c:	14c00004 	bnez	a2,7f009590 <numline+0x78>
7f009580:	02802021 	move	a0,s4
7f009584:	8e460000 	lw	a2,0(s2)
7f009588:	50c00005 	beqzl	a2,7f0095a0 <numline+0x88>
7f00958c:	26c4e87c 	addiu	a0,s6,-6020
7f009590:	77c02a86 	jalx	7f00aa18 <fprintf>
7f009594:	02a02821 	move	a1,s5
7f009598:	0bc0256d 	j	7f0095b4 <numline+0x9c>
7f00959c:	26310001 	addiu	s1,s1,1
7f0095a0:	24050001 	li	a1,1
7f0095a4:	24060004 	li	a2,4
7f0095a8:	77c02ab9 	jalx	7f00aae4 <fwrite>
7f0095ac:	02803821 	move	a3,s4
7f0095b0:	26310001 	addiu	s1,s1,1
7f0095b4:	26100004 	addiu	s0,s0,4
7f0095b8:	0271102a 	slt	v0,s3,s1
7f0095bc:	1040ffee 	beqz	v0,7f009578 <numline+0x60>
7f0095c0:	2652fffc 	addiu	s2,s2,-4
7f0095c4:	8fbf002c 	lw	ra,44(sp)
7f0095c8:	8fb60028 	lw	s6,40(sp)
7f0095cc:	8fb50024 	lw	s5,36(sp)
7f0095d0:	8fb40020 	lw	s4,32(sp)
7f0095d4:	8fb3001c 	lw	s3,28(sp)
7f0095d8:	8fb20018 	lw	s2,24(sp)
7f0095dc:	8fb10014 	lw	s1,20(sp)
7f0095e0:	8fb00010 	lw	s0,16(sp)
7f0095e4:	03e00008 	jr	ra
7f0095e8:	27bd0030 	addiu	sp,sp,48

7f0095ec <colorline>:
7f0095ec:	27bdffc8 	addiu	sp,sp,-56
7f0095f0:	afbf0034 	sw	ra,52(sp)
7f0095f4:	afbe0030 	sw	s8,48(sp)
7f0095f8:	afb7002c 	sw	s7,44(sp)
7f0095fc:	afb60028 	sw	s6,40(sp)
7f009600:	afb50024 	sw	s5,36(sp)
7f009604:	afb40020 	sw	s4,32(sp)
7f009608:	afb3001c 	sw	s3,28(sp)
7f00960c:	afb20018 	sw	s2,24(sp)
7f009610:	afb10014 	sw	s1,20(sp)
7f009614:	afb00010 	sw	s0,16(sp)
7f009618:	8fb20048 	lw	s2,72(sp)
7f00961c:	8fb3004c 	lw	s3,76(sp)
7f009620:	7c05ac20 	seb	s5,a1
7f009624:	0272102a 	slt	v0,s3,s2
7f009628:	1440001a 	bnez	v0,7f009694 <colorline+0xa8>
7f00962c:	7c07a420 	seb	s4,a3
7f009630:	00128080 	sll	s0,s2,0x2
7f009634:	00908021 	addu	s0,a0,s0
7f009638:	24110019 	li	s1,25
7f00963c:	02328823 	subu	s1,s1,s2
7f009640:	00118880 	sll	s1,s1,0x2
7f009644:	00d18821 	addu	s1,a2,s1
7f009648:	24160020 	li	s6,32
7f00964c:	3c177f01 	lui	s7,0x7f01
7f009650:	26f7ed78 	addiu	s7,s7,-4744
7f009654:	3c1e7f01 	lui	s8,0x7f01
7f009658:	27dee884 	addiu	s8,s8,-6012
7f00965c:	8e060000 	lw	a2,0(s0)
7f009660:	02c01021 	move	v0,s6
7f009664:	02a6100b 	movn	v0,s5,a2
7f009668:	00403021 	move	a2,v0
7f00966c:	8e220000 	lw	v0,0(s1)
7f009670:	02e02021 	move	a0,s7
7f009674:	03c02821 	move	a1,s8
7f009678:	77c02a86 	jalx	7f00aa18 <fprintf>
7f00967c:	0282300b 	movn	a2,s4,v0
7f009680:	26520001 	addiu	s2,s2,1
7f009684:	26100004 	addiu	s0,s0,4
7f009688:	0272102a 	slt	v0,s3,s2
7f00968c:	1040fff3 	beqz	v0,7f00965c <colorline+0x70>
7f009690:	2631fffc 	addiu	s1,s1,-4
7f009694:	8fbf0034 	lw	ra,52(sp)
7f009698:	8fbe0030 	lw	s8,48(sp)
7f00969c:	8fb7002c 	lw	s7,44(sp)
7f0096a0:	8fb60028 	lw	s6,40(sp)
7f0096a4:	8fb50024 	lw	s5,36(sp)
7f0096a8:	8fb40020 	lw	s4,32(sp)
7f0096ac:	8fb3001c 	lw	s3,28(sp)
7f0096b0:	8fb20018 	lw	s2,24(sp)
7f0096b4:	8fb10014 	lw	s1,20(sp)
7f0096b8:	8fb00010 	lw	s0,16(sp)
7f0096bc:	03e00008 	jr	ra
7f0096c0:	27bd0038 	addiu	sp,sp,56

7f0096c4 <prtbrd>:
7f0096c4:	27bdffd0 	addiu	sp,sp,-48
7f0096c8:	afbf002c 	sw	ra,44(sp)
7f0096cc:	afb30028 	sw	s3,40(sp)
7f0096d0:	afb20024 	sw	s2,36(sp)
7f0096d4:	afb10020 	sw	s1,32(sp)
7f0096d8:	afb0001c 	sw	s0,28(sp)
7f0096dc:	3c047f01 	lui	a0,0x7f01
7f0096e0:	2484e88c 	addiu	a0,a0,-6004
7f0096e4:	24050001 	li	a1,1
7f0096e8:	2406000d 	li	a2,13
7f0096ec:	3c077f01 	lui	a3,0x7f01
7f0096f0:	77c02ab9 	jalx	7f00aae4 <fwrite>
7f0096f4:	24e7ed78 	addiu	a3,a3,-4744
7f0096f8:	24100001 	li	s0,1
7f0096fc:	3c117f01 	lui	s1,0x7f01
7f009700:	2631ed78 	addiu	s1,s1,-4744
7f009704:	3c127f01 	lui	s2,0x7f01
7f009708:	2652e878 	addiu	s2,s2,-6024
7f00970c:	24130007 	li	s3,7
7f009710:	02202021 	move	a0,s1
7f009714:	02402821 	move	a1,s2
7f009718:	77c02a86 	jalx	7f00aa18 <fprintf>
7f00971c:	02003021 	move	a2,s0
7f009720:	26100001 	addiu	s0,s0,1
7f009724:	1613fffb 	bne	s0,s3,7f009714 <prtbrd+0x50>
7f009728:	02202021 	move	a0,s1
7f00972c:	3c047f01 	lui	a0,0x7f01
7f009730:	2484e87c 	addiu	a0,a0,-6020
7f009734:	24050001 	li	a1,1
7f009738:	24060004 	li	a2,4
7f00973c:	3c077f01 	lui	a3,0x7f01
7f009740:	77c02ab9 	jalx	7f00aae4 <fwrite>
7f009744:	24e7ed78 	addiu	a3,a3,-4744
7f009748:	3c117f01 	lui	s1,0x7f01
7f00974c:	2631ed78 	addiu	s1,s1,-4744
7f009750:	3c127f01 	lui	s2,0x7f01
7f009754:	2652e878 	addiu	s2,s2,-6024
7f009758:	2413000d 	li	s3,13
7f00975c:	02202021 	move	a0,s1
7f009760:	02402821 	move	a1,s2
7f009764:	77c02a86 	jalx	7f00aa18 <fprintf>
7f009768:	02003021 	move	a2,s0
7f00976c:	26100001 	addiu	s0,s0,1
7f009770:	1613fffb 	bne	s0,s3,7f009760 <prtbrd+0x9c>
7f009774:	02202021 	move	a0,s1
7f009778:	3c107f01 	lui	s0,0x7f01
7f00977c:	2604ed78 	addiu	a0,s0,-4744
7f009780:	3c057f01 	lui	a1,0x7f01
7f009784:	24a5e89c 	addiu	a1,a1,-5988
7f009788:	3c067f01 	lui	a2,0x7f01
7f00978c:	77c02a86 	jalx	7f00aa18 <fprintf>
7f009790:	24c6ed2c 	addiu	a2,a2,-4820
7f009794:	3c117f01 	lui	s1,0x7f01
7f009798:	2624ec00 	addiu	a0,s1,-5120
7f00979c:	3c127f01 	lui	s2,0x7f01
7f0097a0:	2645ec7c 	addiu	a1,s2,-4996
7f0097a4:	24060001 	li	a2,1
7f0097a8:	0fc02546 	jal	7f009518 <numline>
7f0097ac:	24070006 	li	a3,6
7f0097b0:	3c047f01 	lui	a0,0x7f01
7f0097b4:	2484e87c 	addiu	a0,a0,-6020
7f0097b8:	24050001 	li	a1,1
7f0097bc:	24060004 	li	a2,4
7f0097c0:	77c02ab9 	jalx	7f00aae4 <fwrite>
7f0097c4:	2607ed78 	addiu	a3,s0,-4744
7f0097c8:	2624ec00 	addiu	a0,s1,-5120
7f0097cc:	2645ec7c 	addiu	a1,s2,-4996
7f0097d0:	24060007 	li	a2,7
7f0097d4:	0fc02546 	jal	7f009518 <numline>
7f0097d8:	2407000c 	li	a3,12
7f0097dc:	3c037f01 	lui	v1,0x7f01
7f0097e0:	2463ed64 	addiu	v1,v1,-4764
7f0097e4:	8c620014 	lw	v0,20(v1)
7f0097e8:	2442ffff 	addiu	v0,v0,-1
7f0097ec:	04400008 	bltz	v0,7f009810 <prtbrd+0x14c>
7f0097f0:	ac620014 	sw	v0,20(v1)
7f0097f4:	00601021 	move	v0,v1
7f0097f8:	8c630018 	lw	v1,24(v1)
7f0097fc:	2404000a 	li	a0,10
7f009800:	a0640000 	sb	a0,0(v1)
7f009804:	24630001 	addiu	v1,v1,1
7f009808:	0bc0261e 	j	7f009878 <prtbrd+0x1b4>
7f00980c:	ac430018 	sw	v1,24(v0)
7f009810:	3c037f01 	lui	v1,0x7f01
7f009814:	9463ed88 	lhu	v1,-4728(v1)
7f009818:	30630080 	andi	v1,v1,0x80
7f00981c:	10600012 	beqz	v1,7f009868 <prtbrd+0x1a4>
7f009820:	00021023 	negu	v0,v0
7f009824:	3c037f01 	lui	v1,0x7f01
7f009828:	8c63ed84 	lw	v1,-4732(v1)
7f00982c:	0043102a 	slt	v0,v0,v1
7f009830:	1040000e 	beqz	v0,7f00986c <prtbrd+0x1a8>
7f009834:	2404000a 	li	a0,10
7f009838:	3c027f01 	lui	v0,0x7f01
7f00983c:	2442ed64 	addiu	v0,v0,-4764
7f009840:	8c430018 	lw	v1,24(v0)
7f009844:	2404000a 	li	a0,10
7f009848:	a0640000 	sb	a0,0(v1)
7f00984c:	8c420018 	lw	v0,24(v0)
7f009850:	90440000 	lbu	a0,0(v0)
7f009854:	3c057f01 	lui	a1,0x7f01
7f009858:	77c02a09 	jalx	7f00a824 <_flsbuf>
7f00985c:	24a5ed78 	addiu	a1,a1,-4744
7f009860:	0bc0261f 	j	7f00987c <prtbrd+0x1b8>
7f009864:	24020001 	li	v0,1
7f009868:	2404000a 	li	a0,10
7f00986c:	3c057f01 	lui	a1,0x7f01
7f009870:	77c02a09 	jalx	7f00a824 <_flsbuf>
7f009874:	24a5ed78 	addiu	a1,a1,-4744
7f009878:	24020001 	li	v0,1
7f00987c:	afa20010 	sw	v0,16(sp)
7f009880:	24020006 	li	v0,6
7f009884:	afa20014 	sw	v0,20(sp)
7f009888:	3c107f01 	lui	s0,0x7f01
7f00988c:	2604ec00 	addiu	a0,s0,-5120
7f009890:	24050042 	li	a1,66
7f009894:	3c117f01 	lui	s1,0x7f01
7f009898:	2626ec7c 	addiu	a2,s1,-4996
7f00989c:	0fc0257b 	jal	7f0095ec <colorline>
7f0098a0:	24070057 	li	a3,87
7f0098a4:	3c047f01 	lui	a0,0x7f01
7f0098a8:	2484e87c 	addiu	a0,a0,-6020
7f0098ac:	24050001 	li	a1,1
7f0098b0:	24060004 	li	a2,4
7f0098b4:	3c077f01 	lui	a3,0x7f01
7f0098b8:	77c02ab9 	jalx	7f00aae4 <fwrite>
7f0098bc:	24e7ed78 	addiu	a3,a3,-4744
7f0098c0:	24020007 	li	v0,7
7f0098c4:	afa20010 	sw	v0,16(sp)
7f0098c8:	2402000c 	li	v0,12
7f0098cc:	afa20014 	sw	v0,20(sp)
7f0098d0:	2604ec00 	addiu	a0,s0,-5120
7f0098d4:	24050042 	li	a1,66
7f0098d8:	2626ec7c 	addiu	a2,s1,-4996
7f0098dc:	0fc0257b 	jal	7f0095ec <colorline>
7f0098e0:	24070057 	li	a3,87
7f0098e4:	3c037f01 	lui	v1,0x7f01
7f0098e8:	2463ed64 	addiu	v1,v1,-4764
7f0098ec:	8c620014 	lw	v0,20(v1)
7f0098f0:	2442ffff 	addiu	v0,v0,-1
7f0098f4:	04400008 	bltz	v0,7f009918 <prtbrd+0x254>
7f0098f8:	ac620014 	sw	v0,20(v1)
7f0098fc:	00601021 	move	v0,v1
7f009900:	8c630018 	lw	v1,24(v1)
7f009904:	2404000a 	li	a0,10
7f009908:	a0640000 	sb	a0,0(v1)
7f00990c:	24630001 	addiu	v1,v1,1
7f009910:	0bc02660 	j	7f009980 <prtbrd+0x2bc>
7f009914:	ac430018 	sw	v1,24(v0)
7f009918:	3c037f01 	lui	v1,0x7f01
7f00991c:	9463ed88 	lhu	v1,-4728(v1)
7f009920:	30630080 	andi	v1,v1,0x80
7f009924:	10600012 	beqz	v1,7f009970 <prtbrd+0x2ac>
7f009928:	00021023 	negu	v0,v0
7f00992c:	3c037f01 	lui	v1,0x7f01
7f009930:	8c63ed84 	lw	v1,-4732(v1)
7f009934:	0043102a 	slt	v0,v0,v1
7f009938:	1040000e 	beqz	v0,7f009974 <prtbrd+0x2b0>
7f00993c:	2404000a 	li	a0,10
7f009940:	3c027f01 	lui	v0,0x7f01
7f009944:	2442ed64 	addiu	v0,v0,-4764
7f009948:	8c430018 	lw	v1,24(v0)
7f00994c:	2404000a 	li	a0,10
7f009950:	a0640000 	sb	a0,0(v1)
7f009954:	8c420018 	lw	v0,24(v0)
7f009958:	90440000 	lbu	a0,0(v0)
7f00995c:	3c057f01 	lui	a1,0x7f01
7f009960:	77c02a09 	jalx	7f00a824 <_flsbuf>
7f009964:	24a5ed78 	addiu	a1,a1,-4744
7f009968:	0bc02661 	j	7f009984 <prtbrd+0x2c0>
7f00996c:	3c027f01 	lui	v0,0x7f01
7f009970:	2404000a 	li	a0,10
7f009974:	3c057f01 	lui	a1,0x7f01
7f009978:	77c02a09 	jalx	7f00a824 <_flsbuf>
7f00997c:	24a5ed78 	addiu	a1,a1,-4744
7f009980:	3c027f01 	lui	v0,0x7f01
7f009984:	8c46ec7c 	lw	a2,-4996(v0)
7f009988:	10c00008 	beqz	a2,7f0099ac <prtbrd+0x2e8>
7f00998c:	3c037f01 	lui	v1,0x7f01
7f009990:	3c047f01 	lui	a0,0x7f01
7f009994:	2484ed78 	addiu	a0,a0,-4744
7f009998:	3c057f01 	lui	a1,0x7f01
7f00999c:	77c02a86 	jalx	7f00aa18 <fprintf>
7f0099a0:	24a5e8a4 	addiu	a1,a1,-5980
7f0099a4:	0bc02692 	j	7f009a48 <prtbrd+0x384>
7f0099a8:	3c027f01 	lui	v0,0x7f01
7f0099ac:	2463ed64 	addiu	v1,v1,-4764
7f0099b0:	8c620014 	lw	v0,20(v1)
7f0099b4:	2442ffff 	addiu	v0,v0,-1
7f0099b8:	04400008 	bltz	v0,7f0099dc <prtbrd+0x318>
7f0099bc:	ac620014 	sw	v0,20(v1)
7f0099c0:	00601021 	move	v0,v1
7f0099c4:	8c630018 	lw	v1,24(v1)
7f0099c8:	2404000a 	li	a0,10
7f0099cc:	a0640000 	sb	a0,0(v1)
7f0099d0:	24630001 	addiu	v1,v1,1
7f0099d4:	0bc02691 	j	7f009a44 <prtbrd+0x380>
7f0099d8:	ac430018 	sw	v1,24(v0)
7f0099dc:	3c037f01 	lui	v1,0x7f01
7f0099e0:	9463ed88 	lhu	v1,-4728(v1)
7f0099e4:	30630080 	andi	v1,v1,0x80
7f0099e8:	10600012 	beqz	v1,7f009a34 <prtbrd+0x370>
7f0099ec:	00021023 	negu	v0,v0
7f0099f0:	3c037f01 	lui	v1,0x7f01
7f0099f4:	8c63ed84 	lw	v1,-4732(v1)
7f0099f8:	0043102a 	slt	v0,v0,v1
7f0099fc:	1040000e 	beqz	v0,7f009a38 <prtbrd+0x374>
7f009a00:	2404000a 	li	a0,10
7f009a04:	3c027f01 	lui	v0,0x7f01
7f009a08:	2442ed64 	addiu	v0,v0,-4764
7f009a0c:	8c430018 	lw	v1,24(v0)
7f009a10:	2404000a 	li	a0,10
7f009a14:	a0640000 	sb	a0,0(v1)
7f009a18:	8c420018 	lw	v0,24(v0)
7f009a1c:	90440000 	lbu	a0,0(v0)
7f009a20:	3c057f01 	lui	a1,0x7f01
7f009a24:	77c02a09 	jalx	7f00a824 <_flsbuf>
7f009a28:	24a5ed78 	addiu	a1,a1,-4744
7f009a2c:	0bc02692 	j	7f009a48 <prtbrd+0x384>
7f009a30:	3c027f01 	lui	v0,0x7f01
7f009a34:	2404000a 	li	a0,10
7f009a38:	3c057f01 	lui	a1,0x7f01
7f009a3c:	77c02a09 	jalx	7f00a824 <_flsbuf>
7f009a40:	24a5ed78 	addiu	a1,a1,-4744
7f009a44:	3c027f01 	lui	v0,0x7f01
7f009a48:	8c46ec00 	lw	a2,-5120(v0)
7f009a4c:	10c00008 	beqz	a2,7f009a70 <prtbrd+0x3ac>
7f009a50:	3c037f01 	lui	v1,0x7f01
7f009a54:	3c047f01 	lui	a0,0x7f01
7f009a58:	2484ed78 	addiu	a0,a0,-4744
7f009a5c:	3c057f01 	lui	a1,0x7f01
7f009a60:	77c02a86 	jalx	7f00aa18 <fprintf>
7f009a64:	24a5e8ac 	addiu	a1,a1,-5972
7f009a68:	0bc026c3 	j	7f009b0c <prtbrd+0x448>
7f009a6c:	24020001 	li	v0,1
7f009a70:	2463ed64 	addiu	v1,v1,-4764
7f009a74:	8c620014 	lw	v0,20(v1)
7f009a78:	2442ffff 	addiu	v0,v0,-1
7f009a7c:	04400008 	bltz	v0,7f009aa0 <prtbrd+0x3dc>
7f009a80:	ac620014 	sw	v0,20(v1)
7f009a84:	00601021 	move	v0,v1
7f009a88:	8c630018 	lw	v1,24(v1)
7f009a8c:	2404000a 	li	a0,10
7f009a90:	a0640000 	sb	a0,0(v1)
7f009a94:	24630001 	addiu	v1,v1,1
7f009a98:	0bc026c2 	j	7f009b08 <prtbrd+0x444>
7f009a9c:	ac430018 	sw	v1,24(v0)
7f009aa0:	3c037f01 	lui	v1,0x7f01
7f009aa4:	9463ed88 	lhu	v1,-4728(v1)
7f009aa8:	30630080 	andi	v1,v1,0x80
7f009aac:	10600012 	beqz	v1,7f009af8 <prtbrd+0x434>
7f009ab0:	00021023 	negu	v0,v0
7f009ab4:	3c037f01 	lui	v1,0x7f01
7f009ab8:	8c63ed84 	lw	v1,-4732(v1)
7f009abc:	0043102a 	slt	v0,v0,v1
7f009ac0:	1040000e 	beqz	v0,7f009afc <prtbrd+0x438>
7f009ac4:	2404000a 	li	a0,10
7f009ac8:	3c027f01 	lui	v0,0x7f01
7f009acc:	2442ed64 	addiu	v0,v0,-4764
7f009ad0:	8c430018 	lw	v1,24(v0)
7f009ad4:	2404000a 	li	a0,10
7f009ad8:	a0640000 	sb	a0,0(v1)
7f009adc:	8c420018 	lw	v0,24(v0)
7f009ae0:	90440000 	lbu	a0,0(v0)
7f009ae4:	3c057f01 	lui	a1,0x7f01
7f009ae8:	77c02a09 	jalx	7f00a824 <_flsbuf>
7f009aec:	24a5ed78 	addiu	a1,a1,-4744
7f009af0:	0bc026c3 	j	7f009b0c <prtbrd+0x448>
7f009af4:	24020001 	li	v0,1
7f009af8:	2404000a 	li	a0,10
7f009afc:	3c057f01 	lui	a1,0x7f01
7f009b00:	77c02a09 	jalx	7f00a824 <_flsbuf>
7f009b04:	24a5ed78 	addiu	a1,a1,-4744
7f009b08:	24020001 	li	v0,1
7f009b0c:	afa20010 	sw	v0,16(sp)
7f009b10:	24020006 	li	v0,6
7f009b14:	afa20014 	sw	v0,20(sp)
7f009b18:	3c107f01 	lui	s0,0x7f01
7f009b1c:	2604ec7c 	addiu	a0,s0,-4996
7f009b20:	24050057 	li	a1,87
7f009b24:	3c117f01 	lui	s1,0x7f01
7f009b28:	2626ec00 	addiu	a2,s1,-5120
7f009b2c:	0fc0257b 	jal	7f0095ec <colorline>
7f009b30:	24070042 	li	a3,66
7f009b34:	3c137f01 	lui	s3,0x7f01
7f009b38:	2664e87c 	addiu	a0,s3,-6020
7f009b3c:	24050001 	li	a1,1
7f009b40:	24060004 	li	a2,4
7f009b44:	3c127f01 	lui	s2,0x7f01
7f009b48:	77c02ab9 	jalx	7f00aae4 <fwrite>
7f009b4c:	2647ed78 	addiu	a3,s2,-4744
7f009b50:	24020007 	li	v0,7
7f009b54:	afa20010 	sw	v0,16(sp)
7f009b58:	2402000c 	li	v0,12
7f009b5c:	afa20014 	sw	v0,20(sp)
7f009b60:	2604ec7c 	addiu	a0,s0,-4996
7f009b64:	24050057 	li	a1,87
7f009b68:	2626ec00 	addiu	a2,s1,-5120
7f009b6c:	0fc0257b 	jal	7f0095ec <colorline>
7f009b70:	24070042 	li	a3,66
7f009b74:	2404000a 	li	a0,10
7f009b78:	77c02aa1 	jalx	7f00aa84 <fputc>
7f009b7c:	2645ed78 	addiu	a1,s2,-4744
7f009b80:	2604ec7c 	addiu	a0,s0,-4996
7f009b84:	2625ec00 	addiu	a1,s1,-5120
7f009b88:	24060001 	li	a2,1
7f009b8c:	0fc02546 	jal	7f009518 <numline>
7f009b90:	24070006 	li	a3,6
7f009b94:	2664e87c 	addiu	a0,s3,-6020
7f009b98:	24050001 	li	a1,1
7f009b9c:	24060004 	li	a2,4
7f009ba0:	77c02ab9 	jalx	7f00aae4 <fwrite>
7f009ba4:	2647ed78 	addiu	a3,s2,-4744
7f009ba8:	2604ec7c 	addiu	a0,s0,-4996
7f009bac:	2625ec00 	addiu	a1,s1,-5120
7f009bb0:	24060007 	li	a2,7
7f009bb4:	0fc02546 	jal	7f009518 <numline>
7f009bb8:	2407000c 	li	a3,12
7f009bbc:	2644ed78 	addiu	a0,s2,-4744
7f009bc0:	3c057f01 	lui	a1,0x7f01
7f009bc4:	24a5e89c 	addiu	a1,a1,-5988
7f009bc8:	3c067f01 	lui	a2,0x7f01
7f009bcc:	77c02a86 	jalx	7f00aa18 <fprintf>
7f009bd0:	24c6ed2c 	addiu	a2,a2,-4820
7f009bd4:	24100018 	li	s0,24
7f009bd8:	2651ed78 	addiu	s1,s2,-4744
7f009bdc:	3c127f01 	lui	s2,0x7f01
7f009be0:	2652e878 	addiu	s2,s2,-6024
7f009be4:	24130012 	li	s3,18
7f009be8:	02202021 	move	a0,s1
7f009bec:	02402821 	move	a1,s2
7f009bf0:	77c02a86 	jalx	7f00aa18 <fprintf>
7f009bf4:	02003021 	move	a2,s0
7f009bf8:	2610ffff 	addiu	s0,s0,-1
7f009bfc:	1613fffb 	bne	s0,s3,7f009bec <prtbrd+0x528>
7f009c00:	02202021 	move	a0,s1
7f009c04:	3c047f01 	lui	a0,0x7f01
7f009c08:	2484e87c 	addiu	a0,a0,-6020
7f009c0c:	24050001 	li	a1,1
7f009c10:	24060004 	li	a2,4
7f009c14:	3c077f01 	lui	a3,0x7f01
7f009c18:	77c02ab9 	jalx	7f00aae4 <fwrite>
7f009c1c:	24e7ed78 	addiu	a3,a3,-4744
7f009c20:	3c117f01 	lui	s1,0x7f01
7f009c24:	2631ed78 	addiu	s1,s1,-4744
7f009c28:	3c127f01 	lui	s2,0x7f01
7f009c2c:	2652e878 	addiu	s2,s2,-6024
7f009c30:	2413000c 	li	s3,12
7f009c34:	02202021 	move	a0,s1
7f009c38:	02402821 	move	a1,s2
7f009c3c:	77c02a86 	jalx	7f00aa18 <fprintf>
7f009c40:	02003021 	move	a2,s0
7f009c44:	2610ffff 	addiu	s0,s0,-1
7f009c48:	1613fffb 	bne	s0,s3,7f009c38 <prtbrd+0x574>
7f009c4c:	02202021 	move	a0,s1
7f009c50:	3c047f01 	lui	a0,0x7f01
7f009c54:	2484e8b4 	addiu	a0,a0,-5964
7f009c58:	24050001 	li	a1,1
7f009c5c:	24060012 	li	a2,18
7f009c60:	3c077f01 	lui	a3,0x7f01
7f009c64:	77c02ab9 	jalx	7f00aae4 <fwrite>
7f009c68:	24e7ed78 	addiu	a3,a3,-4744
7f009c6c:	8fbf002c 	lw	ra,44(sp)
7f009c70:	8fb30028 	lw	s3,40(sp)
7f009c74:	8fb20024 	lw	s2,36(sp)
7f009c78:	8fb10020 	lw	s1,32(sp)
7f009c7c:	8fb0001c 	lw	s0,28(sp)
7f009c80:	03e00008 	jr	ra
7f009c84:	27bd0030 	addiu	sp,sp,48

7f009c88 <main>:
7f009c88:	27bdff38 	addiu	sp,sp,-200
7f009c8c:	afbf00c4 	sw	ra,196(sp)
7f009c90:	afb700c0 	sw	s7,192(sp)
7f009c94:	afb600bc 	sw	s6,188(sp)
7f009c98:	afb500b8 	sw	s5,184(sp)
7f009c9c:	afb400b4 	sw	s4,180(sp)
7f009ca0:	afb300b0 	sw	s3,176(sp)
7f009ca4:	afb200ac 	sw	s2,172(sp)
7f009ca8:	afb100a8 	sw	s1,168(sp)
7f009cac:	afb000a4 	sw	s0,164(sp)
7f009cb0:	77c02be0 	jalx	7f00af80 <time>
7f009cb4:	00002021 	move	a0,zero
7f009cb8:	77c02b7c 	jalx	7f00adf0 <srand>
7f009cbc:	00402021 	move	a0,v0
7f009cc0:	2402ffff 	li	v0,-1
7f009cc4:	afa20034 	sw	v0,52(sp)
7f009cc8:	3c047f01 	lui	a0,0x7f01
7f009ccc:	2484e8c8 	addiu	a0,a0,-5944
7f009cd0:	24050001 	li	a1,1
7f009cd4:	2406000e 	li	a2,14
7f009cd8:	3c077f01 	lui	a3,0x7f01
7f009cdc:	77c02ab9 	jalx	7f00aae4 <fwrite>
7f009ce0:	24e7ed78 	addiu	a3,a3,-4744
7f009ce4:	77c02af1 	jalx	7f00abc4 <gets>
7f009ce8:	27a4003c 	addiu	a0,sp,60
7f009cec:	83a3003c 	lb	v1,60(sp)
7f009cf0:	24020079 	li	v0,121
7f009cf4:	14620004 	bne	v1,v0,7f009d08 <main+0x80>
7f009cf8:	3c037f01 	lui	v1,0x7f01
7f009cfc:	0fc02527 	jal	7f00949c <instructions>
7f009d00:	00000000 	nop
7f009d04:	3c037f01 	lui	v1,0x7f01
7f009d08:	2463ed64 	addiu	v1,v1,-4764
7f009d0c:	8c620014 	lw	v0,20(v1)
7f009d10:	2442ffff 	addiu	v0,v0,-1
7f009d14:	04400008 	bltz	v0,7f009d38 <main+0xb0>
7f009d18:	ac620014 	sw	v0,20(v1)
7f009d1c:	00601021 	move	v0,v1
7f009d20:	8c630018 	lw	v1,24(v1)
7f009d24:	2404000a 	li	a0,10
7f009d28:	a0640000 	sb	a0,0(v1)
7f009d2c:	24630001 	addiu	v1,v1,1
7f009d30:	0bc02768 	j	7f009da0 <main+0x118>
7f009d34:	ac430018 	sw	v1,24(v0)
7f009d38:	3c037f01 	lui	v1,0x7f01
7f009d3c:	9463ed88 	lhu	v1,-4728(v1)
7f009d40:	30630080 	andi	v1,v1,0x80
7f009d44:	10600012 	beqz	v1,7f009d90 <main+0x108>
7f009d48:	00021023 	negu	v0,v0
7f009d4c:	3c037f01 	lui	v1,0x7f01
7f009d50:	8c63ed84 	lw	v1,-4732(v1)
7f009d54:	0043102a 	slt	v0,v0,v1
7f009d58:	5040000e 	beqzl	v0,7f009d94 <main+0x10c>
7f009d5c:	2404000a 	li	a0,10
7f009d60:	3c027f01 	lui	v0,0x7f01
7f009d64:	2442ed64 	addiu	v0,v0,-4764
7f009d68:	8c430018 	lw	v1,24(v0)
7f009d6c:	2404000a 	li	a0,10
7f009d70:	a0640000 	sb	a0,0(v1)
7f009d74:	8c420018 	lw	v0,24(v0)
7f009d78:	90440000 	lbu	a0,0(v0)
7f009d7c:	3c057f01 	lui	a1,0x7f01
7f009d80:	77c02a09 	jalx	7f00a824 <_flsbuf>
7f009d84:	24a5ed78 	addiu	a1,a1,-4744
7f009d88:	0bc02769 	j	7f009da4 <main+0x11c>
7f009d8c:	3c047f01 	lui	a0,0x7f01
7f009d90:	2404000a 	li	a0,10
7f009d94:	3c057f01 	lui	a1,0x7f01
7f009d98:	77c02a09 	jalx	7f00a824 <_flsbuf>
7f009d9c:	24a5ed78 	addiu	a1,a1,-4744
7f009da0:	3c047f01 	lui	a0,0x7f01
7f009da4:	2484e8d8 	addiu	a0,a0,-5928
7f009da8:	24050001 	li	a1,1
7f009dac:	24060020 	li	a2,32
7f009db0:	3c107f01 	lui	s0,0x7f01
7f009db4:	77c02ab9 	jalx	7f00aae4 <fwrite>
7f009db8:	2607ed78 	addiu	a3,s0,-4744
7f009dbc:	3c047f01 	lui	a0,0x7f01
7f009dc0:	2484e8fc 	addiu	a0,a0,-5892
7f009dc4:	24050001 	li	a1,1
7f009dc8:	2406001e 	li	a2,30
7f009dcc:	77c02ab9 	jalx	7f00aae4 <fwrite>
7f009dd0:	2607ed78 	addiu	a3,s0,-4744
7f009dd4:	24020065 	li	v0,101
7f009dd8:	a382805c 	sb	v0,-32676(gp)
7f009ddc:	77c02af1 	jalx	7f00abc4 <gets>
7f009de0:	27a4003c 	addiu	a0,sp,60
7f009de4:	83a2003c 	lb	v0,60(sp)
7f009de8:	24030062 	li	v1,98
7f009dec:	14430004 	bne	v0,v1,7f009e00 <main+0x178>
7f009df0:	24030069 	li	v1,105
7f009df4:	24020062 	li	v0,98
7f009df8:	0bc02784 	j	7f009e10 <main+0x188>
7f009dfc:	a382805c 	sb	v0,-32676(gp)
7f009e00:	14430004 	bne	v0,v1,7f009e14 <main+0x18c>
7f009e04:	3c037f01 	lui	v1,0x7f01
7f009e08:	24020069 	li	v0,105
7f009e0c:	a382805c 	sb	v0,-32676(gp)
7f009e10:	3c037f01 	lui	v1,0x7f01
7f009e14:	2463ed64 	addiu	v1,v1,-4764
7f009e18:	8c620014 	lw	v0,20(v1)
7f009e1c:	2442ffff 	addiu	v0,v0,-1
7f009e20:	04400008 	bltz	v0,7f009e44 <main+0x1bc>
7f009e24:	ac620014 	sw	v0,20(v1)
7f009e28:	00601021 	move	v0,v1
7f009e2c:	8c630018 	lw	v1,24(v1)
7f009e30:	2404000a 	li	a0,10
7f009e34:	a0640000 	sb	a0,0(v1)
7f009e38:	24630001 	addiu	v1,v1,1
7f009e3c:	0bc027ab 	j	7f009eac <main+0x224>
7f009e40:	ac430018 	sw	v1,24(v0)
7f009e44:	3c037f01 	lui	v1,0x7f01
7f009e48:	9463ed88 	lhu	v1,-4728(v1)
7f009e4c:	30630080 	andi	v1,v1,0x80
7f009e50:	10600012 	beqz	v1,7f009e9c <main+0x214>
7f009e54:	00021023 	negu	v0,v0
7f009e58:	3c037f01 	lui	v1,0x7f01
7f009e5c:	8c63ed84 	lw	v1,-4732(v1)
7f009e60:	0043102a 	slt	v0,v0,v1
7f009e64:	5040000e 	beqzl	v0,7f009ea0 <main+0x218>
7f009e68:	2404000a 	li	a0,10
7f009e6c:	3c027f01 	lui	v0,0x7f01
7f009e70:	2442ed64 	addiu	v0,v0,-4764
7f009e74:	8c430018 	lw	v1,24(v0)
7f009e78:	2404000a 	li	a0,10
7f009e7c:	a0640000 	sb	a0,0(v1)
7f009e80:	8c420018 	lw	v0,24(v0)
7f009e84:	90440000 	lbu	a0,0(v0)
7f009e88:	3c057f01 	lui	a1,0x7f01
7f009e8c:	77c02a09 	jalx	7f00a824 <_flsbuf>
7f009e90:	24a5ed78 	addiu	a1,a1,-4744
7f009e94:	0bc027ac 	j	7f009eb0 <main+0x228>
7f009e98:	3c047f01 	lui	a0,0x7f01
7f009e9c:	2404000a 	li	a0,10
7f009ea0:	3c057f01 	lui	a1,0x7f01
7f009ea4:	77c02a09 	jalx	7f00a824 <_flsbuf>
7f009ea8:	24a5ed78 	addiu	a1,a1,-4744
7f009eac:	3c047f01 	lui	a0,0x7f01
7f009eb0:	2484e91c 	addiu	a0,a0,-5860
7f009eb4:	24050001 	li	a1,1
7f009eb8:	24060016 	li	a2,22
7f009ebc:	3c107f01 	lui	s0,0x7f01
7f009ec0:	77c02ab9 	jalx	7f00aae4 <fwrite>
7f009ec4:	2607ed78 	addiu	a3,s0,-4744
7f009ec8:	3c047f01 	lui	a0,0x7f01
7f009ecc:	2484e934 	addiu	a0,a0,-5836
7f009ed0:	24050001 	li	a1,1
7f009ed4:	24060026 	li	a2,38
7f009ed8:	77c02ab9 	jalx	7f00aae4 <fwrite>
7f009edc:	2607ed78 	addiu	a3,s0,-4744
7f009ee0:	77c02af1 	jalx	7f00abc4 <gets>
7f009ee4:	27a4003c 	addiu	a0,sp,60
7f009ee8:	3c037f01 	lui	v1,0x7f01
7f009eec:	2463ed64 	addiu	v1,v1,-4764
7f009ef0:	8c620014 	lw	v0,20(v1)
7f009ef4:	2442ffff 	addiu	v0,v0,-1
7f009ef8:	04400008 	bltz	v0,7f009f1c <main+0x294>
7f009efc:	ac620014 	sw	v0,20(v1)
7f009f00:	00601021 	move	v0,v1
7f009f04:	8c630018 	lw	v1,24(v1)
7f009f08:	2404000a 	li	a0,10
7f009f0c:	a0640000 	sb	a0,0(v1)
7f009f10:	24630001 	addiu	v1,v1,1
7f009f14:	0bc027e1 	j	7f009f84 <main+0x2fc>
7f009f18:	ac430018 	sw	v1,24(v0)
7f009f1c:	3c037f01 	lui	v1,0x7f01
7f009f20:	9463ed88 	lhu	v1,-4728(v1)
7f009f24:	30630080 	andi	v1,v1,0x80
7f009f28:	10600012 	beqz	v1,7f009f74 <main+0x2ec>
7f009f2c:	00021023 	negu	v0,v0
7f009f30:	3c037f01 	lui	v1,0x7f01
7f009f34:	8c63ed84 	lw	v1,-4732(v1)
7f009f38:	0043102a 	slt	v0,v0,v1
7f009f3c:	1040000e 	beqz	v0,7f009f78 <main+0x2f0>
7f009f40:	2404000a 	li	a0,10
7f009f44:	3c027f01 	lui	v0,0x7f01
7f009f48:	2442ed64 	addiu	v0,v0,-4764
7f009f4c:	8c430018 	lw	v1,24(v0)
7f009f50:	2404000a 	li	a0,10
7f009f54:	a0640000 	sb	a0,0(v1)
7f009f58:	8c420018 	lw	v0,24(v0)
7f009f5c:	90440000 	lbu	a0,0(v0)
7f009f60:	3c057f01 	lui	a1,0x7f01
7f009f64:	77c02a09 	jalx	7f00a824 <_flsbuf>
7f009f68:	24a5ed78 	addiu	a1,a1,-4744
7f009f6c:	0bc027e2 	j	7f009f88 <main+0x300>
7f009f70:	83a3003c 	lb	v1,60(sp)
7f009f74:	2404000a 	li	a0,10
7f009f78:	3c057f01 	lui	a1,0x7f01
7f009f7c:	77c02a09 	jalx	7f00a824 <_flsbuf>
7f009f80:	24a5ed78 	addiu	a1,a1,-4744
7f009f84:	83a3003c 	lb	v1,60(sp)
7f009f88:	24020079 	li	v0,121
7f009f8c:	14620003 	bne	v1,v0,7f009f9c <main+0x314>
7f009f90:	3c047f01 	lui	a0,0x7f01
7f009f94:	24020001 	li	v0,1
7f009f98:	af82801c 	sw	v0,-32740(gp)
7f009f9c:	2484e95c 	addiu	a0,a0,-5796
7f009fa0:	24050001 	li	a1,1
7f009fa4:	2406001c 	li	a2,28
7f009fa8:	3c077f01 	lui	a3,0x7f01
7f009fac:	77c02ab9 	jalx	7f00aae4 <fwrite>
7f009fb0:	24e7ed78 	addiu	a3,a3,-4744
7f009fb4:	77c02af1 	jalx	7f00abc4 <gets>
7f009fb8:	27a4003c 	addiu	a0,sp,60
7f009fbc:	3c037f01 	lui	v1,0x7f01
7f009fc0:	2463ed64 	addiu	v1,v1,-4764
7f009fc4:	8c620014 	lw	v0,20(v1)
7f009fc8:	2442ffff 	addiu	v0,v0,-1
7f009fcc:	04400008 	bltz	v0,7f009ff0 <main+0x368>
7f009fd0:	ac620014 	sw	v0,20(v1)
7f009fd4:	00601021 	move	v0,v1
7f009fd8:	8c630018 	lw	v1,24(v1)
7f009fdc:	2404000a 	li	a0,10
7f009fe0:	a0640000 	sb	a0,0(v1)
7f009fe4:	24630001 	addiu	v1,v1,1
7f009fe8:	0bc02816 	j	7f00a058 <main+0x3d0>
7f009fec:	ac430018 	sw	v1,24(v0)
7f009ff0:	3c037f01 	lui	v1,0x7f01
7f009ff4:	9463ed88 	lhu	v1,-4728(v1)
7f009ff8:	30630080 	andi	v1,v1,0x80
7f009ffc:	10600012 	beqz	v1,7f00a048 <main+0x3c0>
7f00a000:	00021023 	negu	v0,v0
7f00a004:	3c037f01 	lui	v1,0x7f01
7f00a008:	8c63ed84 	lw	v1,-4732(v1)
7f00a00c:	0043102a 	slt	v0,v0,v1
7f00a010:	1040000e 	beqz	v0,7f00a04c <main+0x3c4>
7f00a014:	2404000a 	li	a0,10
7f00a018:	3c027f01 	lui	v0,0x7f01
7f00a01c:	2442ed64 	addiu	v0,v0,-4764
7f00a020:	8c430018 	lw	v1,24(v0)
7f00a024:	2404000a 	li	a0,10
7f00a028:	a0640000 	sb	a0,0(v1)
7f00a02c:	8c420018 	lw	v0,24(v0)
7f00a030:	90440000 	lbu	a0,0(v0)
7f00a034:	3c057f01 	lui	a1,0x7f01
7f00a038:	77c02a09 	jalx	7f00a824 <_flsbuf>
7f00a03c:	24a5ed78 	addiu	a1,a1,-4744
7f00a040:	0bc02817 	j	7f00a05c <main+0x3d4>
7f00a044:	83a3003c 	lb	v1,60(sp)
7f00a048:	2404000a 	li	a0,10
7f00a04c:	3c057f01 	lui	a1,0x7f01
7f00a050:	77c02a09 	jalx	7f00a824 <_flsbuf>
7f00a054:	24a5ed78 	addiu	a1,a1,-4744
7f00a058:	83a3003c 	lb	v1,60(sp)
7f00a05c:	24020079 	li	v0,121
7f00a060:	1062004c 	beq	v1,v0,7f00a194 <main+0x50c>
7f00a064:	8f82800c 	lw	v0,-32756(gp)
7f00a068:	0fc024df 	jal	7f00937c <roll>
7f00a06c:	00002021 	move	a0,zero
7f00a070:	3c107f01 	lui	s0,0x7f01
7f00a074:	2604ed78 	addiu	a0,s0,-4744
7f00a078:	3c057f01 	lui	a1,0x7f01
7f00a07c:	24a5e97c 	addiu	a1,a1,-5764
7f00a080:	8f868060 	lw	a2,-32672(gp)
7f00a084:	77c02a86 	jalx	7f00aa18 <fprintf>
7f00a088:	8f878054 	lw	a3,-32684(gp)
7f00a08c:	3c047f01 	lui	a0,0x7f01
7f00a090:	2484e990 	addiu	a0,a0,-5744
7f00a094:	24050001 	li	a1,1
7f00a098:	24060010 	li	a2,16
7f00a09c:	77c02ab9 	jalx	7f00aae4 <fwrite>
7f00a0a0:	2607ed78 	addiu	a3,s0,-4744
7f00a0a4:	3c047f01 	lui	a0,0x7f01
7f00a0a8:	2484ec7c 	addiu	a0,a0,-4996
7f00a0ac:	3c057f01 	lui	a1,0x7f01
7f00a0b0:	0fc02461 	jal	7f009184 <nextmove>
7f00a0b4:	24a5ec00 	addiu	a1,a1,-5120
7f00a0b8:	2403ffff 	li	v1,-1
7f00a0bc:	10430034 	beq	v0,v1,7f00a190 <main+0x508>
7f00a0c0:	3c047f01 	lui	a0,0x7f01
7f00a0c4:	2484ec7c 	addiu	a0,a0,-4996
7f00a0c8:	00002821 	move	a1,zero
7f00a0cc:	0fc02017 	jal	7f00805c <piececount>
7f00a0d0:	24060018 	li	a2,24
7f00a0d4:	1440002f 	bnez	v0,7f00a194 <main+0x50c>
7f00a0d8:	8f82800c 	lw	v0,-32756(gp)
7f00a0dc:	3c047f01 	lui	a0,0x7f01
7f00a0e0:	2484e9a4 	addiu	a0,a0,-5724
7f00a0e4:	24050001 	li	a1,1
7f00a0e8:	2406000a 	li	a2,10
7f00a0ec:	77c02ab9 	jalx	7f00aae4 <fwrite>
7f00a0f0:	2607ed78 	addiu	a3,s0,-4744
7f00a0f4:	3c047f01 	lui	a0,0x7f01
7f00a0f8:	2484ec00 	addiu	a0,a0,-5120
7f00a0fc:	00002821 	move	a1,zero
7f00a100:	0fc02017 	jal	7f00805c <piececount>
7f00a104:	24060006 	li	a2,6
7f00a108:	50400009 	beqzl	v0,7f00a130 <main+0x4a8>
7f00a10c:	3c047f01 	lui	a0,0x7f01
7f00a110:	3c047f01 	lui	a0,0x7f01
7f00a114:	2484e9b0 	addiu	a0,a0,-5712
7f00a118:	24050001 	li	a1,1
7f00a11c:	24060014 	li	a2,20
7f00a120:	77c02ab9 	jalx	7f00aae4 <fwrite>
7f00a124:	2607ed78 	addiu	a3,s0,-4744
7f00a128:	0bc02862 	j	7f00a188 <main+0x500>
7f00a12c:	00000000 	nop
7f00a130:	2484ec00 	addiu	a0,a0,-5120
7f00a134:	00002821 	move	a1,zero
7f00a138:	0fc02017 	jal	7f00805c <piececount>
7f00a13c:	24060018 	li	a2,24
7f00a140:	24030018 	li	v1,24
7f00a144:	5443000a 	bnel	v0,v1,7f00a170 <main+0x4e8>
7f00a148:	3c047f01 	lui	a0,0x7f01
7f00a14c:	3c047f01 	lui	a0,0x7f01
7f00a150:	2484e9c8 	addiu	a0,a0,-5688
7f00a154:	24050001 	li	a1,1
7f00a158:	24060010 	li	a2,16
7f00a15c:	3c077f01 	lui	a3,0x7f01
7f00a160:	77c02ab9 	jalx	7f00aae4 <fwrite>
7f00a164:	24e7ed78 	addiu	a3,a3,-4744
7f00a168:	0bc02862 	j	7f00a188 <main+0x500>
7f00a16c:	00000000 	nop
7f00a170:	2484ea10 	addiu	a0,a0,-5616
7f00a174:	24050001 	li	a1,1
7f00a178:	24060002 	li	a2,2
7f00a17c:	3c077f01 	lui	a3,0x7f01
7f00a180:	77c02ab9 	jalx	7f00aae4 <fwrite>
7f00a184:	24e7ed78 	addiu	a3,a3,-4744
7f00a188:	77c0299f 	jalx	7f00a67c <exit>
7f00a18c:	00002021 	move	a0,zero
7f00a190:	8f82800c 	lw	v0,-32756(gp)
7f00a194:	10400003 	beqz	v0,7f00a1a4 <main+0x51c>
7f00a198:	00000000 	nop
7f00a19c:	0fc025b1 	jal	7f0096c4 <prtbrd>
7f00a1a0:	00000000 	nop
7f00a1a4:	0fc024df 	jal	7f00937c <roll>
7f00a1a8:	24040001 	li	a0,1
7f00a1ac:	3c107f01 	lui	s0,0x7f01
7f00a1b0:	2610ed78 	addiu	s0,s0,-4744
7f00a1b4:	3c117f01 	lui	s1,0x7f01
7f00a1b8:	2631e9dc 	addiu	s1,s1,-5668
7f00a1bc:	3c127f01 	lui	s2,0x7f01
7f00a1c0:	2652e9f4 	addiu	s2,s2,-5644
7f00a1c4:	3c167f01 	lui	s6,0x7f01
7f00a1c8:	3c177f01 	lui	s7,0x7f01
7f00a1cc:	26f7eb10 	addiu	s7,s7,-5360
7f00a1d0:	3c157f01 	lui	s5,0x7f01
7f00a1d4:	02002021 	move	a0,s0
7f00a1d8:	02202821 	move	a1,s1
7f00a1dc:	8f868060 	lw	a2,-32672(gp)
7f00a1e0:	77c02a86 	jalx	7f00aa18 <fprintf>
7f00a1e4:	8f878054 	lw	a3,-32684(gp)
7f00a1e8:	02402021 	move	a0,s2
7f00a1ec:	24050001 	li	a1,1
7f00a1f0:	24060006 	li	a2,6
7f00a1f4:	77c02ab9 	jalx	7f00aae4 <fwrite>
7f00a1f8:	02003821 	move	a3,s0
7f00a1fc:	77c02af1 	jalx	7f00abc4 <gets>
7f00a200:	27a4003c 	addiu	a0,sp,60
7f00a204:	83a2003c 	lb	v0,60(sp)
7f00a208:	24030070 	li	v1,112
7f00a20c:	1043003a 	beq	v0,v1,7f00a2f8 <main+0x670>
7f00a210:	28430071 	slti	v1,v0,113
7f00a214:	10600013 	beqz	v1,7f00a264 <main+0x5dc>
7f00a218:	24030072 	li	v1,114
7f00a21c:	24030062 	li	v1,98
7f00a220:	10430020 	beq	v0,v1,7f00a2a4 <main+0x61c>
7f00a224:	28430063 	slti	v1,v0,99
7f00a228:	1060000a 	beqz	v1,7f00a254 <main+0x5cc>
7f00a22c:	2403006d 	li	v1,109
7f00a230:	24030021 	li	v1,33
7f00a234:	1043003f 	beq	v0,v1,7f00a334 <main+0x6ac>
7f00a238:	2403003f 	li	v1,63
7f00a23c:	50430062 	beql	v0,v1,7f00a3c8 <main+0x740>
7f00a240:	3c047f01 	lui	a0,0x7f01
7f00a244:	1040000f 	beqz	v0,7f00a284 <main+0x5fc>
7f00a248:	3c047f01 	lui	a0,0x7f01
7f00a24c:	0bc0291d 	j	7f00a474 <main+0x7ec>
7f00a250:	27a20028 	addiu	v0,sp,40
7f00a254:	14430087 	bne	v0,v1,7f00a474 <main+0x7ec>
7f00a258:	27a20028 	addiu	v0,sp,40
7f00a25c:	0bc028c7 	j	7f00a31c <main+0x694>
7f00a260:	00000000 	nop
7f00a264:	1043002a 	beq	v0,v1,7f00a310 <main+0x688>
7f00a268:	28430072 	slti	v1,v0,114
7f00a26c:	1460002f 	bnez	v1,7f00a32c <main+0x6a4>
7f00a270:	24030073 	li	v1,115
7f00a274:	1443007f 	bne	v0,v1,7f00a474 <main+0x7ec>
7f00a278:	27a20028 	addiu	v0,sp,40
7f00a27c:	0bc028c2 	j	7f00a308 <main+0x680>
7f00a280:	af80800c 	sw	zero,-32756(gp)
7f00a284:	2484e9fc 	addiu	a0,a0,-5636
7f00a288:	24050001 	li	a1,1
7f00a28c:	24060016 	li	a2,22
7f00a290:	3c077f01 	lui	a3,0x7f01
7f00a294:	77c02ab9 	jalx	7f00aae4 <fwrite>
7f00a298:	24e7ed78 	addiu	a3,a3,-4744
7f00a29c:	0bc0281a 	j	7f00a068 <main+0x3e0>
7f00a2a0:	00000000 	nop
7f00a2a4:	26a4ec00 	addiu	a0,s5,-5120
7f00a2a8:	00002821 	move	a1,zero
7f00a2ac:	0fc02017 	jal	7f00805c <piececount>
7f00a2b0:	24060018 	li	a2,24
7f00a2b4:	02002021 	move	a0,s0
7f00a2b8:	3c057f01 	lui	a1,0x7f01
7f00a2bc:	24a5ea14 	addiu	a1,a1,-5612
7f00a2c0:	77c02a86 	jalx	7f00aa18 <fprintf>
7f00a2c4:	2446fff1 	addiu	a2,v0,-15
7f00a2c8:	3c047f01 	lui	a0,0x7f01
7f00a2cc:	2484ec7c 	addiu	a0,a0,-4996
7f00a2d0:	00002821 	move	a1,zero
7f00a2d4:	0fc02017 	jal	7f00805c <piececount>
7f00a2d8:	24060018 	li	a2,24
7f00a2dc:	02002021 	move	a0,s0
7f00a2e0:	3c057f01 	lui	a1,0x7f01
7f00a2e4:	24a5ea24 	addiu	a1,a1,-5596
7f00a2e8:	77c02a86 	jalx	7f00aa18 <fprintf>
7f00a2ec:	2446fff1 	addiu	a2,v0,-15
7f00a2f0:	0bc02876 	j	7f00a1d8 <main+0x550>
7f00a2f4:	02002021 	move	a0,s0
7f00a2f8:	0fc025b1 	jal	7f0096c4 <prtbrd>
7f00a2fc:	00000000 	nop
7f00a300:	0bc02876 	j	7f00a1d8 <main+0x550>
7f00a304:	02002021 	move	a0,s0
7f00a308:	0bc02876 	j	7f00a1d8 <main+0x550>
7f00a30c:	02002021 	move	a0,s0
7f00a310:	24020001 	li	v0,1
7f00a314:	0bc02875 	j	7f00a1d4 <main+0x54c>
7f00a318:	af82800c 	sw	v0,-32756(gp)
7f00a31c:	0fc0248e 	jal	7f009238 <pmoves>
7f00a320:	00000000 	nop
7f00a324:	0bc02876 	j	7f00a1d8 <main+0x550>
7f00a328:	02002021 	move	a0,s0
7f00a32c:	77c0299f 	jalx	7f00a67c <exit>
7f00a330:	00002021 	move	a0,zero
7f00a334:	83a2003d 	lb	v0,61(sp)
7f00a338:	10400005 	beqz	v0,7f00a350 <main+0x6c8>
7f00a33c:	00000000 	nop
7f00a340:	77c02bb2 	jalx	7f00aec8 <system>
7f00a344:	27a4003d 	addiu	a0,sp,61
7f00a348:	0bc02876 	j	7f00a1d8 <main+0x550>
7f00a34c:	02002021 	move	a0,s0
7f00a350:	0fc02a81 	jal	7f00aa04 <fork>
7f00a354:	00000000 	nop
7f00a358:	14400012 	bnez	v0,7f00a3a4 <main+0x71c>
7f00a35c:	00409821 	move	s3,v0
7f00a360:	3c047f01 	lui	a0,0x7f01
7f00a364:	2484ea34 	addiu	a0,a0,-5580
7f00a368:	3c057f01 	lui	a1,0x7f01
7f00a36c:	24a5ea3c 	addiu	a1,a1,-5572
7f00a370:	3c067f01 	lui	a2,0x7f01
7f00a374:	24c6ea40 	addiu	a2,a2,-5568
7f00a378:	77c02995 	jalx	7f00a654 <execl>
7f00a37c:	00003821 	move	a3,zero
7f00a380:	3c047f01 	lui	a0,0x7f01
7f00a384:	2484ea44 	addiu	a0,a0,-5564
7f00a388:	24050001 	li	a1,1
7f00a38c:	2406001b 	li	a2,27
7f00a390:	3c077f01 	lui	a3,0x7f01
7f00a394:	77c02ab9 	jalx	7f00aae4 <fwrite>
7f00a398:	24e7ed8c 	addiu	a3,a3,-4724
7f00a39c:	77c0299f 	jalx	7f00a67c <exit>
7f00a3a0:	24040002 	li	a0,2
7f00a3a4:	2414ffff 	li	s4,-1
7f00a3a8:	77c02bed 	jalx	7f00afb4 <wait>
7f00a3ac:	27a40038 	addiu	a0,sp,56
7f00a3b0:	1053ff89 	beq	v0,s3,7f00a1d8 <main+0x550>
7f00a3b4:	02002021 	move	a0,s0
7f00a3b8:	1454fffb 	bne	v0,s4,7f00a3a8 <main+0x720>
7f00a3bc:	02202821 	move	a1,s1
7f00a3c0:	0bc02877 	j	7f00a1dc <main+0x554>
7f00a3c4:	00000000 	nop
7f00a3c8:	2484ea60 	addiu	a0,a0,-5536
7f00a3cc:	24050001 	li	a1,1
7f00a3d0:	24060019 	li	a2,25
7f00a3d4:	77c02ab9 	jalx	7f00aae4 <fwrite>
7f00a3d8:	02003821 	move	a3,s0
7f00a3dc:	3c047f01 	lui	a0,0x7f01
7f00a3e0:	2484ea7c 	addiu	a0,a0,-5508
7f00a3e4:	24050001 	li	a1,1
7f00a3e8:	24060015 	li	a2,21
7f00a3ec:	77c02ab9 	jalx	7f00aae4 <fwrite>
7f00a3f0:	02003821 	move	a3,s0
7f00a3f4:	3c047f01 	lui	a0,0x7f01
7f00a3f8:	2484ea94 	addiu	a0,a0,-5484
7f00a3fc:	24050001 	li	a1,1
7f00a400:	2406000f 	li	a2,15
7f00a404:	77c02ab9 	jalx	7f00aae4 <fwrite>
7f00a408:	02003821 	move	a3,s0
7f00a40c:	3c047f01 	lui	a0,0x7f01
7f00a410:	2484eaa4 	addiu	a0,a0,-5468
7f00a414:	24050001 	li	a1,1
7f00a418:	24060008 	li	a2,8
7f00a41c:	77c02ab9 	jalx	7f00aae4 <fwrite>
7f00a420:	02003821 	move	a3,s0
7f00a424:	3c047f01 	lui	a0,0x7f01
7f00a428:	2484eab0 	addiu	a0,a0,-5456
7f00a42c:	24050001 	li	a1,1
7f00a430:	2406001e 	li	a2,30
7f00a434:	77c02ab9 	jalx	7f00aae4 <fwrite>
7f00a438:	02003821 	move	a3,s0
7f00a43c:	3c047f01 	lui	a0,0x7f01
7f00a440:	2484ead0 	addiu	a0,a0,-5424
7f00a444:	24050001 	li	a1,1
7f00a448:	2406001c 	li	a2,28
7f00a44c:	77c02ab9 	jalx	7f00aae4 <fwrite>
7f00a450:	02003821 	move	a3,s0
7f00a454:	3c047f01 	lui	a0,0x7f01
7f00a458:	2484eaf0 	addiu	a0,a0,-5392
7f00a45c:	24050001 	li	a1,1
7f00a460:	24060013 	li	a2,19
7f00a464:	77c02ab9 	jalx	7f00aae4 <fwrite>
7f00a468:	02003821 	move	a3,s0
7f00a46c:	0bc02876 	j	7f00a1d8 <main+0x550>
7f00a470:	02002021 	move	a0,s0
7f00a474:	afa20010 	sw	v0,16(sp)
7f00a478:	27a2002c 	addiu	v0,sp,44
7f00a47c:	afa20014 	sw	v0,20(sp)
7f00a480:	27a20030 	addiu	v0,sp,48
7f00a484:	afa20018 	sw	v0,24(sp)
7f00a488:	27a4003c 	addiu	a0,sp,60
7f00a48c:	26c5eb04 	addiu	a1,s6,-5372
7f00a490:	27a60020 	addiu	a2,sp,32
7f00a494:	77c02ba7 	jalx	7f00ae9c <sscanf>
7f00a498:	27a70024 	addiu	a3,sp,36
7f00a49c:	8f838060 	lw	v1,-32672(gp)
7f00a4a0:	8f848054 	lw	a0,-32684(gp)
7f00a4a4:	10640003 	beq	v1,a0,7f00a4b4 <main+0x82c>
7f00a4a8:	28450003 	slti	a1,v0,3
7f00a4ac:	50a00005 	beqzl	a1,7f00a4c4 <main+0x83c>
7f00a4b0:	02e02021 	move	a0,s7
7f00a4b4:	28450005 	slti	a1,v0,5
7f00a4b8:	14a00008 	bnez	a1,7f00a4dc <main+0x854>
7f00a4bc:	00022880 	sll	a1,v0,0x2
7f00a4c0:	02e02021 	move	a0,s7
7f00a4c4:	24050001 	li	a1,1
7f00a4c8:	24060010 	li	a2,16
7f00a4cc:	77c02ab9 	jalx	7f00aae4 <fwrite>
7f00a4d0:	02003821 	move	a3,s0
7f00a4d4:	0bc02876 	j	7f00a1d8 <main+0x550>
7f00a4d8:	02002021 	move	a0,s0
7f00a4dc:	03a52821 	addu	a1,sp,a1
7f00a4e0:	2406ffff 	li	a2,-1
7f00a4e4:	aca60020 	sw	a2,32(a1)
7f00a4e8:	83a6003c 	lb	a2,60(sp)
7f00a4ec:	2405002d 	li	a1,45
7f00a4f0:	14c50005 	bne	a2,a1,7f00a508 <main+0x880>
7f00a4f4:	8fa50020 	lw	a1,32(sp)
7f00a4f8:	00052823 	negu	a1,a1
7f00a4fc:	afa50020 	sw	a1,32(sp)
7f00a500:	af848060 	sw	a0,-32672(gp)
7f00a504:	af838054 	sw	v1,-32684(gp)
7f00a508:	1c400012 	bgtz	v0,7f00a554 <main+0x8cc>
7f00a50c:	8fa60020 	lw	a2,32(sp)
7f00a510:	0bc0295a 	j	7f00a568 <main+0x8e0>
7f00a514:	26a4ec00 	addiu	a0,s5,-5120
7f00a518:	2cc50019 	sltiu	a1,a2,25
7f00a51c:	10a00007 	beqz	a1,7f00a53c <main+0x8b4>
7f00a520:	24840004 	addiu	a0,a0,4
7f00a524:	24630001 	addiu	v1,v1,1
7f00a528:	0062282a 	slt	a1,v1,v0
7f00a52c:	54a0fffa 	bnezl	a1,7f00a518 <main+0x890>
7f00a530:	8c860000 	lw	a2,0(a0)
7f00a534:	0bc0295a 	j	7f00a568 <main+0x8e0>
7f00a538:	26a4ec00 	addiu	a0,s5,-5120
7f00a53c:	02002021 	move	a0,s0
7f00a540:	3c057f01 	lui	a1,0x7f01
7f00a544:	77c02a86 	jalx	7f00aa18 <fprintf>
7f00a548:	24a5e7bc 	addiu	a1,a1,-6212
7f00a54c:	0bc02876 	j	7f00a1d8 <main+0x550>
7f00a550:	02002021 	move	a0,s0
7f00a554:	2cc30019 	sltiu	v1,a2,25
7f00a558:	1060fff8 	beqz	v1,7f00a53c <main+0x8b4>
7f00a55c:	00001821 	move	v1,zero
7f00a560:	0bc02949 	j	7f00a524 <main+0x89c>
7f00a564:	27a40024 	addiu	a0,sp,36
7f00a568:	3c057f01 	lui	a1,0x7f01
7f00a56c:	24a5ec7c 	addiu	a1,a1,-4996
7f00a570:	0fc02025 	jal	7f008094 <play>
7f00a574:	27a60020 	addiu	a2,sp,32
7f00a578:	1440ff17 	bnez	v0,7f00a1d8 <main+0x550>
7f00a57c:	02002021 	move	a0,s0
7f00a580:	3c047f01 	lui	a0,0x7f01
7f00a584:	2484ec00 	addiu	a0,a0,-5120
7f00a588:	00002821 	move	a1,zero
7f00a58c:	0fc02017 	jal	7f00805c <piececount>
7f00a590:	24060018 	li	a2,24
7f00a594:	1440feb4 	bnez	v0,7f00a068 <main+0x3e0>
7f00a598:	3c047f01 	lui	a0,0x7f01
7f00a59c:	2484eb24 	addiu	a0,a0,-5340
7f00a5a0:	24050001 	li	a1,1
7f00a5a4:	2406000a 	li	a2,10
7f00a5a8:	3c077f01 	lui	a3,0x7f01
7f00a5ac:	77c02ab9 	jalx	7f00aae4 <fwrite>
7f00a5b0:	24e7ed78 	addiu	a3,a3,-4744
7f00a5b4:	3c047f01 	lui	a0,0x7f01
7f00a5b8:	2484ec7c 	addiu	a0,a0,-4996
7f00a5bc:	00002821 	move	a1,zero
7f00a5c0:	0fc02017 	jal	7f00805c <piececount>
7f00a5c4:	24060006 	li	a2,6
7f00a5c8:	5040000a 	beqzl	v0,7f00a5f4 <main+0x96c>
7f00a5cc:	3c047f01 	lui	a0,0x7f01
7f00a5d0:	3c047f01 	lui	a0,0x7f01
7f00a5d4:	2484eb30 	addiu	a0,a0,-5328
7f00a5d8:	24050001 	li	a1,1
7f00a5dc:	24060014 	li	a2,20
7f00a5e0:	3c077f01 	lui	a3,0x7f01
7f00a5e4:	77c02ab9 	jalx	7f00aae4 <fwrite>
7f00a5e8:	24e7ed78 	addiu	a3,a3,-4744
7f00a5ec:	0bc02993 	j	7f00a64c <main+0x9c4>
7f00a5f0:	00000000 	nop
7f00a5f4:	2484ec7c 	addiu	a0,a0,-4996
7f00a5f8:	00002821 	move	a1,zero
7f00a5fc:	0fc02017 	jal	7f00805c <piececount>
7f00a600:	24060018 	li	a2,24
7f00a604:	24030018 	li	v1,24
7f00a608:	5443000a 	bnel	v0,v1,7f00a634 <main+0x9ac>
7f00a60c:	3c047f01 	lui	a0,0x7f01
7f00a610:	3c047f01 	lui	a0,0x7f01
7f00a614:	2484eb48 	addiu	a0,a0,-5304
7f00a618:	24050001 	li	a1,1
7f00a61c:	24060010 	li	a2,16
7f00a620:	3c077f01 	lui	a3,0x7f01
7f00a624:	77c02ab9 	jalx	7f00aae4 <fwrite>
7f00a628:	24e7ed78 	addiu	a3,a3,-4744
7f00a62c:	0bc02993 	j	7f00a64c <main+0x9c4>
7f00a630:	00000000 	nop
7f00a634:	2484ea10 	addiu	a0,a0,-5616
7f00a638:	24050001 	li	a1,1
7f00a63c:	24060002 	li	a2,2
7f00a640:	3c077f01 	lui	a3,0x7f01
7f00a644:	77c02ab9 	jalx	7f00aae4 <fwrite>
7f00a648:	24e7ed78 	addiu	a3,a3,-4744
7f00a64c:	77c0299f 	jalx	7f00a67c <exit>
7f00a650:	00002021 	move	a0,zero

7f00a654 <execl>:
7f00a654:	675c      	move	v0,gp
7f00a656:	f00e 64c3 	save	a0-a3,24,ra
7f00a65a:	f050 9ac8 	lw	a2,-32696(v0)
7f00a65e:	1c1e 299a 	jalx	7f00a668 <execve>
7f00a662:	0507      	addiu	a1,sp,28
7f00a664:	6443      	restore	24,ra
7f00a666:	e8a0      	jrc	ra

7f00a668 <execve>:
7f00a668:	00000ecc 	syscall	0x3b
7f00a66c:	3c097f01 	lui	t1,0x7f01
7f00a670:	ad28f160 	sw	t0,-3744(t1)
7f00a674:	03e00008 	jr	ra
7f00a678:	00000000 	nop

7f00a67c <exit>:
7f00a67c:	675c      	move	v0,gp
7f00a67e:	64f4      	save	32,ra,s0-s1
7f00a680:	6724      	move	s1,a0
7f00a682:	f070 9a14 	lw	s0,-32652(v0)
7f00a686:	1003      	b	7f00a68e <exit+0x12>
7f00a688:	9841      	lw	v0,4(s0)
7f00a68a:	eac0      	jalrc	v0
7f00a68c:	9800      	lw	s0,0(s0)
7f00a68e:	28fc      	bnez	s0,7f00a688 <exit+0xc>
7f00a690:	181e 2a04 	jal	7f00a810 <_cleanup>
7f00a694:	6500      	nop
7f00a696:	1c1e 2c04 	jalx	7f00b010 <_exit>
7f00a69a:	6791      	move	a0,s1

7f00a69c <atexit>:
7f00a69c:	64f5      	save	40,ra,s0-s1
7f00a69e:	671c      	move	s0,gp
7f00a6a0:	f070 9834 	lw	s1,-32652(s0)
7f00a6a4:	6764      	move	v1,a0
7f00a6a6:	2108      	beqz	s1,7f00a6b8 <atexit+0x1c>
7f00a6a8:	6c08      	li	a0,8
7f00a6aa:	181e 2b09 	jal	7f00ac24 <malloc>
7f00a6ae:	d304      	sw	v1,16(sp)
7f00a6b0:	9304      	lw	v1,16(sp)
7f00a6b2:	220a      	beqz	v0,7f00a6c8 <atexit+0x2c>
7f00a6b4:	da20      	sw	s1,0(v0)
7f00a6b6:	1003      	b	7f00a6be <atexit+0x22>
7f00a6b8:	6750      	move	v0,s0
7f00a6ba:	f030 4a00 	addiu	v0,-32736
7f00a6be:	da61      	sw	v1,4(v0)
7f00a6c0:	f070 d854 	sw	v0,-32652(s0)
7f00a6c4:	6a00      	li	v0,0
7f00a6c6:	1002      	b	7f00a6cc <atexit+0x30>
7f00a6c8:	6a01      	li	v0,1
7f00a6ca:	ea4b      	neg	v0
7f00a6cc:	6475      	restore	40,ra,s0-s1
7f00a6ce:	e8a0      	jrc	ra
7f00a6d0:	e8a0      	jrc	ra
7f00a6d2:	6500      	nop

7f00a6d4 <_f_morefiles>:
7f00a6d4:	64f4      	save	32,ra,s0-s1
7f00a6d6:	1c1e 2aec 	jalx	7f00abb0 <getdtablesize>
7f00a6da:	673c      	move	s1,gp
7f00a6dc:	6782      	move	a0,v0
7f00a6de:	6d04      	li	a1,4
7f00a6e0:	181e 2c86 	jal	7f00b218 <calloc>
7f00a6e4:	6702      	move	s0,v0
7f00a6e6:	f030 d948 	sw	v0,-32728(s1)
7f00a6ea:	6b00      	li	v1,0
7f00a6ec:	2213      	beqz	v0,7f00a714 <_f_morefiles+0x40>
7f00a6ee:	3308      	sll	v1,s0,2
7f00a6f0:	e26d      	addu	v1,v0,v1
7f00a6f2:	4287      	addiu	a0,v0,7
7f00a6f4:	f030 d96c 	sw	v1,-32724(s1)
7f00a6f8:	4c49      	addiu	a0,73
7f00a6fa:	b309      	lw	v1,7f00a71c <_f_morefiles+0x48>
7f00a6fc:	da60      	sw	v1,0(v0)
7f00a6fe:	4a04      	addiu	v0,4
7f00a700:	ea8a      	cmp	v0,a0
7f00a702:	4b14      	addiu	v1,20
7f00a704:	61fb      	btnez	7f00a6fc <_f_morefiles+0x28>
7f00a706:	6790      	move	a0,s0
7f00a708:	181e 2c86 	jal	7f00b218 <calloc>
7f00a70c:	6d01      	li	a1,1
7f00a70e:	f010 d950 	sw	v0,-32752(s1)
7f00a712:	6b01      	li	v1,1
7f00a714:	6474      	restore	32,ra,s0-s1
7f00a716:	e820      	jr	ra
7f00a718:	6743      	move	v0,v1
7f00a71a:	6500      	nop
7f00a71c:	ed64      	sllv	v1,a1
7f00a71e:	7f00      	sd	s0,0(a3)

7f00a720 <_findiop>:
7f00a720:	64f4      	save	32,ra,s0-s1
7f00a722:	671c      	move	s0,gp
7f00a724:	f030 9848 	lw	v0,-32728(s0)
7f00a728:	2a10      	bnez	v0,7f00a74a <_findiop+0x2a>
7f00a72a:	b417      	lw	a0,7f00a784 <_findiop+0x64>
7f00a72c:	b217      	lw	v0,7f00a788 <_findiop+0x68>
7f00a72e:	aa68      	lhu	v1,16(v0)
7f00a730:	6dff      	li	a1,255
7f00a732:	4d04      	addiu	a1,4
7f00a734:	ebac      	and	v1,a1
7f00a736:	2324      	beqz	v1,7f00a780 <_findiop+0x60>
7f00a738:	4a14      	addiu	v0,20
7f00a73a:	ea8a      	cmp	v0,a0
7f00a73c:	61f8      	btnez	7f00a72e <_findiop+0xe>
7f00a73e:	181e 29b5 	jal	7f00a6d4 <_f_morefiles>
7f00a742:	6500      	nop
7f00a744:	2a02      	bnez	v0,7f00a74a <_findiop+0x2a>
7f00a746:	6a0c      	li	v0,12
7f00a748:	1009      	b	7f00a75c <_findiop+0x3c>
7f00a74a:	f030 9828 	lw	s1,-32728(s0)
7f00a74e:	f030 984c 	lw	v0,-32724(s0)
7f00a752:	1008      	b	7f00a764 <_findiop+0x44>
7f00a754:	4904      	addiu	s1,4
7f00a756:	e943      	sltu	s1,v0
7f00a758:	6105      	btnez	7f00a764 <_findiop+0x44>
7f00a75a:	6a18      	li	v0,24
7f00a75c:	f070 d850 	sw	v0,-32656(s0)
7f00a760:	6a00      	li	v0,0
7f00a762:	100e      	b	7f00a780 <_findiop+0x60>
7f00a764:	9960      	lw	v1,0(s1)
7f00a766:	2306      	beqz	v1,7f00a774 <_findiop+0x54>
7f00a768:	ab68      	lhu	v1,16(v1)
7f00a76a:	6cff      	li	a0,255
7f00a76c:	4c04      	addiu	a0,4
7f00a76e:	eb8c      	and	v1,a0
7f00a770:	2bf1      	bnez	v1,7f00a754 <_findiop+0x34>
7f00a772:	1005      	b	7f00a77e <_findiop+0x5e>
7f00a774:	6c01      	li	a0,1
7f00a776:	181e 2c86 	jal	7f00b218 <calloc>
7f00a77a:	6d14      	li	a1,20
7f00a77c:	d940      	sw	v0,0(s1)
7f00a77e:	9940      	lw	v0,0(s1)
7f00a780:	6474      	restore	32,ra,s0-s1
7f00a782:	e8a0      	jrc	ra
7f00a784:	eef4      	dsllv	a3,a2
7f00a786:	7f00      	sd	s0,0(a3)
7f00a788:	ed64      	sllv	v1,a1
7f00a78a:	7f00      	sd	s0,0(a3)

7f00a78c <f_prealloc>:
7f00a78c:	64f4      	save	32,ra,s0-s1
7f00a78e:	673c      	move	s1,gp
7f00a790:	f030 9948 	lw	v0,-32728(s1)
7f00a794:	2a04      	bnez	v0,7f00a79e <f_prealloc+0x12>
7f00a796:	181e 29b5 	jal	7f00a6d4 <_f_morefiles>
7f00a79a:	6500      	nop
7f00a79c:	220f      	beqz	v0,7f00a7bc <f_prealloc+0x30>
7f00a79e:	f030 9908 	lw	s0,-32728(s1)
7f00a7a2:	1008      	b	7f00a7b4 <f_prealloc+0x28>
7f00a7a4:	9840      	lw	v0,0(s0)
7f00a7a6:	2a05      	bnez	v0,7f00a7b2 <f_prealloc+0x26>
7f00a7a8:	6c01      	li	a0,1
7f00a7aa:	181e 2c86 	jal	7f00b218 <calloc>
7f00a7ae:	6d14      	li	a1,20
7f00a7b0:	d840      	sw	v0,0(s0)
7f00a7b2:	4804      	addiu	s0,4
7f00a7b4:	f030 994c 	lw	v0,-32724(s1)
7f00a7b8:	e843      	sltu	s0,v0
7f00a7ba:	61f4      	btnez	7f00a7a4 <f_prealloc+0x18>
7f00a7bc:	6474      	restore	32,ra,s0-s1
7f00a7be:	e8a0      	jrc	ra

7f00a7c0 <_fwalk>:
7f00a7c0:	f004 64f4 	save	a0,32,ra,s0-s1
7f00a7c4:	673c      	move	s1,gp
7f00a7c6:	f030 9908 	lw	s0,-32728(s1)
7f00a7ca:	2818      	bnez	s0,7f00a7fc <_fwalk+0x3c>
7f00a7cc:	b10f      	lw	s1,7f00a808 <_fwalk+0x48>
7f00a7ce:	b010      	lw	s0,7f00a80c <_fwalk+0x4c>
7f00a7d0:	a848      	lhu	v0,16(s0)
7f00a7d2:	6bff      	li	v1,255
7f00a7d4:	4b04      	addiu	v1,4
7f00a7d6:	ea6c      	and	v0,v1
7f00a7d8:	2203      	beqz	v0,7f00a7e0 <_fwalk+0x20>
7f00a7da:	9308      	lw	v1,32(sp)
7f00a7dc:	eb40      	jalr	v1
7f00a7de:	6790      	move	a0,s0
7f00a7e0:	4814      	addiu	s0,20
7f00a7e2:	e82a      	cmp	s0,s1
7f00a7e4:	61f5      	btnez	7f00a7d0 <_fwalk+0x10>
7f00a7e6:	100e      	b	7f00a804 <_fwalk+0x44>
7f00a7e8:	9880      	lw	a0,0(s0)
7f00a7ea:	2407      	beqz	a0,7f00a7fa <_fwalk+0x3a>
7f00a7ec:	ac48      	lhu	v0,16(a0)
7f00a7ee:	6bff      	li	v1,255
7f00a7f0:	4b04      	addiu	v1,4
7f00a7f2:	ea6c      	and	v0,v1
7f00a7f4:	2202      	beqz	v0,7f00a7fa <_fwalk+0x3a>
7f00a7f6:	9308      	lw	v1,32(sp)
7f00a7f8:	ebc0      	jalrc	v1
7f00a7fa:	4804      	addiu	s0,4
7f00a7fc:	f030 994c 	lw	v0,-32724(s1)
7f00a800:	e843      	sltu	s0,v0
7f00a802:	61f2      	btnez	7f00a7e8 <_fwalk+0x28>
7f00a804:	6474      	restore	32,ra,s0-s1
7f00a806:	e8a0      	jrc	ra
7f00a808:	eef4      	dsllv	a3,a2
7f00a80a:	7f00      	sd	s0,0(a3)
7f00a80c:	ed64      	sllv	v1,a1
7f00a80e:	7f00      	sd	s0,0(a3)

7f00a810 <_cleanup>:
7f00a810:	64c3      	save	24,ra
7f00a812:	b404      	lw	a0,7f00a820 <_cleanup+0x10>
7f00a814:	181e 29f0 	jal	7f00a7c0 <_fwalk>
7f00a818:	6500      	nop
7f00a81a:	6443      	restore	24,ra
7f00a81c:	e8a0      	jrc	ra
7f00a81e:	6500      	nop
7f00a820:	a9b1      	lhu	a1,34(s1)
7f00a822:	7f00      	sd	s0,0(a3)

7f00a824 <_flsbuf>:
7f00a824:	8d68      	lh	v1,16(a1)
7f00a826:	6aff      	li	v0,255
7f00a828:	4a01      	addiu	v0,1
7f00a82a:	64fe      	save	112,ra,s0-s1
7f00a82c:	ec11      	zeb	a0
7f00a82e:	ea6c      	and	v0,v1
7f00a830:	6705      	move	s0,a1
7f00a832:	d414      	sw	a0,80(sp)
7f00a834:	2206      	beqz	v0,7f00a842 <_flsbuf+0x1e>
7f00a836:	6a02      	li	v0,2
7f00a838:	ea6d      	or	v0,v1
7f00a83a:	6b12      	li	v1,18
7f00a83c:	eb6b      	neg	v1
7f00a83e:	ea6c      	and	v0,v1
7f00a840:	cd48      	sh	v0,16(a1)
7f00a842:	a848      	lhu	v0,16(s0)
7f00a844:	6b02      	li	v1,2
7f00a846:	ea6c      	and	v0,v1
7f00a848:	f080 2204 	beqz	v0,7f00a954 <_flsbuf+0x130>
7f00a84c:	a848      	lhu	v0,16(s0)
7f00a84e:	6b80      	li	v1,128
7f00a850:	eb4c      	and	v1,v0
7f00a852:	231e      	beqz	v1,7f00a890 <_flsbuf+0x6c>
7f00a854:	675d      	move	v0,sp
7f00a856:	98e1      	lw	a3,4(s0)
7f00a858:	f040 a250 	lbu	v0,80(v0)
7f00a85c:	9862      	lw	v1,8(s0)
7f00a85e:	c740      	sb	v0,0(a3)
7f00a860:	9843      	lw	v0,12(s0)
7f00a862:	4f01      	addiu	a3,1
7f00a864:	d8e1      	sw	a3,4(s0)
7f00a866:	e349      	addu	v0,v1,v0
7f00a868:	ef43      	sltu	a3,v0
7f00a86a:	6003      	bteqz	7f00a872 <_flsbuf+0x4e>
7f00a86c:	9414      	lw	a0,80(sp)
7f00a86e:	740a      	cmpi	a0,10
7f00a870:	616f      	btnez	7f00a950 <_flsbuf+0x12c>
7f00a872:	8889      	lh	a0,18(s0)
7f00a874:	e77f      	subu	a3,v1
7f00a876:	67a3      	move	a1,v1
7f00a878:	67c7      	move	a2,a3
7f00a87a:	d316      	sw	v1,88(sp)
7f00a87c:	1c1e 2bfa 	jalx	7f00afe8 <write>
7f00a880:	d715      	sw	a3,84(sp)
7f00a882:	9316      	lw	v1,88(sp)
7f00a884:	6722      	move	s1,v0
7f00a886:	6a00      	li	v0,0
7f00a888:	d861      	sw	v1,4(s0)
7f00a88a:	d840      	sw	v0,0(s0)
7f00a88c:	9715      	lw	a3,84(sp)
7f00a88e:	1059      	b	7f00a942 <_flsbuf+0x11e>
7f00a890:	6c04      	li	a0,4
7f00a892:	ea8c      	and	v0,a0
7f00a894:	220f      	beqz	v0,7f00a8b4 <_flsbuf+0x90>
7f00a896:	675d      	move	v0,sp
7f00a898:	f040 a290 	lbu	a0,80(v0)
7f00a89c:	0504      	addiu	a1,sp,16
7f00a89e:	6e01      	li	a2,1
7f00a8a0:	c290      	sb	a0,16(v0)
7f00a8a2:	8889      	lh	a0,18(s0)
7f00a8a4:	1c1e 2bfa 	jalx	7f00afe8 <write>
7f00a8a8:	d316      	sw	v1,88(sp)
7f00a8aa:	9316      	lw	v1,88(sp)
7f00a8ac:	6722      	move	s1,v0
7f00a8ae:	6f01      	li	a3,1
7f00a8b0:	d860      	sw	v1,0(s0)
7f00a8b2:	1047      	b	7f00a942 <_flsbuf+0x11e>
7f00a8b4:	9862      	lw	v1,8(s0)
7f00a8b6:	2b2a      	bnez	v1,7f00a90c <_flsbuf+0xe8>
7f00a8b8:	8889      	lh	a0,18(s0)
7f00a8ba:	1c1e 2ab4 	jalx	7f00aad0 <fstat>
7f00a8be:	0505      	addiu	a1,sp,20
7f00a8c0:	5200      	slti	v0,0
7f00a8c2:	6103      	btnez	7f00a8ca <_flsbuf+0xa6>
7f00a8c4:	9110      	lw	s1,64(sp)
7f00a8c6:	5101      	slti	s1,1
7f00a8c8:	6002      	bteqz	7f00a8ce <_flsbuf+0xaa>
7f00a8ca:	f400 6900 	li	s1,1024
7f00a8ce:	181e 2b09 	jal	7f00ac24 <malloc>
7f00a8d2:	6791      	move	a0,s1
7f00a8d4:	6762      	move	v1,v0
7f00a8d6:	d842      	sw	v0,8(s0)
7f00a8d8:	a888      	lhu	a0,16(s0)
7f00a8da:	2a04      	bnez	v0,7f00a8e4 <_flsbuf+0xc0>
7f00a8dc:	6a04      	li	v0,4
7f00a8de:	ea8d      	or	v0,a0
7f00a8e0:	c848      	sh	v0,16(s0)
7f00a8e2:	17b4      	b	7f00a84c <_flsbuf+0x28>
7f00a8e4:	6a08      	li	v0,8
7f00a8e6:	ea8d      	or	v0,a0
7f00a8e8:	c848      	sh	v0,16(s0)
7f00a8ea:	b21d      	lw	v0,7f00a95c <_flsbuf+0x138>
7f00a8ec:	e04b      	subu	v0,s0,v0
7f00a8ee:	d823      	sw	s1,12(s0)
7f00a8f0:	2a1d      	bnez	v0,7f00a92c <_flsbuf+0x108>
7f00a8f2:	b11c      	lw	s1,7f00a960 <_flsbuf+0x13c>
7f00a8f4:	8993      	lh	a0,38(s1)
7f00a8f6:	181e 2b03 	jal	7f00ac0c <isatty>
7f00a8fa:	d316      	sw	v1,88(sp)
7f00a8fc:	9316      	lw	v1,88(sp)
7f00a8fe:	2216      	beqz	v0,7f00a92c <_flsbuf+0x108>
7f00a900:	a992      	lhu	a0,36(s1)
7f00a902:	6a80      	li	v0,128
7f00a904:	d966      	sw	v1,24(s1)
7f00a906:	ea8d      	or	v0,a0
7f00a908:	c952      	sh	v0,36(s1)
7f00a90a:	17a0      	b	7f00a84c <_flsbuf+0x28>
7f00a90c:	9821      	lw	s1,4(s0)
7f00a90e:	e167      	subu	s1,v1
7f00a910:	5101      	slti	s1,1
7f00a912:	67f1      	move	a3,s1
7f00a914:	610d      	btnez	7f00a930 <_flsbuf+0x10c>
7f00a916:	8889      	lh	a0,18(s0)
7f00a918:	d861      	sw	v1,4(s0)
7f00a91a:	67a3      	move	a1,v1
7f00a91c:	67d1      	move	a2,s1
7f00a91e:	1c1e 2bfa 	jalx	7f00afe8 <write>
7f00a922:	d316      	sw	v1,88(sp)
7f00a924:	67f1      	move	a3,s1
7f00a926:	9316      	lw	v1,88(sp)
7f00a928:	6722      	move	s1,v0
7f00a92a:	1002      	b	7f00a930 <_flsbuf+0x10c>
7f00a92c:	6f00      	li	a3,0
7f00a92e:	6727      	move	s1,a3
7f00a930:	9843      	lw	v0,12(s0)
7f00a932:	4aff      	addiu	v0,-1
7f00a934:	d840      	sw	v0,0(s0)
7f00a936:	675d      	move	v0,sp
7f00a938:	f040 a250 	lbu	v0,80(v0)
7f00a93c:	c340      	sb	v0,0(v1)
7f00a93e:	4b01      	addiu	v1,1
7f00a940:	d861      	sw	v1,4(s0)
7f00a942:	e9ee      	xor	s1,a3
7f00a944:	2105      	beqz	s1,7f00a950 <_flsbuf+0x12c>
7f00a946:	a868      	lhu	v1,16(s0)
7f00a948:	6a20      	li	v0,32
7f00a94a:	ea6d      	or	v0,v1
7f00a94c:	c848      	sh	v0,16(s0)
7f00a94e:	1002      	b	7f00a954 <_flsbuf+0x130>
7f00a950:	9214      	lw	v0,80(sp)
7f00a952:	1002      	b	7f00a958 <_flsbuf+0x134>
7f00a954:	6a01      	li	v0,1
7f00a956:	ea4b      	neg	v0
7f00a958:	647e      	restore	112,ra,s0-s1
7f00a95a:	e8a0      	jrc	ra
7f00a95c:	ed78      	mult	a1,v1
7f00a95e:	7f00      	sd	s0,0(a3)
7f00a960:	ed64      	sllv	v1,a1
7f00a962:	7f00      	sd	s0,0(a3)

7f00a964 <fflush>:
7f00a964:	64f4      	save	32,ra,s0-s1
7f00a966:	6704      	move	s0,a0
7f00a968:	ac88      	lhu	a0,16(a0)
7f00a96a:	6b06      	li	v1,6
7f00a96c:	6a02      	li	v0,2
7f00a96e:	eb8c      	and	v1,a0
7f00a970:	eb4e      	xor	v1,v0
7f00a972:	6a00      	li	v0,0
7f00a974:	2b1b      	bnez	v1,7f00a9ac <fflush+0x48>
7f00a976:	98a2      	lw	a1,8(s0)
7f00a978:	6743      	move	v0,v1
7f00a97a:	2518      	beqz	a1,7f00a9ac <fflush+0x48>
7f00a97c:	9821      	lw	s1,4(s0)
7f00a97e:	e1a7      	subu	s1,a1
7f00a980:	5101      	slti	s1,1
7f00a982:	6114      	btnez	7f00a9ac <fflush+0x48>
7f00a984:	6a84      	li	v0,132
7f00a986:	ec4c      	and	a0,v0
7f00a988:	d8a1      	sw	a1,4(s0)
7f00a98a:	6a00      	li	v0,0
7f00a98c:	2c01      	bnez	a0,7f00a990 <fflush+0x2c>
7f00a98e:	9843      	lw	v0,12(s0)
7f00a990:	8889      	lh	a0,18(s0)
7f00a992:	67d1      	move	a2,s1
7f00a994:	1c1e 2bfa 	jalx	7f00afe8 <write>
7f00a998:	d840      	sw	v0,0(s0)
7f00a99a:	e94e      	xor	s1,v0
7f00a99c:	6a00      	li	v0,0
7f00a99e:	2106      	beqz	s1,7f00a9ac <fflush+0x48>
7f00a9a0:	a868      	lhu	v1,16(s0)
7f00a9a2:	6a20      	li	v0,32
7f00a9a4:	ea6d      	or	v0,v1
7f00a9a6:	c848      	sh	v0,16(s0)
7f00a9a8:	6a01      	li	v0,1
7f00a9aa:	ea4b      	neg	v0
7f00a9ac:	6474      	restore	32,ra,s0-s1
7f00a9ae:	e8a0      	jrc	ra

7f00a9b0 <fclose>:
7f00a9b0:	ac48      	lhu	v0,16(a0)
7f00a9b2:	6bff      	li	v1,255
7f00a9b4:	4b04      	addiu	v1,4
7f00a9b6:	eb4c      	and	v1,v0
7f00a9b8:	64f4      	save	32,ra,s0-s1
7f00a9ba:	6704      	move	s0,a0
7f00a9bc:	2316      	beqz	v1,7f00a9ea <fclose+0x3a>
7f00a9be:	6b40      	li	v1,64
7f00a9c0:	ea6c      	and	v0,v1
7f00a9c2:	2a13      	bnez	v0,7f00a9ea <fclose+0x3a>
7f00a9c4:	181e 2a59 	jal	7f00a964 <fflush>
7f00a9c8:	6500      	nop
7f00a9ca:	8889      	lh	a0,18(s0)
7f00a9cc:	1c1e 2c91 	jalx	7f00b244 <close>
7f00a9d0:	6722      	move	s1,v0
7f00a9d2:	5200      	slti	v0,0
7f00a9d4:	6002      	bteqz	7f00a9da <fclose+0x2a>
7f00a9d6:	6901      	li	s1,1
7f00a9d8:	e92b      	neg	s1
7f00a9da:	a848      	lhu	v0,16(s0)
7f00a9dc:	6b08      	li	v1,8
7f00a9de:	ea6c      	and	v0,v1
7f00a9e0:	2206      	beqz	v0,7f00a9ee <fclose+0x3e>
7f00a9e2:	181e 2b51 	jal	7f00ad44 <free>
7f00a9e6:	9882      	lw	a0,8(s0)
7f00a9e8:	1002      	b	7f00a9ee <fclose+0x3e>
7f00a9ea:	6901      	li	s1,1
7f00a9ec:	e92b      	neg	s1
7f00a9ee:	6a00      	li	v0,0
7f00a9f0:	d840      	sw	v0,0(s0)
7f00a9f2:	d842      	sw	v0,8(s0)
7f00a9f4:	d841      	sw	v0,4(s0)
7f00a9f6:	d843      	sw	v0,12(s0)
7f00a9f8:	c848      	sh	v0,16(s0)
7f00a9fa:	c849      	sh	v0,18(s0)
7f00a9fc:	6751      	move	v0,s1
7f00a9fe:	6474      	restore	32,ra,s0-s1
7f00aa00:	e8a0      	jrc	ra
7f00aa02:	6500      	nop

7f00aa04 <fork>:
7f00aa04:	0000008c 	syscall	0x2
7f00aa08:	3c097f01 	lui	t1,0x7f01
7f00aa0c:	ad28f160 	sw	t0,-3744(t1)
7f00aa10:	03e00008 	jr	ra
7f00aa14:	00000000 	nop

7f00aa18 <fprintf>:
7f00aa18:	f00e 64f6 	save	a0-a3,48,ra,s0-s1
7f00aa1c:	6704      	move	s0,a0
7f00aa1e:	8848      	lh	v0,16(s0)
7f00aa20:	0104      	addiu	s1,sp,16
7f00aa22:	6785      	move	a0,a1
7f00aa24:	6b04      	li	v1,4
7f00aa26:	41a7      	addiu	a1,s1,7
7f00aa28:	67c2      	move	a2,v0
7f00aa2a:	4d21      	addiu	a1,33
7f00aa2c:	ee6c      	and	a2,v1
7f00aa2e:	d9a0      	sw	a1,0(s1)
7f00aa30:	261c      	beqz	a2,7f00aa6a <fprintf+0x52>
7f00aa32:	6e05      	li	a2,5
7f00aa34:	eecb      	neg	a2
7f00aa36:	eacc      	and	v0,a2
7f00aa38:	f3ff 6318 	addiu	sp,-1032
7f00aa3c:	c848      	sh	v0,16(s0)
7f00aa3e:	0204      	addiu	v0,sp,16
7f00aa40:	d842      	sw	v0,8(s0)
7f00aa42:	d841      	sw	v0,4(s0)
7f00aa44:	f400 6a00 	li	v0,1024
7f00aa48:	67d0      	move	a2,s0
7f00aa4a:	d843      	sw	v0,12(s0)
7f00aa4c:	181e 2cd8 	jal	7f00b360 <_doprnt>
7f00aa50:	d962      	sw	v1,8(s1)
7f00aa52:	181e 2a59 	jal	7f00a964 <fflush>
7f00aa56:	6790      	move	a0,s0
7f00aa58:	a848      	lhu	v0,16(s0)
7f00aa5a:	9962      	lw	v1,8(s1)
7f00aa5c:	eb4d      	or	v1,v0
7f00aa5e:	6a00      	li	v0,0
7f00aa60:	c868      	sh	v1,16(s0)
7f00aa62:	d842      	sw	v0,8(s0)
7f00aa64:	d843      	sw	v0,12(s0)
7f00aa66:	d840      	sw	v0,0(s0)
7f00aa68:	1003      	b	7f00aa70 <fprintf+0x58>
7f00aa6a:	181e 2cd8 	jal	7f00b360 <_doprnt>
7f00aa6e:	67d0      	move	a2,s0
7f00aa70:	a848      	lhu	v0,16(s0)
7f00aa72:	6b20      	li	v1,32
7f00aa74:	65b9      	move	sp,s1
7f00aa76:	ea6c      	and	v0,v1
7f00aa78:	5a01      	sltiu	v0,1
7f00aa7a:	6758      	move	v0,t8
7f00aa7c:	6474      	restore	32,ra,s0-s1
7f00aa7e:	e820      	jr	ra
7f00aa80:	4aff      	addiu	v0,-1
7f00aa82:	6500      	nop

7f00aa84 <fputc>:
7f00aa84:	9d40      	lw	v0,0(a1)
7f00aa86:	64c3      	save	24,ra
7f00aa88:	4aff      	addiu	v0,-1
7f00aa8a:	5200      	slti	v0,0
7f00aa8c:	dd40      	sw	v0,0(a1)
7f00aa8e:	6105      	btnez	7f00aa9a <fputc+0x16>
7f00aa90:	9d61      	lw	v1,4(a1)
7f00aa92:	ec11      	zeb	a0
7f00aa94:	6744      	move	v0,a0
7f00aa96:	c380      	sb	a0,0(v1)
7f00aa98:	100f      	b	7f00aab8 <fputc+0x34>
7f00aa9a:	ad68      	lhu	v1,16(a1)
7f00aa9c:	6e80      	li	a2,128
7f00aa9e:	ebcc      	and	v1,a2
7f00aaa0:	2310      	beqz	v1,7f00aac2 <fputc+0x3e>
7f00aaa2:	9d63      	lw	v1,12(a1)
7f00aaa4:	ea4b      	neg	v0
7f00aaa6:	ea62      	slt	v0,v1
7f00aaa8:	600c      	bteqz	7f00aac2 <fputc+0x3e>
7f00aaaa:	9d41      	lw	v0,4(a1)
7f00aaac:	ec91      	seb	a0
7f00aaae:	740a      	cmpi	a0,10
7f00aab0:	c280      	sb	a0,0(v0)
7f00aab2:	9d61      	lw	v1,4(a1)
7f00aab4:	6004      	bteqz	7f00aabe <fputc+0x3a>
7f00aab6:	a340      	lbu	v0,0(v1)
7f00aab8:	4b01      	addiu	v1,1
7f00aaba:	dd61      	sw	v1,4(a1)
7f00aabc:	1006      	b	7f00aaca <fputc+0x46>
7f00aabe:	a380      	lbu	a0,0(v1)
7f00aac0:	1001      	b	7f00aac4 <fputc+0x40>
7f00aac2:	ec11      	zeb	a0
7f00aac4:	181e 2a09 	jal	7f00a824 <_flsbuf>
7f00aac8:	6500      	nop
7f00aaca:	6443      	restore	24,ra
7f00aacc:	e8a0      	jrc	ra
7f00aace:	6500      	nop

7f00aad0 <fstat>:
7f00aad0:	00000f8c 	syscall	0x3e
7f00aad4:	3c097f01 	lui	t1,0x7f01
7f00aad8:	ad28f160 	sw	t0,-3744(t1)
7f00aadc:	03e00008 	jr	ra
7f00aae0:	00000000 	nop

7f00aae4 <fwrite>:
7f00aae4:	eeb8      	mult	a2,a1
7f00aae6:	af48      	lhu	v0,16(a3)
7f00aae8:	f00c 64f5 	save	a0-a2,40,ra,s0-s1
7f00aaec:	6d80      	li	a1,128
7f00aaee:	eaac      	and	v0,a1
7f00aaf0:	6707      	move	s0,a3
7f00aaf2:	6764      	move	v1,a0
7f00aaf4:	e912      	mflo	s1
7f00aaf6:	2249      	beqz	v0,7f00ab8a <fwrite+0xa6>
7f00aaf8:	4461      	addiu	v1,a0,1
7f00aafa:	101b      	b	7f00ab32 <fwrite+0x4e>
7f00aafc:	9840      	lw	v0,0(s0)
7f00aafe:	9883      	lw	a0,12(s0)
7f00ab00:	4aff      	addiu	v0,-1
7f00ab02:	ec8b      	neg	a0
7f00ab04:	ec42      	slt	a0,v0
7f00ab06:	d840      	sw	v0,0(s0)
7f00ab08:	6009      	bteqz	7f00ab1c <fwrite+0x38>
7f00ab0a:	f7ff 839f 	lb	a0,-1(v1)
7f00ab0e:	740a      	cmpi	a0,10
7f00ab10:	6005      	bteqz	7f00ab1c <fwrite+0x38>
7f00ab12:	9841      	lw	v0,4(s0)
7f00ab14:	c280      	sb	a0,0(v0)
7f00ab16:	4a01      	addiu	v0,1
7f00ab18:	d841      	sw	v0,4(s0)
7f00ab1a:	1009      	b	7f00ab2e <fwrite+0x4a>
7f00ab1c:	f7ff a39f 	lbu	a0,-1(v1)
7f00ab20:	67b0      	move	a1,s0
7f00ab22:	181e 2a09 	jal	7f00a824 <_flsbuf>
7f00ab26:	d304      	sw	v1,16(sp)
7f00ab28:	4a01      	addiu	v0,1
7f00ab2a:	9304      	lw	v1,16(sp)
7f00ab2c:	222f      	beqz	v0,7f00ab8c <fwrite+0xa8>
7f00ab2e:	49ff      	addiu	s1,-1
7f00ab30:	4b01      	addiu	v1,1
7f00ab32:	29e4      	bnez	s1,7f00aafc <fwrite+0x18>
7f00ab34:	102b      	b	7f00ab8c <fwrite+0xa8>
7f00ab36:	98c0      	lw	a2,0(s0)
7f00ab38:	ee23      	sltu	a2,s1
7f00ab3a:	6018      	bteqz	7f00ab6c <fwrite+0x88>
7f00ab3c:	5601      	slti	a2,1
7f00ab3e:	610c      	btnez	7f00ab58 <fwrite+0x74>
7f00ab40:	98a1      	lw	a1,4(s0)
7f00ab42:	6783      	move	a0,v1
7f00ab44:	1c1e 2c05 	jalx	7f00b014 <bcopy>
7f00ab48:	d304      	sw	v1,16(sp)
7f00ab4a:	9840      	lw	v0,0(s0)
7f00ab4c:	9881      	lw	a0,4(s0)
7f00ab4e:	9304      	lw	v1,16(sp)
7f00ab50:	e147      	subu	s1,v0
7f00ab52:	e451      	addu	a0,v0
7f00ab54:	e34d      	addu	v1,v0
7f00ab56:	d881      	sw	a0,4(s0)
7f00ab58:	a380      	lbu	a0,0(v1)
7f00ab5a:	67b0      	move	a1,s0
7f00ab5c:	181e 2a09 	jal	7f00a824 <_flsbuf>
7f00ab60:	d304      	sw	v1,16(sp)
7f00ab62:	4a01      	addiu	v0,1
7f00ab64:	9304      	lw	v1,16(sp)
7f00ab66:	2212      	beqz	v0,7f00ab8c <fwrite+0xa8>
7f00ab68:	4b01      	addiu	v1,1
7f00ab6a:	49ff      	addiu	s1,-1
7f00ab6c:	9840      	lw	v0,0(s0)
7f00ab6e:	ea23      	sltu	v0,s1
7f00ab70:	610c      	btnez	7f00ab8a <fwrite+0xa6>
7f00ab72:	98a1      	lw	a1,4(s0)
7f00ab74:	67d1      	move	a2,s1
7f00ab76:	1c1e 2c05 	jalx	7f00b014 <bcopy>
7f00ab7a:	6783      	move	a0,v1
7f00ab7c:	9841      	lw	v0,4(s0)
7f00ab7e:	e229      	addu	v0,s1
7f00ab80:	d841      	sw	v0,4(s0)
7f00ab82:	9840      	lw	v0,0(s0)
7f00ab84:	e227      	subu	s1,v0,s1
7f00ab86:	d820      	sw	s1,0(s0)
7f00ab88:	1010      	b	7f00abaa <fwrite+0xc6>
7f00ab8a:	29d5      	bnez	s1,7f00ab36 <fwrite+0x52>
7f00ab8c:	920b      	lw	v0,44(sp)
7f00ab8e:	220b      	beqz	v0,7f00aba6 <fwrite+0xc2>
7f00ab90:	930b      	lw	v1,44(sp)
7f00ab92:	4aff      	addiu	v0,-1
7f00ab94:	e225      	addu	s1,v0,s1
7f00ab96:	e97b      	divu	zero,s1,v1
7f00ab98:	2b01      	bnez	v1,7f00ab9c <fwrite+0xb8>
7f00ab9a:	e8e5      	break	7
7f00ab9c:	950c      	lw	a1,48(sp)
7f00ab9e:	ea12      	mflo	v0
7f00aba0:	e557      	subu	a1,v0
7f00aba2:	d50c      	sw	a1,48(sp)
7f00aba4:	1002      	b	7f00abaa <fwrite+0xc6>
7f00aba6:	6a00      	li	v0,0
7f00aba8:	d20c      	sw	v0,48(sp)
7f00abaa:	920c      	lw	v0,48(sp)
7f00abac:	6475      	restore	40,ra,s0-s1
7f00abae:	e8a0      	jrc	ra

7f00abb0 <getdtablesize>:
7f00abb0:	0000164c 	syscall	0x59
7f00abb4:	3c097f01 	lui	t1,0x7f01
7f00abb8:	ad28f160 	sw	t0,-3744(t1)
7f00abbc:	03e00008 	jr	ra
7f00abc0:	00000000 	nop

7f00abc4 <gets>:
7f00abc4:	64f4      	save	32,ra,s0-s1
7f00abc6:	6724      	move	s1,a0
7f00abc8:	6704      	move	s0,a0
7f00abca:	1002      	b	7f00abd0 <gets+0xc>
7f00abcc:	c040      	sb	v0,0(s0)
7f00abce:	4801      	addiu	s0,1
7f00abd0:	b40e      	lw	a0,7f00ac08 <gets+0x44>
7f00abd2:	9c40      	lw	v0,0(a0)
7f00abd4:	4aff      	addiu	v0,-1
7f00abd6:	5200      	slti	v0,0
7f00abd8:	dc40      	sw	v0,0(a0)
7f00abda:	6105      	btnez	7f00abe6 <gets+0x22>
7f00abdc:	9c61      	lw	v1,4(a0)
7f00abde:	a340      	lbu	v0,0(v1)
7f00abe0:	4b01      	addiu	v1,1
7f00abe2:	dc61      	sw	v1,4(a0)
7f00abe4:	1003      	b	7f00abec <gets+0x28>
7f00abe6:	181e 3396 	jal	7f00ce58 <_filbuf>
7f00abea:	6500      	nop
7f00abec:	720a      	cmpi	v0,10
7f00abee:	6004      	bteqz	7f00abf8 <gets+0x34>
7f00abf0:	4261      	addiu	v1,v0,1
7f00abf2:	2bec      	bnez	v1,7f00abcc <gets+0x8>
7f00abf4:	e82a      	cmp	s0,s1
7f00abf6:	6003      	bteqz	7f00abfe <gets+0x3a>
7f00abf8:	6a00      	li	v0,0
7f00abfa:	c040      	sb	v0,0(s0)
7f00abfc:	1001      	b	7f00ac00 <gets+0x3c>
7f00abfe:	6900      	li	s1,0
7f00ac00:	6751      	move	v0,s1
7f00ac02:	6474      	restore	32,ra,s0-s1
7f00ac04:	e8a0      	jrc	ra
7f00ac06:	6500      	nop
7f00ac08:	ed64      	sllv	v1,a1
7f00ac0a:	7f00      	sd	s0,0(a3)

7f00ac0c <isatty>:
7f00ac0c:	b505      	lw	a1,7f00ac20 <isatty+0x14>
7f00ac0e:	64c4      	save	32,ra
7f00ac10:	1c1e 33e1 	jalx	7f00cf84 <ioctl>
7f00ac14:	0604      	addiu	a2,sp,16
7f00ac16:	ea4f      	not	v0
7f00ac18:	6444      	restore	32,ra
7f00ac1a:	f7c0 3242 	srl	v0,31
7f00ac1e:	e8a0      	jrc	ra
7f00ac20:	7408      	cmpi	a0,8
7f00ac22:	4006      	addiu	s0,s0,6

7f00ac24 <malloc>:
7f00ac24:	64f5      	save	40,ra,s0-s1
7f00ac26:	6a00      	li	v0,0
7f00ac28:	671c      	move	s0,gp
7f00ac2a:	f080 2409 	beqz	a0,7f00ad40 <malloc+0x11c>
7f00ac2e:	f030 9858 	lw	v0,-32712(s0)
7f00ac32:	2a11      	bnez	v0,7f00ac56 <malloc+0x32>
7f00ac34:	6d01      	li	a1,1
7f00ac36:	6770      	move	v1,s0
7f00ac38:	f030 4b1c 	addiu	v1,-32708
7f00ac3c:	6745      	move	v0,a1
7f00ac3e:	ea6d      	or	v0,v1
7f00ac40:	f030 d858 	sw	v0,-32712(s0)
7f00ac44:	6750      	move	v0,s0
7f00ac46:	f030 4a18 	addiu	v0,-32712
7f00ac4a:	ed4d      	or	a1,v0
7f00ac4c:	daa1      	sw	a1,4(v0)
7f00ac4e:	f050 d860 	sw	v1,-32704(s0)
7f00ac52:	f030 d854 	sw	v0,-32716(s0)
7f00ac56:	4467      	addiu	v1,a0,7
7f00ac58:	336a      	srl	v1,2
7f00ac5a:	3368      	sll	v1,2
7f00ac5c:	f030 9834 	lw	s1,-32716(s0)
7f00ac60:	f3f0 434f 	addiu	v0,v1,1023
7f00ac64:	d204      	sw	v0,16(sp)
7f00ac66:	f050 9880 	lw	a0,-32704(s0)
7f00ac6a:	6a00      	li	v0,0
7f00ac6c:	f050 d844 	sw	v0,-32700(s0)
7f00ac70:	650c      	move	t0,a0
7f00ac72:	9980      	lw	a0,0(s1)
7f00ac74:	6d01      	li	a1,1
7f00ac76:	67d1      	move	a2,s1
7f00ac78:	ecac      	and	a0,a1
7f00ac7a:	2402      	beqz	a0,7f00ac80 <malloc+0x5c>
7f00ac7c:	100c      	b	7f00ac96 <malloc+0x72>
7f00ac7e:	d980      	sw	a0,0(s1)
7f00ac80:	99a0      	lw	a1,0(s1)
7f00ac82:	6f01      	li	a3,1
7f00ac84:	9d80      	lw	a0,0(a1)
7f00ac86:	ef8c      	and	a3,a0
7f00ac88:	651f      	move	t8,a3
7f00ac8a:	60f9      	bteqz	7f00ac7e <malloc+0x5a>
7f00ac8c:	e171      	addu	a0,s1,v1
7f00ac8e:	ed83      	sltu	a1,a0
7f00ac90:	6102      	btnez	7f00ac96 <malloc+0x72>
7f00ac92:	5300      	slti	v1,0
7f00ac94:	6045      	bteqz	7f00ad20 <malloc+0xfc>
7f00ac96:	9920      	lw	s1,0(s1)
7f00ac98:	6c02      	li	a0,2
7f00ac9a:	ec8b      	neg	a0
7f00ac9c:	e98c      	and	s1,a0
7f00ac9e:	ee23      	sltu	a2,s1
7f00aca0:	61e8      	btnez	7f00ac72 <malloc+0x4e>
7f00aca2:	6788      	move	a0,t0
7f00aca4:	ee8e      	xor	a2,a0
7f00aca6:	2e05      	bnez	a2,7f00acb2 <malloc+0x8e>
7f00aca8:	6790      	move	a0,s0
7f00acaa:	f030 4c18 	addiu	a0,-32712
7f00acae:	e193      	subu	a0,s1,a0
7f00acb0:	2403      	beqz	a0,7f00acb8 <malloc+0x94>
7f00acb2:	f050 d844 	sw	v0,-32700(s0)
7f00acb6:	1043      	b	7f00ad3e <malloc+0x11a>
7f00acb8:	4a01      	addiu	v0,1
7f00acba:	5202      	slti	v0,2
7f00acbc:	61da      	btnez	7f00ac72 <malloc+0x4e>
7f00acbe:	6c00      	li	a0,0
7f00acc0:	f050 d844 	sw	v0,-32700(s0)
7f00acc4:	181e 2b8b 	jal	7f00ae2c <sbrk>
7f00acc8:	d305      	sw	v1,20(sp)
7f00acca:	9504      	lw	a1,16(sp)
7f00accc:	e2b1      	addu	a0,v0,a1
7f00acce:	3482      	srl	a0,8
7f00acd0:	348a      	srl	a0,2
7f00acd2:	3480      	sll	a0,8
7f00acd4:	3488      	sll	a0,2
7f00acd6:	e453      	subu	a0,v0
7f00acd8:	348a      	srl	a0,2
7f00acda:	f050 d884 	sw	a0,-32700(s0)
7f00acde:	3488      	sll	a0,2
7f00ace0:	5400      	slti	a0,0
7f00ace2:	612d      	btnez	7f00ad3e <malloc+0x11a>
7f00ace4:	181e 2b8b 	jal	7f00ae2c <sbrk>
7f00ace8:	6500      	nop
7f00acea:	4281      	addiu	a0,v0,1
7f00acec:	9305      	lw	v1,20(sp)
7f00acee:	2427      	beqz	a0,7f00ad3e <malloc+0x11a>
7f00acf0:	f050 9880 	lw	a0,-32704(s0)
7f00acf4:	44a4      	addiu	a1,a0,4
7f00acf6:	eaaa      	cmp	v0,a1
7f00acf8:	dc40      	sw	v0,0(a0)
7f00acfa:	6003      	bteqz	7f00ad02 <malloc+0xde>
7f00acfc:	6d01      	li	a1,1
7f00acfe:	ed4d      	or	a1,v0
7f00ad00:	dca0      	sw	a1,0(a0)
7f00ad02:	f050 9884 	lw	a0,-32700(s0)
7f00ad06:	67b0      	move	a1,s0
7f00ad08:	f030 4d18 	addiu	a1,-32712
7f00ad0c:	4cff      	addiu	a0,-1
7f00ad0e:	3488      	sll	a0,2
7f00ad10:	e291      	addu	a0,v0,a0
7f00ad12:	da80      	sw	a0,0(v0)
7f00ad14:	6a01      	li	v0,1
7f00ad16:	eaad      	or	v0,a1
7f00ad18:	f050 d880 	sw	a0,-32704(s0)
7f00ad1c:	dc40      	sw	v0,0(a0)
7f00ad1e:	17a3      	b	7f00ac66 <malloc+0x42>
7f00ad20:	eca3      	sltu	a0,a1
7f00ad22:	f050 d844 	sw	v0,-32700(s0)
7f00ad26:	f030 d894 	sw	a0,-32716(s0)
7f00ad2a:	6004      	bteqz	7f00ad34 <malloc+0x110>
7f00ad2c:	9c40      	lw	v0,0(a0)
7f00ad2e:	dca0      	sw	a1,0(a0)
7f00ad30:	f030 d850 	sw	v0,-32720(s0)
7f00ad34:	6a01      	li	v0,1
7f00ad36:	ea8d      	or	v0,a0
7f00ad38:	d940      	sw	v0,0(s1)
7f00ad3a:	4144      	addiu	v0,s1,4
7f00ad3c:	1001      	b	7f00ad40 <malloc+0x11c>
7f00ad3e:	6a00      	li	v0,0
7f00ad40:	6475      	restore	40,ra,s0-s1
7f00ad42:	e8a0      	jrc	ra

7f00ad44 <free>:
7f00ad44:	2409      	beqz	a0,7f00ad58 <free+0x14>
7f00ad46:	4cfc      	addiu	a0,-4
7f00ad48:	675c      	move	v0,gp
7f00ad4a:	f030 da94 	sw	a0,-32716(v0)
7f00ad4e:	9c40      	lw	v0,0(a0)
7f00ad50:	6b02      	li	v1,2
7f00ad52:	eb6b      	neg	v1
7f00ad54:	ea6c      	and	v0,v1
7f00ad56:	dc40      	sw	v0,0(a0)
7f00ad58:	e8a0      	jrc	ra
7f00ad5a:	6500      	nop

7f00ad5c <realloc>:
7f00ad5c:	64f5      	save	40,ra,s0-s1
7f00ad5e:	6704      	move	s0,a0
7f00ad60:	6725      	move	s1,a1
7f00ad62:	2c04      	bnez	a0,7f00ad6c <realloc+0x10>
7f00ad64:	181e 2b09 	jal	7f00ac24 <malloc>
7f00ad68:	6785      	move	a0,a1
7f00ad6a:	1035      	b	7f00add6 <realloc+0x7a>
7f00ad6c:	444c      	addiu	v0,a0,-4
7f00ad6e:	9a60      	lw	v1,0(v0)
7f00ad70:	6c01      	li	a0,1
7f00ad72:	eb8c      	and	v1,a0
7f00ad74:	2305      	beqz	v1,7f00ad80 <realloc+0x24>
7f00ad76:	6790      	move	a0,s0
7f00ad78:	181e 2b51 	jal	7f00ad44 <free>
7f00ad7c:	d204      	sw	v0,16(sp)
7f00ad7e:	9204      	lw	v0,16(sp)
7f00ad80:	9a60      	lw	v1,0(v0)
7f00ad82:	6791      	move	a0,s1
7f00ad84:	181e 2b09 	jal	7f00ac24 <malloc>
7f00ad88:	d304      	sw	v1,16(sp)
7f00ad8a:	6782      	move	a0,v0
7f00ad8c:	9304      	lw	v1,16(sp)
7f00ad8e:	6a00      	li	v0,0
7f00ad90:	2422      	beqz	a0,7f00add6 <realloc+0x7a>
7f00ad92:	ec0a      	cmp	a0,s0
7f00ad94:	6744      	move	v0,a0
7f00ad96:	601f      	bteqz	7f00add6 <realloc+0x7a>
7f00ad98:	4903      	addiu	s1,3
7f00ad9a:	e30f      	subu	v1,s0
7f00ad9c:	312a      	srl	s1,2
7f00ad9e:	336b      	sra	v1,2
7f00ada0:	e963      	sltu	s1,v1
7f00ada2:	6001      	bteqz	7f00ada6 <realloc+0x4a>
7f00ada4:	6771      	move	v1,s1
7f00ada6:	67a4      	move	a1,a0
7f00ada8:	6750      	move	v0,s0
7f00adaa:	1005      	b	7f00adb6 <realloc+0x5a>
7f00adac:	9ac0      	lw	a2,0(v0)
7f00adae:	4bff      	addiu	v1,-1
7f00adb0:	4a04      	addiu	v0,4
7f00adb2:	ddc0      	sw	a2,0(a1)
7f00adb4:	4d04      	addiu	a1,4
7f00adb6:	2bfa      	bnez	v1,7f00adac <realloc+0x50>
7f00adb8:	ec03      	sltu	a0,s0
7f00adba:	6744      	move	v0,a0
7f00adbc:	600c      	bteqz	7f00add6 <realloc+0x7a>
7f00adbe:	3128      	sll	s1,2
7f00adc0:	e425      	addu	s1,a0,s1
7f00adc2:	e903      	sltu	s1,s0
7f00adc4:	6108      	btnez	7f00add6 <realloc+0x7a>
7f00adc6:	e103      	subu	s0,s1,s0
7f00adc8:	677c      	move	v1,gp
7f00adca:	300b      	sra	s0,2
7f00adcc:	f030 9b70 	lw	v1,-32720(v1)
7f00add0:	3008      	sll	s0,2
7f00add2:	e401      	addu	s0,a0,s0
7f00add4:	d860      	sw	v1,0(s0)
7f00add6:	6475      	restore	40,ra,s0-s1
7f00add8:	e8a0      	jrc	ra
7f00adda:	6500      	nop

7f00addc <open>:
7f00addc:	0000014c 	syscall	0x5
7f00ade0:	3c097f01 	lui	t1,0x7f01
7f00ade4:	ad28f160 	sw	t0,-3744(t1)
7f00ade8:	03e00008 	jr	ra
7f00adec:	00000000 	nop

7f00adf0 <srand>:
7f00adf0:	675c      	move	v0,gp
7f00adf2:	f010 da94 	sw	a0,-32748(v0)
7f00adf6:	e8a0      	jrc	ra

7f00adf8 <rand>:
7f00adf8:	677c      	move	v1,gp
7f00adfa:	f010 9b54 	lw	v0,-32748(v1)
7f00adfe:	b406      	lw	a0,7f00ae14 <rand+0x1c>
7f00ae00:	ea98      	mult	v0,a0
7f00ae02:	ea12      	mflo	v0
7f00ae04:	f026 4a19 	addiu	v0,12345
7f00ae08:	f010 db54 	sw	v0,-32748(v1)
7f00ae0c:	3244      	sll	v0,1
7f00ae0e:	f440 3242 	srl	v0,17
7f00ae12:	e8a0      	jrc	ra
7f00ae14:	4e6d      	addiu	a2,109
7f00ae16:	41c6      	addiu	a2,s1,6

7f00ae18 <read>:
7f00ae18:	000000cc 	syscall	0x3
7f00ae1c:	3c097f01 	lui	t1,0x7f01
7f00ae20:	ad28f160 	sw	t0,-3744(t1)
7f00ae24:	03e00008 	jr	ra
7f00ae28:	00000000 	nop

7f00ae2c <sbrk>:
7f00ae2c:	64f5      	save	40,ra,s0-s1
7f00ae2e:	673c      	move	s1,gp
7f00ae30:	f010 9978 	lw	v1,-32744(s1)
7f00ae34:	240a      	beqz	a0,7f00ae4a <sbrk+0x1e>
7f00ae36:	e381      	addu	s0,v1,a0
7f00ae38:	6790      	move	a0,s0
7f00ae3a:	1c1e 2bff 	jalx	7f00affc <_brk>
7f00ae3e:	d304      	sw	v1,16(sp)
7f00ae40:	4a01      	addiu	v0,1
7f00ae42:	9304      	lw	v1,16(sp)
7f00ae44:	2202      	beqz	v0,7f00ae4a <sbrk+0x1e>
7f00ae46:	f010 d918 	sw	s0,-32744(s1)
7f00ae4a:	6475      	restore	40,ra,s0-s1
7f00ae4c:	e820      	jr	ra
7f00ae4e:	6743      	move	v0,v1

7f00ae50 <brk>:
7f00ae50:	b208      	lw	v0,7f00ae70 <brk+0x20>
7f00ae52:	ec43      	sltu	a0,v0
7f00ae54:	64e3      	save	24,ra,s0
7f00ae56:	6704      	move	s0,a0
7f00ae58:	6001      	bteqz	7f00ae5c <brk+0xc>
7f00ae5a:	6702      	move	s0,v0
7f00ae5c:	1c1e 2bff 	jalx	7f00affc <_brk>
7f00ae60:	6790      	move	a0,s0
7f00ae62:	4261      	addiu	v1,v0,1
7f00ae64:	2303      	beqz	v1,7f00ae6c <brk+0x1c>
7f00ae66:	677c      	move	v1,gp
7f00ae68:	f010 db18 	sw	s0,-32744(v1)
7f00ae6c:	6463      	restore	24,ra,s0
7f00ae6e:	e8a0      	jrc	ra
7f00ae70:	6ed0      	li	a2,208
7f00ae72:	7f01      	sd	s0,8(a3)

7f00ae74 <scanf>:
7f00ae74:	f00e 64c4 	save	a0-a3,32,ra
7f00ae78:	0609      	addiu	a2,sp,36
7f00ae7a:	67a4      	move	a1,a0
7f00ae7c:	b403      	lw	a0,7f00ae88 <scanf+0x14>
7f00ae7e:	181e 3245 	jal	7f00c914 <_doscan>
7f00ae82:	d604      	sw	a2,16(sp)
7f00ae84:	6444      	restore	32,ra
7f00ae86:	e8a0      	jrc	ra
7f00ae88:	ed64      	sllv	v1,a1
7f00ae8a:	7f00      	sd	s0,0(a3)

7f00ae8c <fscanf>:
7f00ae8c:	f00e 64c4 	save	a0-a3,32,ra
7f00ae90:	060a      	addiu	a2,sp,40
7f00ae92:	181e 3245 	jal	7f00c914 <_doscan>
7f00ae96:	d604      	sw	a2,16(sp)
7f00ae98:	6444      	restore	32,ra
7f00ae9a:	e8a0      	jrc	ra

7f00ae9c <sscanf>:
7f00ae9c:	f00e 64c6 	save	a0-a3,48,ra
7f00aea0:	6a41      	li	v0,65
7f00aea2:	677d      	move	v1,sp
7f00aea4:	cb52      	sh	v0,36(v1)
7f00aea6:	d407      	sw	a0,28(sp)
7f00aea8:	d406      	sw	a0,24(sp)
7f00aeaa:	6a00      	li	v0,0
7f00aeac:	1001      	b	7f00aeb0 <sscanf+0x14>
7f00aeae:	4a01      	addiu	v0,1
7f00aeb0:	8460      	lb	v1,0(a0)
7f00aeb2:	4c01      	addiu	a0,1
7f00aeb4:	2bfc      	bnez	v1,7f00aeae <sscanf+0x12>
7f00aeb6:	060e      	addiu	a2,sp,56
7f00aeb8:	0405      	addiu	a0,sp,20
7f00aeba:	d205      	sw	v0,20(sp)
7f00aebc:	d208      	sw	v0,32(sp)
7f00aebe:	181e 3245 	jal	7f00c914 <_doscan>
7f00aec2:	d604      	sw	a2,16(sp)
7f00aec4:	6446      	restore	48,ra
7f00aec6:	e8a0      	jrc	ra

7f00aec8 <system>:
7f00aec8:	f004 64f8 	save	a0,64,ra,s0-s1
7f00aecc:	244b      	beqz	a0,7f00af64 <system+0x9c>
7f00aece:	b229      	lw	v0,7f00af70 <system+0xa8>
7f00aed0:	6c01      	li	a0,1
7f00aed2:	0508      	addiu	a1,sp,32
7f00aed4:	0607      	addiu	a2,sp,28
7f00aed6:	1c1e 342a 	jalx	7f00d0a8 <sigprocmask>
7f00aeda:	d208      	sw	v0,32(sp)
7f00aedc:	1c1e 2be8 	jalx	7f00afa0 <vfork>
7f00aee0:	6500      	nop
7f00aee2:	4201      	addiu	s0,v0,1
7f00aee4:	6722      	move	s1,v0
7f00aee6:	2002      	beqz	s0,7f00aeec <system+0x24>
7f00aee8:	220b      	beqz	v0,7f00af00 <system+0x38>
7f00aeea:	1019      	b	7f00af1e <system+0x56>
7f00aeec:	6c03      	li	a0,3
7f00aeee:	0507      	addiu	a1,sp,28
7f00aef0:	1c1e 342a 	jalx	7f00d0a8 <sigprocmask>
7f00aef4:	6e00      	li	a2,0
7f00aef6:	6a7f      	li	v0,127
7f00aef8:	677d      	move	v1,sp
7f00aefa:	d006      	sw	s0,24(sp)
7f00aefc:	c359      	sb	v0,25(v1)
7f00aefe:	1030      	b	7f00af60 <system+0x98>
7f00af00:	6c03      	li	a0,3
7f00af02:	0507      	addiu	a1,sp,28
7f00af04:	1c1e 342a 	jalx	7f00d0a8 <sigprocmask>
7f00af08:	6e00      	li	a2,0
7f00af0a:	9710      	lw	a3,64(sp)
7f00af0c:	b41a      	lw	a0,7f00af74 <system+0xac>
7f00af0e:	b51b      	lw	a1,7f00af78 <system+0xb0>
7f00af10:	b61b      	lw	a2,7f00af7c <system+0xb4>
7f00af12:	181e 2995 	jal	7f00a654 <execl>
7f00af16:	d104      	sw	s1,16(sp)
7f00af18:	1c1e 2c04 	jalx	7f00b010 <_exit>
7f00af1c:	6c7f      	li	a0,127
7f00af1e:	6c02      	li	a0,2
7f00af20:	181e 341c 	jal	7f00d070 <signal>
7f00af24:	6d01      	li	a1,1
7f00af26:	6c03      	li	a0,3
7f00af28:	6d01      	li	a1,1
7f00af2a:	181e 341c 	jal	7f00d070 <signal>
7f00af2e:	d20a      	sw	v0,40(sp)
7f00af30:	6791      	move	a0,s1
7f00af32:	0506      	addiu	a1,sp,24
7f00af34:	6e00      	li	a2,0
7f00af36:	181e 2bf7 	jal	7f00afdc <waitpid>
7f00af3a:	d20b      	sw	v0,44(sp)
7f00af3c:	6e00      	li	a2,0
7f00af3e:	6c03      	li	a0,3
7f00af40:	0507      	addiu	a1,sp,28
7f00af42:	1c1e 342a 	jalx	7f00d0a8 <sigprocmask>
7f00af46:	6702      	move	s0,v0
7f00af48:	930a      	lw	v1,40(sp)
7f00af4a:	6c02      	li	a0,2
7f00af4c:	4801      	addiu	s0,1
7f00af4e:	181e 341c 	jal	7f00d070 <signal>
7f00af52:	67a3      	move	a1,v1
7f00af54:	970b      	lw	a3,44(sp)
7f00af56:	6c03      	li	a0,3
7f00af58:	181e 341c 	jal	7f00d070 <signal>
7f00af5c:	67a7      	move	a1,a3
7f00af5e:	2004      	beqz	s0,7f00af68 <system+0xa0>
7f00af60:	9206      	lw	v0,24(sp)
7f00af62:	1004      	b	7f00af6c <system+0xa4>
7f00af64:	6a01      	li	v0,1
7f00af66:	1002      	b	7f00af6c <system+0xa4>
7f00af68:	6a01      	li	v0,1
7f00af6a:	ea4b      	neg	v0
7f00af6c:	6478      	restore	64,ra,s0-s1
7f00af6e:	e8a0      	jrc	ra
7f00af70:	0000      	addiu	s0,sp,0
7f00af72:	0008      	addiu	s0,sp,32
7f00af74:	ea34      	dsllv	s1,v0
7f00af76:	7f00      	sd	s0,0(a3)
7f00af78:	ea3c      	dmult	v0,s1
7f00af7a:	7f00      	sd	s0,0(a3)
7f00af7c:	eb5c      	dmult	v1,v0
7f00af7e:	7f00      	sd	s0,0(a3)

7f00af80 <time>:
7f00af80:	64e4      	save	32,ra,s0
7f00af82:	6d00      	li	a1,0
7f00af84:	6704      	move	s0,a0
7f00af86:	1c1e 33dc 	jalx	7f00cf70 <gettimeofday>
7f00af8a:	0404      	addiu	a0,sp,16
7f00af8c:	5200      	slti	v0,0
7f00af8e:	6104      	btnez	7f00af98 <time+0x18>
7f00af90:	9204      	lw	v0,16(sp)
7f00af92:	2004      	beqz	s0,7f00af9c <time+0x1c>
7f00af94:	d840      	sw	v0,0(s0)
7f00af96:	1002      	b	7f00af9c <time+0x1c>
7f00af98:	6a01      	li	v0,1
7f00af9a:	ea4b      	neg	v0
7f00af9c:	6464      	restore	32,ra,s0
7f00af9e:	e8a0      	jrc	ra

7f00afa0 <vfork>:
7f00afa0:	0000008c 	syscall	0x2
7f00afa4:	3c097f01 	lui	t1,0x7f01
7f00afa8:	ad28f160 	sw	t0,-3744(t1)
7f00afac:	03e00008 	jr	ra
7f00afb0:	00000000 	nop

7f00afb4 <wait>:
7f00afb4:	67a4      	move	a1,a0
7f00afb6:	6e00      	li	a2,0
7f00afb8:	6c01      	li	a0,1
7f00afba:	64c3      	save	24,ra
7f00afbc:	ec8b      	neg	a0
7f00afbe:	1c1e 2bf2 	jalx	7f00afc8 <wait4>
7f00afc2:	67e6      	move	a3,a2
7f00afc4:	6443      	restore	24,ra
7f00afc6:	e8a0      	jrc	ra

7f00afc8 <wait4>:
7f00afc8:	000001cc 	syscall	0x7
7f00afcc:	3c097f01 	lui	t1,0x7f01
7f00afd0:	ad28f160 	sw	t0,-3744(t1)
7f00afd4:	03e00008 	jr	ra
7f00afd8:	00000000 	nop

7f00afdc <waitpid>:
7f00afdc:	64c3      	save	24,ra
7f00afde:	1c1e 2bf2 	jalx	7f00afc8 <wait4>
7f00afe2:	6f00      	li	a3,0
7f00afe4:	6443      	restore	24,ra
7f00afe6:	e8a0      	jrc	ra

7f00afe8 <write>:
7f00afe8:	0000010c 	syscall	0x4
7f00afec:	3c097f01 	lui	t1,0x7f01
7f00aff0:	ad28f160 	sw	t0,-3744(t1)
7f00aff4:	03e00008 	jr	ra
7f00aff8:	00000000 	nop

7f00affc <_brk>:
7f00affc:	0000114c 	syscall	0x45
7f00b000:	3c097f01 	lui	t1,0x7f01
7f00b004:	ad28f160 	sw	t0,-3744(t1)
7f00b008:	03e00008 	jr	ra
7f00b00c:	00000000 	nop

7f00b010 <_exit>:
7f00b010:	0000004c 	syscall	0x1

7f00b014 <bcopy>:
7f00b014:	0085402b 	sltu	t0,a0,a1
7f00b018:	1500003f 	bnez	t0,7f00b118 <bcopy+0x104>
7f00b01c:	30a90003 	andi	t1,a1,0x3
7f00b020:	15200025 	bnez	t1,7f00b0b8 <bcopy+0xa4>
7f00b024:	30880003 	andi	t0,a0,0x3
7f00b028:	1500002d 	bnez	t0,7f00b0e0 <bcopy+0xcc>
7f00b02c:	2401ffe0 	li	at,-32
7f00b030:	00c14024 	and	t0,a2,at
7f00b034:	00883821 	addu	a3,a0,t0
7f00b038:	0087082b 	sltu	at,a0,a3
7f00b03c:	10200014 	beqz	at,7f00b090 <bcopy+0x7c>
7f00b040:	00c83023 	subu	a2,a2,t0
7f00b044:	8c8b0000 	lw	t3,0(a0)
7f00b048:	8c830004 	lw	v1,4(a0)
7f00b04c:	8c880008 	lw	t0,8(a0)
7f00b050:	8c89000c 	lw	t1,12(a0)
7f00b054:	24840020 	addiu	a0,a0,32
7f00b058:	acab0000 	sw	t3,0(a1)
7f00b05c:	aca30004 	sw	v1,4(a1)
7f00b060:	aca80008 	sw	t0,8(a1)
7f00b064:	aca9000c 	sw	t1,12(a1)
7f00b068:	8c89fffc 	lw	t1,-4(a0)
7f00b06c:	8c88fff8 	lw	t0,-8(a0)
7f00b070:	8c83fff4 	lw	v1,-12(a0)
7f00b074:	8c8bfff0 	lw	t3,-16(a0)
7f00b078:	24a50020 	addiu	a1,a1,32
7f00b07c:	aca9fffc 	sw	t1,-4(a1)
7f00b080:	aca8fff8 	sw	t0,-8(a1)
7f00b084:	aca3fff4 	sw	v1,-12(a1)
7f00b088:	1487ffee 	bne	a0,a3,7f00b044 <bcopy+0x30>
7f00b08c:	acabfff0 	sw	t3,-16(a1)
7f00b090:	30ca0003 	andi	t2,a2,0x3
7f00b094:	00ca5023 	subu	t2,a2,t2
7f00b098:	11400007 	beqz	t2,7f00b0b8 <bcopy+0xa4>
7f00b09c:	008a4021 	addu	t0,a0,t2
7f00b0a0:	00ca3023 	subu	a2,a2,t2
7f00b0a4:	8c8b0000 	lw	t3,0(a0)
7f00b0a8:	24840004 	addiu	a0,a0,4
7f00b0ac:	acab0000 	sw	t3,0(a1)
7f00b0b0:	1488fffc 	bne	a0,t0,7f00b0a4 <bcopy+0x90>
7f00b0b4:	24a50004 	addiu	a1,a1,4
7f00b0b8:	10c00007 	beqz	a2,7f00b0d8 <bcopy+0xc4>
7f00b0bc:	00000000 	nop
7f00b0c0:	808b0000 	lb	t3,0(a0)
7f00b0c4:	24840001 	addiu	a0,a0,1
7f00b0c8:	a0ab0000 	sb	t3,0(a1)
7f00b0cc:	24c6ffff 	addiu	a2,a2,-1
7f00b0d0:	1cc0fffb 	bgtz	a2,7f00b0c0 <bcopy+0xac>
7f00b0d4:	24a50001 	addiu	a1,a1,1
7f00b0d8:	03e00008 	jr	ra
7f00b0dc:	00000000 	nop
7f00b0e0:	30c80003 	andi	t0,a2,0x3
7f00b0e4:	00c83823 	subu	a3,a2,t0
7f00b0e8:	10e0fff3 	beqz	a3,7f00b0b8 <bcopy+0xa4>
7f00b0ec:	00000000 	nop
7f00b0f0:	01003021 	move	a2,t0
7f00b0f4:	00873821 	addu	a3,a0,a3
7f00b0f8:	988b0000 	lwr	t3,0(a0)
7f00b0fc:	888b0003 	lwl	t3,3(a0)
7f00b100:	20840004 	addi	a0,a0,4
7f00b104:	acab0000 	sw	t3,0(a1)
7f00b108:	1487fffb 	bne	a0,a3,7f00b0f8 <bcopy+0xe4>
7f00b10c:	20a50004 	addi	a1,a1,4
7f00b110:	0bc02c2e 	j	7f00b0b8 <bcopy+0xa4>
7f00b114:	00000000 	nop
7f00b118:	00862021 	addu	a0,a0,a2
7f00b11c:	00a62821 	addu	a1,a1,a2
7f00b120:	30a90003 	andi	t1,a1,0x3
7f00b124:	15200024 	bnez	t1,7f00b1b8 <bcopy+0x1a4>
7f00b128:	30880003 	andi	t0,a0,0x3
7f00b12c:	1500002c 	bnez	t0,7f00b1e0 <bcopy+0x1cc>
7f00b130:	2401ffe0 	li	at,-32
7f00b134:	00c14024 	and	t0,a2,at
7f00b138:	11000015 	beqz	t0,7f00b190 <bcopy+0x17c>
7f00b13c:	00c83023 	subu	a2,a2,t0
7f00b140:	00883823 	subu	a3,a0,t0
7f00b144:	8c8bfff0 	lw	t3,-16(a0)
7f00b148:	8c83fff4 	lw	v1,-12(a0)
7f00b14c:	8c88fff8 	lw	t0,-8(a0)
7f00b150:	8c89fffc 	lw	t1,-4(a0)
7f00b154:	2484ffe0 	addiu	a0,a0,-32
7f00b158:	acabfff0 	sw	t3,-16(a1)
7f00b15c:	aca3fff4 	sw	v1,-12(a1)
7f00b160:	aca8fff8 	sw	t0,-8(a1)
7f00b164:	aca9fffc 	sw	t1,-4(a1)
7f00b168:	8c89000c 	lw	t1,12(a0)
7f00b16c:	8c880008 	lw	t0,8(a0)
7f00b170:	8c830004 	lw	v1,4(a0)
7f00b174:	8c8b0000 	lw	t3,0(a0)
7f00b178:	24a5ffe0 	addiu	a1,a1,-32
7f00b17c:	aca9000c 	sw	t1,12(a1)
7f00b180:	aca80008 	sw	t0,8(a1)
7f00b184:	aca30004 	sw	v1,4(a1)
7f00b188:	1487ffee 	bne	a0,a3,7f00b144 <bcopy+0x130>
7f00b18c:	acab0000 	sw	t3,0(a1)
7f00b190:	30ca0003 	andi	t2,a2,0x3
7f00b194:	00ca5023 	subu	t2,a2,t2
7f00b198:	11400007 	beqz	t2,7f00b1b8 <bcopy+0x1a4>
7f00b19c:	008a4023 	subu	t0,a0,t2
7f00b1a0:	00ca3023 	subu	a2,a2,t2
7f00b1a4:	8c8bfffc 	lw	t3,-4(a0)
7f00b1a8:	2484fffc 	addiu	a0,a0,-4
7f00b1ac:	acabfffc 	sw	t3,-4(a1)
7f00b1b0:	1488fffc 	bne	a0,t0,7f00b1a4 <bcopy+0x190>
7f00b1b4:	24a5fffc 	addiu	a1,a1,-4
7f00b1b8:	10c00007 	beqz	a2,7f00b1d8 <bcopy+0x1c4>
7f00b1bc:	00000000 	nop
7f00b1c0:	808bffff 	lb	t3,-1(a0)
7f00b1c4:	2484ffff 	addiu	a0,a0,-1
7f00b1c8:	a0abffff 	sb	t3,-1(a1)
7f00b1cc:	24c6ffff 	addiu	a2,a2,-1
7f00b1d0:	1cc0fffb 	bgtz	a2,7f00b1c0 <bcopy+0x1ac>
7f00b1d4:	24a5ffff 	addiu	a1,a1,-1
7f00b1d8:	03e00008 	jr	ra
7f00b1dc:	00000000 	nop
7f00b1e0:	30c80003 	andi	t0,a2,0x3
7f00b1e4:	00c83823 	subu	a3,a2,t0
7f00b1e8:	10e0fff3 	beqz	a3,7f00b1b8 <bcopy+0x1a4>
7f00b1ec:	00000000 	nop
7f00b1f0:	01003021 	move	a2,t0
7f00b1f4:	00873823 	subu	a3,a0,a3
7f00b1f8:	988bfffc 	lwr	t3,-4(a0)
7f00b1fc:	888bffff 	lwl	t3,-1(a0)
7f00b200:	2484fffc 	addiu	a0,a0,-4
7f00b204:	acabfffc 	sw	t3,-4(a1)
7f00b208:	1487fffb 	bne	a0,a3,7f00b1f8 <bcopy+0x1e4>
7f00b20c:	24a5fffc 	addiu	a1,a1,-4
7f00b210:	0bc02c6e 	j	7f00b1b8 <bcopy+0x1a4>
7f00b214:	00000000 	nop

7f00b218 <calloc>:
7f00b218:	ed98      	mult	a1,a0
7f00b21a:	64f4      	save	32,ra,s0-s1
7f00b21c:	ec12      	mflo	a0
7f00b21e:	181e 2b09 	jal	7f00ac24 <malloc>
7f00b222:	e912      	mflo	s1
7f00b224:	6702      	move	s0,v0
7f00b226:	2205      	beqz	v0,7f00b232 <calloc+0x1a>
7f00b228:	6782      	move	a0,v0
7f00b22a:	6d00      	li	a1,0
7f00b22c:	1c1e 33e6 	jalx	7f00cf98 <memset>
7f00b230:	67d1      	move	a2,s1
7f00b232:	6750      	move	v0,s0
7f00b234:	6474      	restore	32,ra,s0-s1
7f00b236:	e8a0      	jrc	ra

7f00b238 <cfree>:
7f00b238:	64c3      	save	24,ra
7f00b23a:	181e 2b51 	jal	7f00ad44 <free>
7f00b23e:	6500      	nop
7f00b240:	6443      	restore	24,ra
7f00b242:	e8a0      	jrc	ra

7f00b244 <close>:
7f00b244:	0000018c 	syscall	0x6
7f00b248:	3c097f01 	lui	t1,0x7f01
7f00b24c:	ad28f160 	sw	t0,-3744(t1)
7f00b250:	03e00008 	jr	ra
7f00b254:	00000000 	nop

7f00b258 <ksprintn>:
7f00b258:	64b1      	save	8,s0-s1
7f00b25a:	6a00      	li	v0,0
7f00b25c:	9306      	lw	v1,24(sp)
7f00b25e:	c440      	sb	v0,0(a0)
7f00b260:	6744      	move	v0,a0
7f00b262:	eddb      	divu	zero,a1,a2
7f00b264:	2e01      	bnez	a2,7f00b268 <ksprintn+0x10>
7f00b266:	e8e5      	break	7
7f00b268:	690f      	li	s1,15
7f00b26a:	6519      	move	t8,s1
7f00b26c:	6738      	move	s1,t8
7f00b26e:	4a01      	addiu	v0,1
7f00b270:	e810      	mfhi	s0
7f00b272:	e82c      	and	s0,s1
7f00b274:	4027      	addiu	s1,s0,7
7f00b276:	580a      	sltiu	s0,10
7f00b278:	4929      	addiu	s1,41
7f00b27a:	6102      	btnez	7f00b280 <ksprintn+0x28>
7f00b27c:	4027      	addiu	s1,s0,7
7f00b27e:	4950      	addiu	s1,80
7f00b280:	eddb      	divu	zero,a1,a2
7f00b282:	2e01      	bnez	a2,7f00b286 <ksprintn+0x2e>
7f00b284:	e8e5      	break	7
7f00b286:	4fff      	addiu	a3,-1
7f00b288:	5701      	slti	a3,1
7f00b28a:	c220      	sb	s1,0(v0)
7f00b28c:	ed12      	mflo	a1
7f00b28e:	60e9      	bteqz	7f00b262 <ksprintn+0xa>
7f00b290:	2de8      	bnez	a1,7f00b262 <ksprintn+0xa>
7f00b292:	2302      	beqz	v1,7f00b298 <ksprintn+0x40>
7f00b294:	e293      	subu	a0,v0,a0
7f00b296:	c380      	sb	a0,0(v1)
7f00b298:	6431      	restore	8,s0-s1
7f00b29a:	e8a0      	jrc	ra

7f00b29c <cvtround>:
7f00b29c:	64f6      	save	48,ra,s0-s1
7f00b29e:	d50d      	sw	a1,52(sp)
7f00b2a0:	b52d      	lw	a1,7f00b354 <cvtround+0xb8>
7f00b2a2:	6764      	move	v1,a0
7f00b2a4:	675d      	move	v0,sp
7f00b2a6:	f040 a200 	lbu	s0,64(v0)
7f00b2aa:	d60e      	sw	a2,56(sp)
7f00b2ac:	d306      	sw	v1,24(sp)
7f00b2ae:	1c1e 3698 	jalx	7f00da60 <__eqsf2>
7f00b2b2:	6727      	move	s1,a3
7f00b2b4:	9306      	lw	v1,24(sp)
7f00b2b6:	2209      	beqz	v0,7f00b2ca <cvtround+0x2e>
7f00b2b8:	b528      	lw	a1,7f00b358 <cvtround+0xbc>
7f00b2ba:	1c1e 3726 	jalx	7f00dc98 <__mulsf3>
7f00b2be:	6783      	move	a0,v1
7f00b2c0:	6782      	move	a0,v0
7f00b2c2:	181e 3401 	jal	7f00d004 <modf>
7f00b2c6:	0504      	addiu	a1,sp,16
7f00b2c8:	1005      	b	7f00b2d4 <cvtround+0x38>
7f00b2ca:	4088      	addiu	a0,s0,-8
7f00b2cc:	1c1e 3992 	jalx	7f00e648 <__floatsisf>
7f00b2d0:	4cd8      	addiu	a0,-40
7f00b2d2:	d204      	sw	v0,16(sp)
7f00b2d4:	b522      	lw	a1,7f00b35c <cvtround+0xc0>
7f00b2d6:	1c1e 36b6 	jalx	7f00dad8 <__gesf2>
7f00b2da:	9404      	lw	a0,16(sp)
7f00b2dc:	5201      	slti	v0,1
7f00b2de:	6123      	btnez	7f00b326 <cvtround+0x8a>
7f00b2e0:	a140      	lbu	v0,0(s1)
7f00b2e2:	722e      	cmpi	v0,46
7f00b2e4:	6778      	move	v1,t8
7f00b2e6:	5b01      	sltiu	v1,1
7f00b2e8:	6758      	move	v0,t8
7f00b2ea:	e147      	subu	s1,v0
7f00b2ec:	a140      	lbu	v0,0(s1)
7f00b2ee:	4a01      	addiu	v0,1
7f00b2f0:	ea11      	zeb	v0
7f00b2f2:	5a3a      	sltiu	v0,58
7f00b2f4:	c140      	sb	v0,0(s1)
7f00b2f6:	612b      	btnez	7f00b34e <cvtround+0xb2>
7f00b2f8:	6a30      	li	v0,48
7f00b2fa:	c140      	sb	v0,0(s1)
7f00b2fc:	930e      	lw	v1,56(sp)
7f00b2fe:	e96a      	cmp	s1,v1
7f00b300:	6110      	btnez	7f00b322 <cvtround+0x86>
7f00b302:	920d      	lw	v0,52(sp)
7f00b304:	2207      	beqz	v0,7f00b314 <cvtround+0x78>
7f00b306:	6a31      	li	v0,49
7f00b308:	c140      	sb	v0,0(s1)
7f00b30a:	930d      	lw	v1,52(sp)
7f00b30c:	9b40      	lw	v0,0(v1)
7f00b30e:	4a01      	addiu	v0,1
7f00b310:	db40      	sw	v0,0(v1)
7f00b312:	101d      	b	7f00b34e <cvtround+0xb2>
7f00b314:	6a31      	li	v0,49
7f00b316:	f7ff c15f 	sb	v0,-1(s1)
7f00b31a:	920e      	lw	v0,56(sp)
7f00b31c:	4aff      	addiu	v0,-1
7f00b31e:	d20e      	sw	v0,56(sp)
7f00b320:	1016      	b	7f00b34e <cvtround+0xb2>
7f00b322:	49ff      	addiu	s1,-1
7f00b324:	17dd      	b	7f00b2e0 <cvtround+0x44>
7f00b326:	9311      	lw	v1,68(sp)
7f00b328:	a340      	lbu	v0,0(v1)
7f00b32a:	2211      	beqz	v0,7f00b34e <cvtround+0xb2>
7f00b32c:	a140      	lbu	v0,0(s1)
7f00b32e:	722e      	cmpi	v0,46
7f00b330:	6758      	move	v0,t8
7f00b332:	5a01      	sltiu	v0,1
7f00b334:	6778      	move	v1,t8
7f00b336:	e167      	subu	s1,v1
7f00b338:	a140      	lbu	v0,0(s1)
7f00b33a:	7230      	cmpi	v0,48
7f00b33c:	6108      	btnez	7f00b34e <cvtround+0xb2>
7f00b33e:	920e      	lw	v0,56(sp)
7f00b340:	e94a      	cmp	s1,v0
7f00b342:	6103      	btnez	7f00b34a <cvtround+0xae>
7f00b344:	9311      	lw	v1,68(sp)
7f00b346:	6758      	move	v0,t8
7f00b348:	c340      	sb	v0,0(v1)
7f00b34a:	49ff      	addiu	s1,-1
7f00b34c:	17ef      	b	7f00b32c <cvtround+0x90>
7f00b34e:	920e      	lw	v0,56(sp)
7f00b350:	6476      	restore	48,ra,s0-s1
7f00b352:	e8a0      	jrc	ra
7f00b354:	0000      	addiu	s0,sp,0
7f00b356:	0000      	addiu	s0,sp,0
7f00b358:	0000      	addiu	s0,sp,0
7f00b35a:	4120      	addiu	s1,s1,0
7f00b35c:	0000      	addiu	s0,sp,0
7f00b35e:	4080      	addiu	a0,s0,0

7f00b360 <_doprnt>:
7f00b360:	f018 64f6 	save	a0-a1,176,ra,s0-s1
7f00b364:	6a00      	li	v0,0
7f00b366:	6726      	move	s1,a2
7f00b368:	d21b      	sw	v0,108(sp)
7f00b36a:	f2a1 2606 	beqz	a2,7f00c8ba <_doprnt+0x155a>
7f00b36e:	2c03      	bnez	a0,7f00b376 <_doprnt+0x16>
7f00b370:	f562 b314 	lw	v1,7f00c8e4 <_doprnt+0x1584>
7f00b374:	d32c      	sw	v1,176(sp)
7f00b376:	6c00      	li	a0,0
7f00b378:	f281 101c 	b	7f00c8b4 <_doprnt+0x1554>
7f00b37c:	f281 241d 	beqz	a0,7f00c8ba <_doprnt+0x155a>
7f00b380:	9960      	lw	v1,0(s1)
7f00b382:	4bff      	addiu	v1,-1
7f00b384:	5300      	slti	v1,0
7f00b386:	d960      	sw	v1,0(s1)
7f00b388:	6105      	btnez	7f00b394 <_doprnt+0x34>
7f00b38a:	9941      	lw	v0,4(s1)
7f00b38c:	c280      	sb	a0,0(v0)
7f00b38e:	4a01      	addiu	v0,1
7f00b390:	d941      	sw	v0,4(s1)
7f00b392:	1014      	b	7f00b3bc <_doprnt+0x5c>
7f00b394:	a9a8      	lhu	a1,16(s1)
7f00b396:	6e80      	li	a2,128
7f00b398:	edcc      	and	a1,a2
7f00b39a:	250d      	beqz	a1,7f00b3b6 <_doprnt+0x56>
7f00b39c:	99a3      	lw	a1,12(s1)
7f00b39e:	eb6b      	neg	v1
7f00b3a0:	eba2      	slt	v1,a1
7f00b3a2:	6009      	bteqz	7f00b3b6 <_doprnt+0x56>
7f00b3a4:	9961      	lw	v1,4(s1)
7f00b3a6:	720a      	cmpi	v0,10
7f00b3a8:	c340      	sb	v0,0(v1)
7f00b3aa:	9961      	lw	v1,4(s1)
7f00b3ac:	6003      	bteqz	7f00b3b4 <_doprnt+0x54>
7f00b3ae:	4b01      	addiu	v1,1
7f00b3b0:	d961      	sw	v1,4(s1)
7f00b3b2:	1004      	b	7f00b3bc <_doprnt+0x5c>
7f00b3b4:	a380      	lbu	a0,0(v1)
7f00b3b6:	181e 2a09 	jal	7f00a824 <_flsbuf>
7f00b3ba:	67b1      	move	a1,s1
7f00b3bc:	951b      	lw	a1,108(sp)
7f00b3be:	4d01      	addiu	a1,1
7f00b3c0:	d51b      	sw	a1,108(sp)
7f00b3c2:	932c      	lw	v1,176(sp)
7f00b3c4:	8340      	lb	v0,0(v1)
7f00b3c6:	4b01      	addiu	v1,1
7f00b3c8:	d32c      	sw	v1,176(sp)
7f00b3ca:	6782      	move	a0,v0
7f00b3cc:	ec11      	zeb	a0
7f00b3ce:	7425      	cmpi	a0,37
7f00b3d0:	61d5      	btnez	7f00b37c <_doprnt+0x1c>
7f00b3d2:	67b8      	move	a1,t8
7f00b3d4:	679d      	move	a0,sp
7f00b3d6:	6b01      	li	v1,1
7f00b3d8:	c4b8      	sb	a1,24(a0)
7f00b3da:	eb6b      	neg	v1
7f00b3dc:	d31a      	sw	v1,104(sp)
7f00b3de:	67c3      	move	a2,v1
7f00b3e0:	932d      	lw	v1,180(sp)
7f00b3e2:	6a00      	li	v0,0
7f00b3e4:	6c20      	li	a0,32
7f00b3e6:	d223      	sw	v0,140(sp)
7f00b3e8:	d21c      	sw	v0,112(sp)
7f00b3ea:	d220      	sw	v0,128(sp)
7f00b3ec:	d21e      	sw	v0,120(sp)
7f00b3ee:	6702      	move	s0,v0
7f00b3f0:	d421      	sw	a0,132(sp)
7f00b3f2:	67a2      	move	a1,v0
7f00b3f4:	656a      	move	t3,v0
7f00b3f6:	650a      	move	t0,v0
7f00b3f8:	972c      	lw	a3,176(sp)
7f00b3fa:	652b      	move	t1,v1
7f00b3fc:	100d      	b	7f00b418 <_doprnt+0xb8>
7f00b3fe:	6c01      	li	a0,1
7f00b400:	6a20      	li	v0,32
7f00b402:	6e00      	li	a2,0
7f00b404:	656c      	move	t3,a0
7f00b406:	d221      	sw	v0,132(sp)
7f00b408:	1007      	b	7f00b418 <_doprnt+0xb8>
7f00b40a:	6b01      	li	v1,1
7f00b40c:	d320      	sw	v1,128(sp)
7f00b40e:	1004      	b	7f00b418 <_doprnt+0xb8>
7f00b410:	6c30      	li	a0,48
7f00b412:	d421      	sw	a0,132(sp)
7f00b414:	1001      	b	7f00b418 <_doprnt+0xb8>
7f00b416:	650b      	move	t0,v1
7f00b418:	8740      	lb	v0,0(a3)
7f00b41a:	4f01      	addiu	a3,1
7f00b41c:	6782      	move	a0,v0
7f00b41e:	ec11      	zeb	a0
7f00b420:	4468      	addiu	v1,a0,-8
7f00b422:	4be5      	addiu	v1,-27
7f00b424:	658a      	move	t4,v0
7f00b426:	6743      	move	v0,v1
7f00b428:	ea11      	zeb	v0
7f00b42a:	5a58      	sltiu	v0,88
7f00b42c:	f1c1 6019 	bteqz	7f00c7e2 <_doprnt+0x1482>
7f00b430:	0b04      	la	v1,7f00b440 <_doprnt+0xe0>
7f00b432:	3244      	sll	v0,1
7f00b434:	651b      	move	t8,v1
7f00b436:	e34d      	addu	v1,v0
7f00b438:	8b40      	lh	v0,0(v1)
7f00b43a:	6778      	move	v1,t8
7f00b43c:	e269      	addu	v0,v1
7f00b43e:	ea80      	jrc	v0
7f00b440:	ffcb      	daddiu	a2,sp,44
7f00b442:	13a3      	b	7f00bb8a <_doprnt+0x82a>
7f00b444:	00c1      	addiu	s0,sp,772
7f00b446:	13a3      	b	7f00bb8e <_doprnt+0x82e>
7f00b448:	13a3      	b	7f00bb90 <_doprnt+0x830>
7f00b44a:	13a3      	b	7f00bb92 <_doprnt+0x832>
7f00b44c:	13a3      	b	7f00bb94 <_doprnt+0x834>
7f00b44e:	010f      	addiu	s1,sp,60
7f00b450:	00b5      	addiu	s0,sp,724
7f00b452:	13a3      	b	7f00bb9a <_doprnt+0x83a>
7f00b454:	00bd      	addiu	s0,sp,756
7f00b456:	ffbf      	daddiu	a1,sp,124
7f00b458:	13a3      	b	7f00bba0 <_doprnt+0x840>
7f00b45a:	0139      	addiu	s1,sp,228
7f00b45c:	00b1      	addiu	s0,sp,708
7f00b45e:	00b1      	addiu	s0,sp,708
7f00b460:	00b1      	addiu	s0,sp,708
7f00b462:	00b1      	addiu	s0,sp,708
7f00b464:	00b1      	addiu	s0,sp,708
7f00b466:	00b1      	addiu	s0,sp,708
7f00b468:	00b1      	addiu	s0,sp,708
7f00b46a:	00b1      	addiu	s0,sp,708
7f00b46c:	00b1      	addiu	s0,sp,708
7f00b46e:	13a3      	b	7f00bbb6 <_doprnt+0x856>
7f00b470:	13a3      	b	7f00bbb8 <_doprnt+0x858>
7f00b472:	13a3      	b	7f00bbba <_doprnt+0x85a>
7f00b474:	13a3      	b	7f00bbbc <_doprnt+0x85c>
7f00b476:	13a3      	b	7f00bbbe <_doprnt+0x85e>
7f00b478:	13a3      	b	7f00bbc0 <_doprnt+0x860>
7f00b47a:	13a3      	b	7f00bbc2 <_doprnt+0x862>
7f00b47c:	13a3      	b	7f00bbc4 <_doprnt+0x864>
7f00b47e:	13a3      	b	7f00bbc6 <_doprnt+0x866>
7f00b480:	13a3      	b	7f00bbc8 <_doprnt+0x868>
7f00b482:	0409      	addiu	a0,sp,36
7f00b484:	0b85      	la	v1,7f00b698 <_doprnt+0x338>
7f00b486:	0b85      	la	v1,7f00b698 <_doprnt+0x338>
7f00b488:	0b85      	la	v1,7f00b69c <_doprnt+0x33c>
7f00b48a:	13a3      	b	7f00bbd2 <_doprnt+0x872>
7f00b48c:	13a3      	b	7f00bbd4 <_doprnt+0x874>
7f00b48e:	13a3      	b	7f00bbd6 <_doprnt+0x876>
7f00b490:	13a3      	b	7f00bbd8 <_doprnt+0x878>
7f00b492:	13a3      	b	7f00bbda <_doprnt+0x87a>
7f00b494:	13a3      	b	7f00bbdc <_doprnt+0x87c>
7f00b496:	13a3      	b	7f00bbde <_doprnt+0x87e>
7f00b498:	13a3      	b	7f00bbe0 <_doprnt+0x880>
7f00b49a:	13a3      	b	7f00bbe2 <_doprnt+0x882>
7f00b49c:	13a3      	b	7f00bbe4 <_doprnt+0x884>
7f00b49e:	13a3      	b	7f00bbe6 <_doprnt+0x886>
7f00b4a0:	13a3      	b	7f00bbe8 <_doprnt+0x888>
7f00b4a2:	13a3      	b	7f00bbea <_doprnt+0x88a>
7f00b4a4:	13a3      	b	7f00bbec <_doprnt+0x88c>
7f00b4a6:	13a3      	b	7f00bbee <_doprnt+0x88e>
7f00b4a8:	13a3      	b	7f00bbf0 <_doprnt+0x890>
7f00b4aa:	076d      	addiu	a3,sp,436
7f00b4ac:	13a3      	b	7f00bbf4 <_doprnt+0x894>
7f00b4ae:	079d      	addiu	a3,sp,628
7f00b4b0:	13a3      	b	7f00bbf8 <_doprnt+0x898>
7f00b4b2:	13a3      	b	7f00bbfa <_doprnt+0x89a>
7f00b4b4:	13a3      	b	7f00bbfc <_doprnt+0x89c>
7f00b4b6:	13a3      	b	7f00bbfe <_doprnt+0x89e>
7f00b4b8:	13a3      	b	7f00bc00 <_doprnt+0x8a0>
7f00b4ba:	13a3      	b	7f00bc02 <_doprnt+0x8a2>
7f00b4bc:	13a3      	b	7f00bc04 <_doprnt+0x8a4>
7f00b4be:	0169      	addiu	s1,sp,420
7f00b4c0:	02e1      	addiu	v0,sp,900
7f00b4c2:	03f7      	addiu	v1,sp,988
7f00b4c4:	0b85      	la	v1,7f00b6d8 <_doprnt+0x378>
7f00b4c6:	0b85      	la	v1,7f00b6d8 <_doprnt+0x378>
7f00b4c8:	0b85      	la	v1,7f00b6dc <_doprnt+0x37c>
7f00b4ca:	13a3      	b	7f00bc12 <_doprnt+0x8b2>
7f00b4cc:	03f7      	addiu	v1,sp,988
7f00b4ce:	13a3      	b	7f00bc16 <_doprnt+0x8b6>
7f00b4d0:	13a3      	b	7f00bc18 <_doprnt+0x8b8>
7f00b4d2:	0433      	addiu	a0,sp,204
7f00b4d4:	13a3      	b	7f00bc1c <_doprnt+0x8bc>
7f00b4d6:	0491      	addiu	a0,sp,580
7f00b4d8:	0437      	addiu	a0,sp,220
7f00b4da:	0463      	addiu	a0,sp,396
7f00b4dc:	13a3      	b	7f00bc24 <_doprnt+0x8c4>
7f00b4de:	0627      	addiu	a2,sp,156
7f00b4e0:	04c1      	addiu	a0,sp,772
7f00b4e2:	13a3      	b	7f00bc2a <_doprnt+0x8ca>
7f00b4e4:	0743      	addiu	a3,sp,268
7f00b4e6:	13a3      	b	7f00bc2e <_doprnt+0x8ce>
7f00b4e8:	13a3      	b	7f00bc30 <_doprnt+0x8d0>
7f00b4ea:	076d      	addiu	a3,sp,436
7f00b4ec:	13a3      	b	7f00bc34 <_doprnt+0x8d4>
7f00b4ee:	079d      	addiu	a3,sp,628
7f00b4f0:	6b00      	li	v1,0
7f00b4f2:	1046      	b	7f00b580 <_doprnt+0x220>
7f00b4f4:	6c01      	li	a0,1
7f00b4f6:	ec8b      	neg	a0
7f00b4f8:	d423      	sw	a0,140(sp)
7f00b4fa:	178e      	b	7f00b418 <_doprnt+0xb8>
7f00b4fc:	6d01      	li	a1,1
7f00b4fe:	178c      	b	7f00b418 <_doprnt+0xb8>
7f00b500:	9940      	lw	v0,0(s1)
7f00b502:	67a9      	move	a1,t1
7f00b504:	676c      	move	v1,t4
7f00b506:	4aff      	addiu	v0,-1
7f00b508:	5200      	slti	v0,0
7f00b50a:	d72c      	sw	a3,176(sp)
7f00b50c:	d52d      	sw	a1,180(sp)
7f00b50e:	d940      	sw	v0,0(s1)
7f00b510:	6104      	btnez	7f00b51a <_doprnt+0x1ba>
7f00b512:	9941      	lw	v0,4(s1)
7f00b514:	6b25      	li	v1,37
7f00b516:	c260      	sb	v1,0(v0)
7f00b518:	100d      	b	7f00b534 <_doprnt+0x1d4>
7f00b51a:	a988      	lhu	a0,16(s1)
7f00b51c:	6d80      	li	a1,128
7f00b51e:	ecac      	and	a0,a1
7f00b520:	240e      	beqz	a0,7f00b53e <_doprnt+0x1de>
7f00b522:	9983      	lw	a0,12(s1)
7f00b524:	ea4b      	neg	v0
7f00b526:	ea82      	slt	v0,a0
7f00b528:	600a      	bteqz	7f00b53e <_doprnt+0x1de>
7f00b52a:	9941      	lw	v0,4(s1)
7f00b52c:	730a      	cmpi	v1,10
7f00b52e:	c260      	sb	v1,0(v0)
7f00b530:	9941      	lw	v0,4(s1)
7f00b532:	6003      	bteqz	7f00b53a <_doprnt+0x1da>
7f00b534:	4a01      	addiu	v0,1
7f00b536:	d941      	sw	v0,4(s1)
7f00b538:	1006      	b	7f00b546 <_doprnt+0x1e6>
7f00b53a:	a280      	lbu	a0,0(v0)
7f00b53c:	1001      	b	7f00b540 <_doprnt+0x1e0>
7f00b53e:	6c25      	li	a0,37
7f00b540:	181e 2a09 	jal	7f00a824 <_flsbuf>
7f00b544:	67b1      	move	a1,s1
7f00b546:	921b      	lw	v0,108(sp)
7f00b548:	4a01      	addiu	v0,1
7f00b54a:	f141 1007 	b	7f00c7dc <_doprnt+0x147c>
7f00b54e:	6749      	move	v0,t1
7f00b550:	6769      	move	v1,t1
7f00b552:	9a80      	lw	a0,0(v0)
7f00b554:	674b      	move	v0,t3
7f00b556:	4b04      	addiu	v1,4
7f00b558:	2a0a      	bnez	v0,7f00b56e <_doprnt+0x20e>
7f00b55a:	5400      	slti	a0,0
7f00b55c:	650c      	move	t0,a0
7f00b55e:	652b      	move	t1,v1
7f00b560:	f75f 601a 	bteqz	7f00b418 <_doprnt+0xb8>
7f00b564:	6b01      	li	v1,1
7f00b566:	ec8b      	neg	a0
7f00b568:	ed6e      	xor	a1,v1
7f00b56a:	650c      	move	t0,a0
7f00b56c:	1755      	b	7f00b418 <_doprnt+0xb8>
7f00b56e:	67c4      	move	a2,a0
7f00b570:	6c01      	li	a0,1
7f00b572:	652b      	move	t1,v1
7f00b574:	656c      	move	t3,a0
7f00b576:	1750      	b	7f00b418 <_doprnt+0xb8>
7f00b578:	674b      	move	v0,t3
7f00b57a:	f75f 2209 	beqz	v0,7f00b410 <_doprnt+0xb0>
7f00b57e:	17b8      	b	7f00b4f0 <_doprnt+0x190>
7f00b580:	6a0a      	li	v0,10
7f00b582:	eb58      	mult	v1,v0
7f00b584:	eb12      	mflo	v1
7f00b586:	e38d      	addu	v1,a0
7f00b588:	a780      	lbu	a0,0(a3)
7f00b58a:	4bd0      	addiu	v1,-48
7f00b58c:	4448      	addiu	v0,a0,-8
7f00b58e:	4ad8      	addiu	v0,-40
7f00b590:	ea11      	zeb	v0
7f00b592:	5a0a      	sltiu	v0,10
7f00b594:	6002      	bteqz	7f00b59a <_doprnt+0x23a>
7f00b596:	4f01      	addiu	a3,1
7f00b598:	17f3      	b	7f00b580 <_doprnt+0x220>
7f00b59a:	678b      	move	a0,t3
7f00b59c:	f73f 241b 	beqz	a0,7f00b416 <_doprnt+0xb6>
7f00b5a0:	6a01      	li	v0,1
7f00b5a2:	67c3      	move	a2,v1
7f00b5a4:	656a      	move	t3,v0
7f00b5a6:	1738      	b	7f00b418 <_doprnt+0xb8>
7f00b5a8:	6749      	move	v0,t1
7f00b5aa:	6769      	move	v1,t1
7f00b5ac:	4a04      	addiu	v0,4
7f00b5ae:	9b80      	lw	a0,0(v1)
7f00b5b0:	9a40      	lw	v0,0(v0)
7f00b5b2:	4b08      	addiu	v1,8
7f00b5b4:	d41a      	sw	a0,104(sp)
7f00b5b6:	d72c      	sw	a3,176(sp)
7f00b5b8:	d21c      	sw	v0,112(sp)
7f00b5ba:	d32d      	sw	v1,180(sp)
7f00b5bc:	a2c0      	lbu	a2,0(v0)
7f00b5be:	951a      	lw	a1,104(sp)
7f00b5c0:	6f01      	li	a3,1
7f00b5c2:	6a00      	li	v0,0
7f00b5c4:	040c      	addiu	a0,sp,48
7f00b5c6:	efeb      	neg	a3
7f00b5c8:	181e 2c96 	jal	7f00b258 <ksprintn>
7f00b5cc:	d204      	sw	v0,16(sp)
7f00b5ce:	420f      	addiu	s0,v0,-1
7f00b5d0:	1024      	b	7f00b61a <_doprnt+0x2ba>
7f00b5d2:	9940      	lw	v0,0(s1)
7f00b5d4:	4aff      	addiu	v0,-1
7f00b5d6:	5200      	slti	v0,0
7f00b5d8:	d940      	sw	v0,0(s1)
7f00b5da:	6104      	btnez	7f00b5e4 <_doprnt+0x284>
7f00b5dc:	9941      	lw	v0,4(s1)
7f00b5de:	a061      	lbu	v1,1(s0)
7f00b5e0:	c260      	sb	v1,0(v0)
7f00b5e2:	100e      	b	7f00b600 <_doprnt+0x2a0>
7f00b5e4:	a968      	lhu	v1,16(s1)
7f00b5e6:	6c80      	li	a0,128
7f00b5e8:	eb8c      	and	v1,a0
7f00b5ea:	230f      	beqz	v1,7f00b60a <_doprnt+0x2aa>
7f00b5ec:	9963      	lw	v1,12(s1)
7f00b5ee:	ea4b      	neg	v0
7f00b5f0:	ea62      	slt	v0,v1
7f00b5f2:	600b      	bteqz	7f00b60a <_doprnt+0x2aa>
7f00b5f4:	8041      	lb	v0,1(s0)
7f00b5f6:	9961      	lw	v1,4(s1)
7f00b5f8:	720a      	cmpi	v0,10
7f00b5fa:	c340      	sb	v0,0(v1)
7f00b5fc:	9941      	lw	v0,4(s1)
7f00b5fe:	6003      	bteqz	7f00b606 <_doprnt+0x2a6>
7f00b600:	4a01      	addiu	v0,1
7f00b602:	d941      	sw	v0,4(s1)
7f00b604:	1006      	b	7f00b612 <_doprnt+0x2b2>
7f00b606:	a280      	lbu	a0,0(v0)
7f00b608:	1001      	b	7f00b60c <_doprnt+0x2ac>
7f00b60a:	a081      	lbu	a0,1(s0)
7f00b60c:	181e 2a09 	jal	7f00a824 <_flsbuf>
7f00b610:	67b1      	move	a1,s1
7f00b612:	951b      	lw	a1,108(sp)
7f00b614:	48ff      	addiu	s0,-1
7f00b616:	4d01      	addiu	a1,1
7f00b618:	d51b      	sw	a1,108(sp)
7f00b61a:	a041      	lbu	v0,1(s0)
7f00b61c:	2ada      	bnez	v0,7f00b5d2 <_doprnt+0x272>
7f00b61e:	931a      	lw	v1,104(sp)
7f00b620:	f6df 230f 	beqz	v1,7f00b3c2 <_doprnt+0x62>
7f00b624:	931c      	lw	v1,112(sp)
7f00b626:	679d      	move	a0,sp
7f00b628:	c459      	sb	v0,25(a0)
7f00b62a:	4b01      	addiu	v1,1
7f00b62c:	105d      	b	7f00b6e8 <_doprnt+0x388>
7f00b62e:	951a      	lw	a1,104(sp)
7f00b630:	4aff      	addiu	v0,-1
7f00b632:	6c01      	li	a0,1
7f00b634:	eaa6      	srlv	a1,v0
7f00b636:	6745      	move	v0,a1
7f00b638:	ea8c      	and	v0,a0
7f00b63a:	4301      	addiu	s0,v1,1
7f00b63c:	2251      	beqz	v0,7f00b6e0 <_doprnt+0x380>
7f00b63e:	9980      	lw	a0,0(s1)
7f00b640:	67bd      	move	a1,sp
7f00b642:	a559      	lbu	v0,25(a1)
7f00b644:	4cff      	addiu	a0,-1
7f00b646:	5400      	slti	a0,0
7f00b648:	d980      	sw	a0,0(s1)
7f00b64a:	6108      	btnez	7f00b65c <_doprnt+0x2fc>
7f00b64c:	9981      	lw	a0,4(s1)
7f00b64e:	6d3c      	li	a1,60
7f00b650:	2201      	beqz	v0,7f00b654 <_doprnt+0x2f4>
7f00b652:	6d2c      	li	a1,44
7f00b654:	c4a0      	sb	a1,0(a0)
7f00b656:	4c01      	addiu	a0,1
7f00b658:	d981      	sw	a0,4(s1)
7f00b65a:	1036      	b	7f00b6c8 <_doprnt+0x368>
7f00b65c:	a9a8      	lhu	a1,16(s1)
7f00b65e:	6e80      	li	a2,128
7f00b660:	edcc      	and	a1,a2
7f00b662:	250d      	beqz	a1,7f00b67e <_doprnt+0x31e>
7f00b664:	99a3      	lw	a1,12(s1)
7f00b666:	ec8b      	neg	a0
7f00b668:	eca2      	slt	a0,a1
7f00b66a:	6009      	bteqz	7f00b67e <_doprnt+0x31e>
7f00b66c:	99a1      	lw	a1,4(s1)
7f00b66e:	6c3c      	li	a0,60
7f00b670:	2201      	beqz	v0,7f00b674 <_doprnt+0x314>
7f00b672:	6c2c      	li	a0,44
7f00b674:	c580      	sb	a0,0(a1)
7f00b676:	9941      	lw	v0,4(s1)
7f00b678:	4a01      	addiu	v0,1
7f00b67a:	d941      	sw	v0,4(s1)
7f00b67c:	1025      	b	7f00b6c8 <_doprnt+0x368>
7f00b67e:	6c3c      	li	a0,60
7f00b680:	2201      	beqz	v0,7f00b684 <_doprnt+0x324>
7f00b682:	6c2c      	li	a0,44
7f00b684:	67b1      	move	a1,s1
7f00b686:	181e 2a09 	jal	7f00a824 <_flsbuf>
7f00b68a:	d327      	sw	v1,156(sp)
7f00b68c:	9327      	lw	v1,156(sp)
7f00b68e:	101c      	b	7f00b6c8 <_doprnt+0x368>
7f00b690:	9940      	lw	v0,0(s1)
7f00b692:	4aff      	addiu	v0,-1
7f00b694:	5200      	slti	v0,0
7f00b696:	d940      	sw	v0,0(s1)
7f00b698:	6103      	btnez	7f00b6a0 <_doprnt+0x340>
7f00b69a:	9941      	lw	v0,4(s1)
7f00b69c:	c280      	sb	a0,0(v0)
7f00b69e:	100b      	b	7f00b6b6 <_doprnt+0x356>
7f00b6a0:	a9a8      	lhu	a1,16(s1)
7f00b6a2:	6e80      	li	a2,128
7f00b6a4:	edcc      	and	a1,a2
7f00b6a6:	250a      	beqz	a1,7f00b6bc <_doprnt+0x35c>
7f00b6a8:	99a3      	lw	a1,12(s1)
7f00b6aa:	ea4b      	neg	v0
7f00b6ac:	eaa2      	slt	v0,a1
7f00b6ae:	6006      	bteqz	7f00b6bc <_doprnt+0x35c>
7f00b6b0:	9941      	lw	v0,4(s1)
7f00b6b2:	c280      	sb	a0,0(v0)
7f00b6b4:	9941      	lw	v0,4(s1)
7f00b6b6:	4a01      	addiu	v0,1
7f00b6b8:	d941      	sw	v0,4(s1)
7f00b6ba:	1005      	b	7f00b6c6 <_doprnt+0x366>
7f00b6bc:	67b1      	move	a1,s1
7f00b6be:	181e 2a09 	jal	7f00a824 <_flsbuf>
7f00b6c2:	d327      	sw	v1,156(sp)
7f00b6c4:	9327      	lw	v1,156(sp)
7f00b6c6:	4801      	addiu	s0,1
7f00b6c8:	941b      	lw	a0,108(sp)
7f00b6ca:	e46b      	subu	v0,a0,v1
7f00b6cc:	a080      	lbu	a0,0(s0)
7f00b6ce:	e049      	addu	v0,s0,v0
7f00b6d0:	5421      	slti	a0,33
7f00b6d2:	60de      	bteqz	7f00b690 <_doprnt+0x330>
7f00b6d4:	6b01      	li	v1,1
7f00b6d6:	67bd      	move	a1,sp
7f00b6d8:	c579      	sb	v1,25(a1)
7f00b6da:	d21b      	sw	v0,108(sp)
7f00b6dc:	1004      	b	7f00b6e6 <_doprnt+0x386>
7f00b6de:	4801      	addiu	s0,1
7f00b6e0:	a040      	lbu	v0,0(s0)
7f00b6e2:	5a21      	sltiu	v0,33
7f00b6e4:	60fc      	bteqz	7f00b6de <_doprnt+0x37e>
7f00b6e6:	6770      	move	v1,s0
7f00b6e8:	a340      	lbu	v0,0(v1)
7f00b6ea:	2aa1      	bnez	v0,7f00b62e <_doprnt+0x2ce>
7f00b6ec:	677d      	move	v1,sp
7f00b6ee:	a359      	lbu	v0,25(v1)
7f00b6f0:	f67f 2207 	beqz	v0,7f00b3c2 <_doprnt+0x62>
7f00b6f4:	9940      	lw	v0,0(s1)
7f00b6f6:	4aff      	addiu	v0,-1
7f00b6f8:	5200      	slti	v0,0
7f00b6fa:	d940      	sw	v0,0(s1)
7f00b6fc:	6103      	btnez	7f00b704 <_doprnt+0x3a4>
7f00b6fe:	9941      	lw	v0,4(s1)
7f00b700:	6b3e      	li	v1,62
7f00b702:	120f      	b	7f00bb22 <_doprnt+0x7c2>
7f00b704:	a968      	lhu	v1,16(s1)
7f00b706:	6c80      	li	a0,128
7f00b708:	eb8c      	and	v1,a0
7f00b70a:	2307      	beqz	v1,7f00b71a <_doprnt+0x3ba>
7f00b70c:	9963      	lw	v1,12(s1)
7f00b70e:	ea4b      	neg	v0
7f00b710:	ea62      	slt	v0,v1
7f00b712:	6003      	bteqz	7f00b71a <_doprnt+0x3ba>
7f00b714:	9941      	lw	v0,4(s1)
7f00b716:	6b3e      	li	v1,62
7f00b718:	1210      	b	7f00bb3a <_doprnt+0x7da>
7f00b71a:	6c3e      	li	a0,62
7f00b71c:	f0c1 1005 	b	7f00c8aa <_doprnt+0x154a>
7f00b720:	d51e      	sw	a1,120(sp)
7f00b722:	941e      	lw	a0,120(sp)
7f00b724:	67a8      	move	a1,t0
7f00b726:	6749      	move	v0,t1
7f00b728:	d51c      	sw	a1,112(sp)
7f00b72a:	d72c      	sw	a3,176(sp)
7f00b72c:	d22d      	sw	v0,180(sp)
7f00b72e:	6769      	move	v1,t1
7f00b730:	2c2b      	bnez	a0,7f00b788 <_doprnt+0x428>
7f00b732:	5501      	slti	a1,1
7f00b734:	6708      	move	s0,t0
7f00b736:	6020      	bteqz	7f00b778 <_doprnt+0x418>
7f00b738:	1027      	b	7f00b788 <_doprnt+0x428>
7f00b73a:	9940      	lw	v0,0(s1)
7f00b73c:	4aff      	addiu	v0,-1
7f00b73e:	5200      	slti	v0,0
7f00b740:	d940      	sw	v0,0(s1)
7f00b742:	6104      	btnez	7f00b74c <_doprnt+0x3ec>
7f00b744:	9941      	lw	v0,4(s1)
7f00b746:	6c20      	li	a0,32
7f00b748:	c280      	sb	a0,0(v0)
7f00b74a:	100c      	b	7f00b764 <_doprnt+0x404>
7f00b74c:	a988      	lhu	a0,16(s1)
7f00b74e:	6d80      	li	a1,128
7f00b750:	ecac      	and	a0,a1
7f00b752:	240b      	beqz	a0,7f00b76a <_doprnt+0x40a>
7f00b754:	9983      	lw	a0,12(s1)
7f00b756:	ea4b      	neg	v0
7f00b758:	ea82      	slt	v0,a0
7f00b75a:	6007      	bteqz	7f00b76a <_doprnt+0x40a>
7f00b75c:	9941      	lw	v0,4(s1)
7f00b75e:	6c20      	li	a0,32
7f00b760:	c280      	sb	a0,0(v0)
7f00b762:	9941      	lw	v0,4(s1)
7f00b764:	4a01      	addiu	v0,1
7f00b766:	d941      	sw	v0,4(s1)
7f00b768:	1006      	b	7f00b776 <_doprnt+0x416>
7f00b76a:	6c20      	li	a0,32
7f00b76c:	67b1      	move	a1,s1
7f00b76e:	181e 2a09 	jal	7f00a824 <_flsbuf>
7f00b772:	d327      	sw	v1,156(sp)
7f00b774:	9327      	lw	v1,156(sp)
7f00b776:	48ff      	addiu	s0,-1
7f00b778:	28e0      	bnez	s0,7f00b73a <_doprnt+0x3da>
7f00b77a:	951b      	lw	a1,108(sp)
7f00b77c:	921c      	lw	v0,112(sp)
7f00b77e:	6c01      	li	a0,1
7f00b780:	ec8b      	neg	a0
7f00b782:	e555      	addu	a1,v0
7f00b784:	d51b      	sw	a1,108(sp)
7f00b786:	d41c      	sw	a0,112(sp)
7f00b788:	9940      	lw	v0,0(s1)
7f00b78a:	952d      	lw	a1,180(sp)
7f00b78c:	4aff      	addiu	v0,-1
7f00b78e:	d940      	sw	v0,0(s1)
7f00b790:	5200      	slti	v0,0
7f00b792:	9d80      	lw	a0,0(a1)
7f00b794:	6105      	btnez	7f00b7a0 <_doprnt+0x440>
7f00b796:	9941      	lw	v0,4(s1)
7f00b798:	4d04      	addiu	a1,4
7f00b79a:	d52d      	sw	a1,180(sp)
7f00b79c:	c280      	sb	a0,0(v0)
7f00b79e:	1011      	b	7f00b7c2 <_doprnt+0x462>
7f00b7a0:	a9a8      	lhu	a1,16(s1)
7f00b7a2:	6e80      	li	a2,128
7f00b7a4:	edcc      	and	a1,a2
7f00b7a6:	2512      	beqz	a1,7f00b7cc <_doprnt+0x46c>
7f00b7a8:	99a3      	lw	a1,12(s1)
7f00b7aa:	ea4b      	neg	v0
7f00b7ac:	eaa2      	slt	v0,a1
7f00b7ae:	600e      	bteqz	7f00b7cc <_doprnt+0x46c>
7f00b7b0:	922d      	lw	v0,180(sp)
7f00b7b2:	4a04      	addiu	v0,4
7f00b7b4:	d22d      	sw	v0,180(sp)
7f00b7b6:	8340      	lb	v0,0(v1)
7f00b7b8:	9961      	lw	v1,4(s1)
7f00b7ba:	720a      	cmpi	v0,10
7f00b7bc:	c340      	sb	v0,0(v1)
7f00b7be:	9941      	lw	v0,4(s1)
7f00b7c0:	6003      	bteqz	7f00b7c8 <_doprnt+0x468>
7f00b7c2:	4a01      	addiu	v0,1
7f00b7c4:	d941      	sw	v0,4(s1)
7f00b7c6:	1009      	b	7f00b7da <_doprnt+0x47a>
7f00b7c8:	a280      	lbu	a0,0(v0)
7f00b7ca:	1004      	b	7f00b7d4 <_doprnt+0x474>
7f00b7cc:	932d      	lw	v1,180(sp)
7f00b7ce:	ec11      	zeb	a0
7f00b7d0:	4b04      	addiu	v1,4
7f00b7d2:	d32d      	sw	v1,180(sp)
7f00b7d4:	181e 2a09 	jal	7f00a824 <_flsbuf>
7f00b7d8:	67b1      	move	a1,s1
7f00b7da:	941b      	lw	a0,108(sp)
7f00b7dc:	951e      	lw	a1,120(sp)
7f00b7de:	4c01      	addiu	a0,1
7f00b7e0:	d41b      	sw	a0,108(sp)
7f00b7e2:	f5ff 250e 	beqz	a1,7f00b3c2 <_doprnt+0x62>
7f00b7e6:	921c      	lw	v0,112(sp)
7f00b7e8:	5201      	slti	v0,1
7f00b7ea:	6702      	move	s0,v0
7f00b7ec:	601e      	bteqz	7f00b82a <_doprnt+0x4ca>
7f00b7ee:	15e9      	b	7f00b3c2 <_doprnt+0x62>
7f00b7f0:	9940      	lw	v0,0(s1)
7f00b7f2:	4aff      	addiu	v0,-1
7f00b7f4:	5200      	slti	v0,0
7f00b7f6:	d940      	sw	v0,0(s1)
7f00b7f8:	6104      	btnez	7f00b802 <_doprnt+0x4a2>
7f00b7fa:	9941      	lw	v0,4(s1)
7f00b7fc:	6b20      	li	v1,32
7f00b7fe:	c260      	sb	v1,0(v0)
7f00b800:	100c      	b	7f00b81a <_doprnt+0x4ba>
7f00b802:	a968      	lhu	v1,16(s1)
7f00b804:	6c80      	li	a0,128
7f00b806:	eb8c      	and	v1,a0
7f00b808:	230b      	beqz	v1,7f00b820 <_doprnt+0x4c0>
7f00b80a:	9963      	lw	v1,12(s1)
7f00b80c:	ea4b      	neg	v0
7f00b80e:	ea62      	slt	v0,v1
7f00b810:	6007      	bteqz	7f00b820 <_doprnt+0x4c0>
7f00b812:	9941      	lw	v0,4(s1)
7f00b814:	6b20      	li	v1,32
7f00b816:	c260      	sb	v1,0(v0)
7f00b818:	9941      	lw	v0,4(s1)
7f00b81a:	4a01      	addiu	v0,1
7f00b81c:	d941      	sw	v0,4(s1)
7f00b81e:	1004      	b	7f00b828 <_doprnt+0x4c8>
7f00b820:	6c20      	li	a0,32
7f00b822:	181e 2a09 	jal	7f00a824 <_flsbuf>
7f00b826:	67b1      	move	a1,s1
7f00b828:	48ff      	addiu	s0,-1
7f00b82a:	28e2      	bnez	s0,7f00b7f0 <_doprnt+0x490>
7f00b82c:	931b      	lw	v1,108(sp)
7f00b82e:	941c      	lw	a0,112(sp)
7f00b830:	e38d      	addu	v1,a0
7f00b832:	d31b      	sw	v1,108(sp)
7f00b834:	15c6      	b	7f00b3c2 <_doprnt+0x62>
7f00b836:	d51e      	sw	a1,120(sp)
7f00b838:	6749      	move	v0,t1
7f00b83a:	67a8      	move	a1,t0
7f00b83c:	d51c      	sw	a1,112(sp)
7f00b83e:	d61a      	sw	a2,104(sp)
7f00b840:	d72c      	sw	a3,176(sp)
7f00b842:	d22d      	sw	v0,180(sp)
7f00b844:	200d      	beqz	s0,7f00b860 <_doprnt+0x500>
7f00b846:	1007      	b	7f00b856 <_doprnt+0x4f6>
7f00b848:	6768      	move	v1,t0
7f00b84a:	6789      	move	a0,t1
7f00b84c:	d51e      	sw	a1,120(sp)
7f00b84e:	d31c      	sw	v1,112(sp)
7f00b850:	d61a      	sw	a2,104(sp)
7f00b852:	d72c      	sw	a3,176(sp)
7f00b854:	d42d      	sw	a0,180(sp)
7f00b856:	922d      	lw	v0,180(sp)
7f00b858:	952d      	lw	a1,180(sp)
7f00b85a:	4a04      	addiu	v0,4
7f00b85c:	9d00      	lw	s0,0(a1)
7f00b85e:	1004      	b	7f00b868 <_doprnt+0x508>
7f00b860:	932d      	lw	v1,180(sp)
7f00b862:	922d      	lw	v0,180(sp)
7f00b864:	9b00      	lw	s0,0(v1)
7f00b866:	4a04      	addiu	v0,4
7f00b868:	9423      	lw	a0,140(sp)
7f00b86a:	f021 2412 	beqz	a0,7f00c8d2 <_doprnt+0x1572>
7f00b86e:	f021 1012 	b	7f00c8d6 <_doprnt+0x1576>
7f00b872:	6801      	li	s0,1
7f00b874:	15d1      	b	7f00b418 <_doprnt+0xb8>
7f00b876:	6749      	move	v0,t1
7f00b878:	d51e      	sw	a1,120(sp)
7f00b87a:	67a8      	move	a1,t0
7f00b87c:	d22d      	sw	v0,180(sp)
7f00b87e:	d51c      	sw	a1,112(sp)
7f00b880:	d61a      	sw	a2,104(sp)
7f00b882:	d72c      	sw	a3,176(sp)
7f00b884:	4a04      	addiu	v0,4
7f00b886:	2006      	beqz	s0,7f00b894 <_doprnt+0x534>
7f00b888:	6769      	move	v1,t1
7f00b88a:	6c00      	li	a0,0
7f00b88c:	9b00      	lw	s0,0(v1)
7f00b88e:	d22d      	sw	v0,180(sp)
7f00b890:	d41d      	sw	a0,116(sp)
7f00b892:	1005      	b	7f00b89e <_doprnt+0x53e>
7f00b894:	952d      	lw	a1,180(sp)
7f00b896:	9d00      	lw	s0,0(a1)
7f00b898:	d22d      	sw	v0,180(sp)
7f00b89a:	6a00      	li	v0,0
7f00b89c:	d21d      	sw	v0,116(sp)
7f00b89e:	6b08      	li	v1,8
7f00b8a0:	11c3      	b	7f00bc28 <_doprnt+0x8c8>
7f00b8a2:	6789      	move	a0,t1
7f00b8a4:	9c00      	lw	s0,0(a0)
7f00b8a6:	6768      	move	v1,t0
7f00b8a8:	d31c      	sw	v1,112(sp)
7f00b8aa:	6769      	move	v1,t1
7f00b8ac:	d51e      	sw	a1,120(sp)
7f00b8ae:	674b      	move	v0,t3
7f00b8b0:	d61a      	sw	a2,104(sp)
7f00b8b2:	d72c      	sw	a3,176(sp)
7f00b8b4:	4b04      	addiu	v1,4
7f00b8b6:	2804      	bnez	s0,7f00b8c0 <_doprnt+0x560>
7f00b8b8:	f022 b610 	lw	a2,7f00c8e8 <_doprnt+0x1588>
7f00b8bc:	d32d      	sw	v1,180(sp)
7f00b8be:	102e      	b	7f00b91c <_doprnt+0x5bc>
7f00b8c0:	921c      	lw	v0,112(sp)
7f00b8c2:	d32d      	sw	v1,180(sp)
7f00b8c4:	6b00      	li	v1,0
7f00b8c6:	5a01      	sltiu	v0,1
7f00b8c8:	6758      	move	v0,t8
7f00b8ca:	d220      	sw	v0,128(sp)
7f00b8cc:	d31d      	sw	v1,116(sp)
7f00b8ce:	1184      	b	7f00bbd8 <_doprnt+0x878>
7f00b8d0:	d51e      	sw	a1,120(sp)
7f00b8d2:	6788      	move	a0,t0
7f00b8d4:	67a9      	move	a1,t1
7f00b8d6:	6749      	move	v0,t1
7f00b8d8:	d41c      	sw	a0,112(sp)
7f00b8da:	d61a      	sw	a2,104(sp)
7f00b8dc:	d72c      	sw	a3,176(sp)
7f00b8de:	d52d      	sw	a1,180(sp)
7f00b8e0:	4a04      	addiu	v0,4
7f00b8e2:	2006      	beqz	s0,7f00b8f0 <_doprnt+0x590>
7f00b8e4:	9d00      	lw	s0,0(a1)
7f00b8e6:	d22d      	sw	v0,180(sp)
7f00b8e8:	6a00      	li	v0,0
7f00b8ea:	d21d      	sw	v0,116(sp)
7f00b8ec:	6b0a      	li	v1,10
7f00b8ee:	118d      	b	7f00bc0a <_doprnt+0x8aa>
7f00b8f0:	932d      	lw	v1,180(sp)
7f00b8f2:	9423      	lw	a0,140(sp)
7f00b8f4:	9b00      	lw	s0,0(v1)
7f00b8f6:	f7e0 2c0e 	bnez	a0,7f00c8d6 <_doprnt+0x1576>
7f00b8fa:	d22d      	sw	v0,180(sp)
7f00b8fc:	f7e0 1001 	b	7f00c8c2 <_doprnt+0x1562>
7f00b900:	6768      	move	v1,t0
7f00b902:	d31c      	sw	v1,112(sp)
7f00b904:	6769      	move	v1,t1
7f00b906:	d61a      	sw	a2,104(sp)
7f00b908:	9bc0      	lw	a2,0(v1)
7f00b90a:	6789      	move	a0,t1
7f00b90c:	4c04      	addiu	a0,4
7f00b90e:	d51e      	sw	a1,120(sp)
7f00b910:	674b      	move	v0,t3
7f00b912:	d72c      	sw	a3,176(sp)
7f00b914:	d42d      	sw	a0,180(sp)
7f00b916:	2e02      	bnez	a2,7f00b91c <_doprnt+0x5bc>
7f00b918:	f7c1 b614 	lw	a2,7f00c8ec <_doprnt+0x158c>
7f00b91c:	6800      	li	s0,0
7f00b91e:	2a08      	bnez	v0,7f00b930 <_doprnt+0x5d0>
7f00b920:	6786      	move	a0,a2
7f00b922:	1c1e 3433 	jalx	7f00d0cc <strlen>
7f00b926:	d626      	sw	a2,152(sp)
7f00b928:	6702      	move	s0,v0
7f00b92a:	9626      	lw	a2,152(sp)
7f00b92c:	1007      	b	7f00b93c <_doprnt+0x5dc>
7f00b92e:	4801      	addiu	s0,1
7f00b930:	951a      	lw	a1,104(sp)
7f00b932:	e8a2      	slt	s0,a1
7f00b934:	6003      	bteqz	7f00b93c <_doprnt+0x5dc>
7f00b936:	e609      	addu	v0,a2,s0
7f00b938:	a240      	lbu	v0,0(v0)
7f00b93a:	2af9      	bnez	v0,7f00b92e <_doprnt+0x5ce>
7f00b93c:	921c      	lw	v0,112(sp)
7f00b93e:	941e      	lw	a0,120(sp)
7f00b940:	e20f      	subu	v1,v0,s0
7f00b942:	2c03      	bnez	a0,7f00b94a <_doprnt+0x5ea>
7f00b944:	5301      	slti	v1,1
7f00b946:	67e3      	move	a3,v1
7f00b948:	6028      	bteqz	7f00b99a <_doprnt+0x63a>
7f00b94a:	4e01      	addiu	a2,1
7f00b94c:	67f0      	move	a3,s0
7f00b94e:	d01a      	sw	s0,104(sp)
7f00b950:	6706      	move	s0,a2
7f00b952:	105a      	b	7f00ba08 <_doprnt+0x6a8>
7f00b954:	9940      	lw	v0,0(s1)
7f00b956:	4aff      	addiu	v0,-1
7f00b958:	5200      	slti	v0,0
7f00b95a:	d940      	sw	v0,0(s1)
7f00b95c:	6104      	btnez	7f00b966 <_doprnt+0x606>
7f00b95e:	9941      	lw	v0,4(s1)
7f00b960:	6c20      	li	a0,32
7f00b962:	c280      	sb	a0,0(v0)
7f00b964:	100c      	b	7f00b97e <_doprnt+0x61e>
7f00b966:	a988      	lhu	a0,16(s1)
7f00b968:	6d80      	li	a1,128
7f00b96a:	ecac      	and	a0,a1
7f00b96c:	240b      	beqz	a0,7f00b984 <_doprnt+0x624>
7f00b96e:	9983      	lw	a0,12(s1)
7f00b970:	ea4b      	neg	v0
7f00b972:	ea82      	slt	v0,a0
7f00b974:	6007      	bteqz	7f00b984 <_doprnt+0x624>
7f00b976:	9941      	lw	v0,4(s1)
7f00b978:	6c20      	li	a0,32
7f00b97a:	c280      	sb	a0,0(v0)
7f00b97c:	9941      	lw	v0,4(s1)
7f00b97e:	4a01      	addiu	v0,1
7f00b980:	d941      	sw	v0,4(s1)
7f00b982:	100a      	b	7f00b998 <_doprnt+0x638>
7f00b984:	6c20      	li	a0,32
7f00b986:	67b1      	move	a1,s1
7f00b988:	d327      	sw	v1,156(sp)
7f00b98a:	d626      	sw	a2,152(sp)
7f00b98c:	181e 2a09 	jal	7f00a824 <_flsbuf>
7f00b990:	d725      	sw	a3,148(sp)
7f00b992:	9725      	lw	a3,148(sp)
7f00b994:	9626      	lw	a2,152(sp)
7f00b996:	9327      	lw	v1,156(sp)
7f00b998:	4fff      	addiu	a3,-1
7f00b99a:	2fdc      	bnez	a3,7f00b954 <_doprnt+0x5f4>
7f00b99c:	951b      	lw	a1,108(sp)
7f00b99e:	e575      	addu	a1,v1
7f00b9a0:	6b01      	li	v1,1
7f00b9a2:	d51b      	sw	a1,108(sp)
7f00b9a4:	eb6b      	neg	v1
7f00b9a6:	17d1      	b	7f00b94a <_doprnt+0x5ea>
7f00b9a8:	9940      	lw	v0,0(s1)
7f00b9aa:	4aff      	addiu	v0,-1
7f00b9ac:	5200      	slti	v0,0
7f00b9ae:	d940      	sw	v0,0(s1)
7f00b9b0:	6105      	btnez	7f00b9bc <_doprnt+0x65c>
7f00b9b2:	9941      	lw	v0,4(s1)
7f00b9b4:	f7ff a09f 	lbu	a0,-1(s0)
7f00b9b8:	c280      	sb	a0,0(v0)
7f00b9ba:	100f      	b	7f00b9da <_doprnt+0x67a>
7f00b9bc:	a988      	lhu	a0,16(s1)
7f00b9be:	6d80      	li	a1,128
7f00b9c0:	ecac      	and	a0,a1
7f00b9c2:	2417      	beqz	a0,7f00b9f2 <_doprnt+0x692>
7f00b9c4:	9983      	lw	a0,12(s1)
7f00b9c6:	ea4b      	neg	v0
7f00b9c8:	ea82      	slt	v0,a0
7f00b9ca:	6013      	bteqz	7f00b9f2 <_doprnt+0x692>
7f00b9cc:	f7ff 805f 	lb	v0,-1(s0)
7f00b9d0:	9981      	lw	a0,4(s1)
7f00b9d2:	720a      	cmpi	v0,10
7f00b9d4:	c440      	sb	v0,0(a0)
7f00b9d6:	9941      	lw	v0,4(s1)
7f00b9d8:	6003      	bteqz	7f00b9e0 <_doprnt+0x680>
7f00b9da:	4a01      	addiu	v0,1
7f00b9dc:	d941      	sw	v0,4(s1)
7f00b9de:	1012      	b	7f00ba04 <_doprnt+0x6a4>
7f00b9e0:	a280      	lbu	a0,0(v0)
7f00b9e2:	67b1      	move	a1,s1
7f00b9e4:	d327      	sw	v1,156(sp)
7f00b9e6:	181e 2a09 	jal	7f00a824 <_flsbuf>
7f00b9ea:	d725      	sw	a3,148(sp)
7f00b9ec:	9327      	lw	v1,156(sp)
7f00b9ee:	9725      	lw	a3,148(sp)
7f00b9f0:	1009      	b	7f00ba04 <_doprnt+0x6a4>
7f00b9f2:	f7ff a09f 	lbu	a0,-1(s0)
7f00b9f6:	67b1      	move	a1,s1
7f00b9f8:	d327      	sw	v1,156(sp)
7f00b9fa:	181e 2a09 	jal	7f00a824 <_flsbuf>
7f00b9fe:	d725      	sw	a3,148(sp)
7f00ba00:	9725      	lw	a3,148(sp)
7f00ba02:	9327      	lw	v1,156(sp)
7f00ba04:	4fff      	addiu	a3,-1
7f00ba06:	4801      	addiu	s0,1
7f00ba08:	2fcf      	bnez	a3,7f00b9a8 <_doprnt+0x648>
7f00ba0a:	921b      	lw	v0,108(sp)
7f00ba0c:	901a      	lw	s0,104(sp)
7f00ba0e:	941e      	lw	a0,120(sp)
7f00ba10:	e209      	addu	v0,s0
7f00ba12:	d21b      	sw	v0,108(sp)
7f00ba14:	f4df 2415 	beqz	a0,7f00b3c2 <_doprnt+0x62>
7f00ba18:	5301      	slti	v1,1
7f00ba1a:	6703      	move	s0,v1
7f00ba1c:	6020      	bteqz	7f00ba5e <_doprnt+0x6fe>
7f00ba1e:	14d1      	b	7f00b3c2 <_doprnt+0x62>
7f00ba20:	9940      	lw	v0,0(s1)
7f00ba22:	4aff      	addiu	v0,-1
7f00ba24:	5200      	slti	v0,0
7f00ba26:	d940      	sw	v0,0(s1)
7f00ba28:	6104      	btnez	7f00ba32 <_doprnt+0x6d2>
7f00ba2a:	9941      	lw	v0,4(s1)
7f00ba2c:	6c20      	li	a0,32
7f00ba2e:	c280      	sb	a0,0(v0)
7f00ba30:	100c      	b	7f00ba4a <_doprnt+0x6ea>
7f00ba32:	a988      	lhu	a0,16(s1)
7f00ba34:	6d80      	li	a1,128
7f00ba36:	ecac      	and	a0,a1
7f00ba38:	240b      	beqz	a0,7f00ba50 <_doprnt+0x6f0>
7f00ba3a:	9983      	lw	a0,12(s1)
7f00ba3c:	ea4b      	neg	v0
7f00ba3e:	ea82      	slt	v0,a0
7f00ba40:	6007      	bteqz	7f00ba50 <_doprnt+0x6f0>
7f00ba42:	9941      	lw	v0,4(s1)
7f00ba44:	6c20      	li	a0,32
7f00ba46:	c280      	sb	a0,0(v0)
7f00ba48:	9941      	lw	v0,4(s1)
7f00ba4a:	4a01      	addiu	v0,1
7f00ba4c:	d941      	sw	v0,4(s1)
7f00ba4e:	1006      	b	7f00ba5c <_doprnt+0x6fc>
7f00ba50:	6c20      	li	a0,32
7f00ba52:	67b1      	move	a1,s1
7f00ba54:	181e 2a09 	jal	7f00a824 <_flsbuf>
7f00ba58:	d327      	sw	v1,156(sp)
7f00ba5a:	9327      	lw	v1,156(sp)
7f00ba5c:	48ff      	addiu	s0,-1
7f00ba5e:	28e0      	bnez	s0,7f00ba20 <_doprnt+0x6c0>
7f00ba60:	951b      	lw	a1,108(sp)
7f00ba62:	e575      	addu	a1,v1
7f00ba64:	14ad      	b	7f00b3c0 <_doprnt+0x60>
7f00ba66:	6748      	move	v0,t0
7f00ba68:	6769      	move	v1,t1
7f00ba6a:	d21c      	sw	v0,112(sp)
7f00ba6c:	6749      	move	v0,t1
7f00ba6e:	d32d      	sw	v1,180(sp)
7f00ba70:	d51e      	sw	a1,120(sp)
7f00ba72:	d61a      	sw	a2,104(sp)
7f00ba74:	d72c      	sw	a3,176(sp)
7f00ba76:	4264      	addiu	v1,v0,4
7f00ba78:	2074      	beqz	s0,7f00bb62 <_doprnt+0x802>
7f00ba7a:	9a00      	lw	s0,0(v0)
7f00ba7c:	d32d      	sw	v1,180(sp)
7f00ba7e:	4041      	addiu	v0,s0,1
7f00ba80:	2a65      	bnez	v0,7f00bb4c <_doprnt+0x7ec>
7f00ba82:	941e      	lw	a0,120(sp)
7f00ba84:	2440      	beqz	a0,7f00bb06 <_doprnt+0x7a6>
7f00ba86:	9940      	lw	v0,0(s1)
7f00ba88:	4aff      	addiu	v0,-1
7f00ba8a:	5200      	slti	v0,0
7f00ba8c:	d940      	sw	v0,0(s1)
7f00ba8e:	6104      	btnez	7f00ba98 <_doprnt+0x738>
7f00ba90:	9941      	lw	v0,4(s1)
7f00ba92:	6b2d      	li	v1,45
7f00ba94:	c260      	sb	v1,0(v0)
7f00ba96:	100c      	b	7f00bab0 <_doprnt+0x750>
7f00ba98:	a968      	lhu	v1,16(s1)
7f00ba9a:	6c80      	li	a0,128
7f00ba9c:	eb8c      	and	v1,a0
7f00ba9e:	230b      	beqz	v1,7f00bab6 <_doprnt+0x756>
7f00baa0:	9963      	lw	v1,12(s1)
7f00baa2:	ea4b      	neg	v0
7f00baa4:	ea62      	slt	v0,v1
7f00baa6:	6007      	bteqz	7f00bab6 <_doprnt+0x756>
7f00baa8:	9941      	lw	v0,4(s1)
7f00baaa:	6b2d      	li	v1,45
7f00baac:	c260      	sb	v1,0(v0)
7f00baae:	9941      	lw	v0,4(s1)
7f00bab0:	4a01      	addiu	v0,1
7f00bab2:	d941      	sw	v0,4(s1)
7f00bab4:	1004      	b	7f00babe <_doprnt+0x75e>
7f00bab6:	6c2d      	li	a0,45
7f00bab8:	181e 2a09 	jal	7f00a824 <_flsbuf>
7f00babc:	67b1      	move	a1,s1
7f00babe:	951b      	lw	a1,108(sp)
7f00bac0:	4d01      	addiu	a1,1
7f00bac2:	d51b      	sw	a1,108(sp)
7f00bac4:	1020      	b	7f00bb06 <_doprnt+0x7a6>
7f00bac6:	9940      	lw	v0,0(s1)
7f00bac8:	4aff      	addiu	v0,-1
7f00baca:	5200      	slti	v0,0
7f00bacc:	d940      	sw	v0,0(s1)
7f00bace:	6104      	btnez	7f00bad8 <_doprnt+0x778>
7f00bad0:	9941      	lw	v0,4(s1)
7f00bad2:	6b20      	li	v1,32
7f00bad4:	c260      	sb	v1,0(v0)
7f00bad6:	100c      	b	7f00baf0 <_doprnt+0x790>
7f00bad8:	a968      	lhu	v1,16(s1)
7f00bada:	6c80      	li	a0,128
7f00badc:	eb8c      	and	v1,a0
7f00bade:	230b      	beqz	v1,7f00baf6 <_doprnt+0x796>
7f00bae0:	9963      	lw	v1,12(s1)
7f00bae2:	ea4b      	neg	v0
7f00bae4:	ea62      	slt	v0,v1
7f00bae6:	6007      	bteqz	7f00baf6 <_doprnt+0x796>
7f00bae8:	9941      	lw	v0,4(s1)
7f00baea:	6b20      	li	v1,32
7f00baec:	c260      	sb	v1,0(v0)
7f00baee:	9941      	lw	v0,4(s1)
7f00baf0:	4a01      	addiu	v0,1
7f00baf2:	d941      	sw	v0,4(s1)
7f00baf4:	1004      	b	7f00bafe <_doprnt+0x79e>
7f00baf6:	6c20      	li	a0,32
7f00baf8:	181e 2a09 	jal	7f00a824 <_flsbuf>
7f00bafc:	67b1      	move	a1,s1
7f00bafe:	921b      	lw	v0,108(sp)
7f00bb00:	4a01      	addiu	v0,1
7f00bb02:	d21b      	sw	v0,108(sp)
7f00bb04:	1001      	b	7f00bb08 <_doprnt+0x7a8>
7f00bb06:	901c      	lw	s0,112(sp)
7f00bb08:	48ff      	addiu	s0,-1
7f00bb0a:	5001      	slti	s0,1
7f00bb0c:	60dc      	bteqz	7f00bac6 <_doprnt+0x766>
7f00bb0e:	931e      	lw	v1,120(sp)
7f00bb10:	f45f 2b17 	bnez	v1,7f00b3c2 <_doprnt+0x62>
7f00bb14:	9940      	lw	v0,0(s1)
7f00bb16:	4aff      	addiu	v0,-1
7f00bb18:	5200      	slti	v0,0
7f00bb1a:	d940      	sw	v0,0(s1)
7f00bb1c:	6104      	btnez	7f00bb26 <_doprnt+0x7c6>
7f00bb1e:	9941      	lw	v0,4(s1)
7f00bb20:	6b2d      	li	v1,45
7f00bb22:	c260      	sb	v1,0(v0)
7f00bb24:	100c      	b	7f00bb3e <_doprnt+0x7de>
7f00bb26:	a968      	lhu	v1,16(s1)
7f00bb28:	6c80      	li	a0,128
7f00bb2a:	eb8c      	and	v1,a0
7f00bb2c:	230c      	beqz	v1,7f00bb46 <_doprnt+0x7e6>
7f00bb2e:	9963      	lw	v1,12(s1)
7f00bb30:	ea4b      	neg	v0
7f00bb32:	ea62      	slt	v0,v1
7f00bb34:	6008      	bteqz	7f00bb46 <_doprnt+0x7e6>
7f00bb36:	9941      	lw	v0,4(s1)
7f00bb38:	6b2d      	li	v1,45
7f00bb3a:	c260      	sb	v1,0(v0)
7f00bb3c:	9941      	lw	v0,4(s1)
7f00bb3e:	4a01      	addiu	v0,1
7f00bb40:	d941      	sw	v0,4(s1)
7f00bb42:	f6a0 1015 	b	7f00c8b0 <_doprnt+0x1550>
7f00bb46:	6c2d      	li	a0,45
7f00bb48:	f6a0 100f 	b	7f00c8aa <_doprnt+0x154a>
7f00bb4c:	f7ff 581e 	sltiu	s0,-2
7f00bb50:	f6a0 6117 	btnez	7f00c8c2 <_doprnt+0x1562>
7f00bb54:	6a3e      	li	v0,62
7f00bb56:	67bd      	move	a1,sp
7f00bb58:	6803      	li	s0,3
7f00bb5a:	c558      	sb	v0,24(a1)
7f00bb5c:	e80b      	neg	s0
7f00bb5e:	f6a0 1013 	b	7f00c8c8 <_doprnt+0x1568>
7f00bb62:	9a00      	lw	s0,0(v0)
7f00bb64:	d32d      	sw	v1,180(sp)
7f00bb66:	f7ff 701f 	cmpi	s0,65535
7f00bb6a:	608b      	bteqz	7f00ba82 <_doprnt+0x722>
7f00bb6c:	f7ff 6a1e 	li	v0,65534
7f00bb70:	e843      	sltu	s0,v0
7f00bb72:	f6a0 6109 	btnez	7f00c8c8 <_doprnt+0x1568>
7f00bb76:	6a3e      	li	v0,62
7f00bb78:	677d      	move	v1,sp
7f00bb7a:	c358      	sb	v0,24(v1)
7f00bb7c:	f7ff 681d 	li	s0,65533
7f00bb80:	100c      	b	7f00bb9a <_doprnt+0x83a>
7f00bb82:	6749      	move	v0,t1
7f00bb84:	d51e      	sw	a1,120(sp)
7f00bb86:	67a8      	move	a1,t0
7f00bb88:	d22d      	sw	v0,180(sp)
7f00bb8a:	d51c      	sw	a1,112(sp)
7f00bb8c:	d61a      	sw	a2,104(sp)
7f00bb8e:	d72c      	sw	a3,176(sp)
7f00bb90:	4a04      	addiu	v0,4
7f00bb92:	2007      	beqz	s0,7f00bba2 <_doprnt+0x842>
7f00bb94:	6769      	move	v1,t1
7f00bb96:	9b00      	lw	s0,0(v1)
7f00bb98:	d22d      	sw	v0,180(sp)
7f00bb9a:	6c00      	li	a0,0
7f00bb9c:	d41d      	sw	a0,116(sp)
7f00bb9e:	f680 1015 	b	7f00c8cc <_doprnt+0x156c>
7f00bba2:	952d      	lw	a1,180(sp)
7f00bba4:	9d00      	lw	s0,0(a1)
7f00bba6:	d22d      	sw	v0,180(sp)
7f00bba8:	f680 100e 	b	7f00c8c8 <_doprnt+0x1568>
7f00bbac:	6768      	move	v1,t0
7f00bbae:	d41f      	sw	a0,124(sp)
7f00bbb0:	6749      	move	v0,t1
7f00bbb2:	6789      	move	a0,t1
7f00bbb4:	d51e      	sw	a1,120(sp)
7f00bbb6:	d31c      	sw	v1,112(sp)
7f00bbb8:	d61a      	sw	a2,104(sp)
7f00bbba:	d72c      	sw	a3,176(sp)
7f00bbbc:	d42d      	sw	a0,180(sp)
7f00bbbe:	4a04      	addiu	v0,4
7f00bbc0:	2002      	beqz	s0,7f00bbc6 <_doprnt+0x866>
7f00bbc2:	9c00      	lw	s0,0(a0)
7f00bbc4:	1002      	b	7f00bbca <_doprnt+0x86a>
7f00bbc6:	952d      	lw	a1,180(sp)
7f00bbc8:	9d00      	lw	s0,0(a1)
7f00bbca:	931f      	lw	v1,124(sp)
7f00bbcc:	d22d      	sw	v0,180(sp)
7f00bbce:	6a58      	li	v0,88
7f00bbd0:	eb4e      	xor	v1,v0
7f00bbd2:	5b01      	sltiu	v1,1
7f00bbd4:	6758      	move	v0,t8
7f00bbd6:	d21d      	sw	v0,116(sp)
7f00bbd8:	6b10      	li	v1,16
7f00bbda:	1026      	b	7f00bc28 <_doprnt+0x8c8>
7f00bbdc:	6768      	move	v1,t0
7f00bbde:	d41f      	sw	a0,124(sp)
7f00bbe0:	6749      	move	v0,t1
7f00bbe2:	6789      	move	a0,t1
7f00bbe4:	d51e      	sw	a1,120(sp)
7f00bbe6:	d31c      	sw	v1,112(sp)
7f00bbe8:	d61a      	sw	a2,104(sp)
7f00bbea:	d72c      	sw	a3,176(sp)
7f00bbec:	d42d      	sw	a0,180(sp)
7f00bbee:	4a04      	addiu	v0,4
7f00bbf0:	2002      	beqz	s0,7f00bbf6 <_doprnt+0x896>
7f00bbf2:	9c00      	lw	s0,0(a0)
7f00bbf4:	1002      	b	7f00bbfa <_doprnt+0x89a>
7f00bbf6:	952d      	lw	a1,180(sp)
7f00bbf8:	9d00      	lw	s0,0(a1)
7f00bbfa:	931f      	lw	v1,124(sp)
7f00bbfc:	6c5a      	li	a0,90
7f00bbfe:	d22d      	sw	v0,180(sp)
7f00bc00:	eb8e      	xor	v1,a0
7f00bc02:	5b01      	sltiu	v1,1
7f00bc04:	6758      	move	v0,t8
7f00bc06:	d21d      	sw	v0,116(sp)
7f00bc08:	6b10      	li	v1,16
7f00bc0a:	9423      	lw	a0,140(sp)
7f00bc0c:	240d      	beqz	a0,7f00bc28 <_doprnt+0x8c8>
7f00bc0e:	5000      	slti	s0,0
7f00bc10:	6005      	bteqz	7f00bc1c <_doprnt+0x8bc>
7f00bc12:	6a2d      	li	v0,45
7f00bc14:	67bd      	move	a1,sp
7f00bc16:	c558      	sb	v0,24(a1)
7f00bc18:	e80b      	neg	s0
7f00bc1a:	1006      	b	7f00bc28 <_doprnt+0x8c8>
7f00bc1c:	9223      	lw	v0,140(sp)
7f00bc1e:	5200      	slti	v0,0
7f00bc20:	6003      	bteqz	7f00bc28 <_doprnt+0x8c8>
7f00bc22:	6a2b      	li	v0,43
7f00bc24:	679d      	move	a0,sp
7f00bc26:	c458      	sb	v0,24(a0)
7f00bc28:	951a      	lw	a1,104(sp)
7f00bc2a:	6a00      	li	v0,0
7f00bc2c:	d21f      	sw	v0,124(sp)
7f00bc2e:	5531      	slti	a1,49
7f00bc30:	6104      	btnez	7f00bc3a <_doprnt+0x8da>
7f00bc32:	4dd0      	addiu	a1,-48
7f00bc34:	6c30      	li	a0,48
7f00bc36:	d51f      	sw	a1,124(sp)
7f00bc38:	d41a      	sw	a0,104(sp)
7f00bc3a:	971a      	lw	a3,104(sp)
7f00bc3c:	f000 0219 	addiu	v0,sp,25
7f00bc40:	67b0      	move	a1,s0
7f00bc42:	67c3      	move	a2,v1
7f00bc44:	040c      	addiu	a0,sp,48
7f00bc46:	d327      	sw	v1,156(sp)
7f00bc48:	181e 2c96 	jal	7f00b258 <ksprintn>
7f00bc4c:	d204      	sw	v0,16(sp)
7f00bc4e:	9520      	lw	a1,128(sp)
7f00bc50:	d21a      	sw	v0,104(sp)
7f00bc52:	9327      	lw	v1,156(sp)
7f00bc54:	250e      	beqz	a1,7f00bc72 <_doprnt+0x912>
7f00bc56:	200d      	beqz	s0,7f00bc72 <_doprnt+0x912>
7f00bc58:	7308      	cmpi	v1,8
7f00bc5a:	6105      	btnez	7f00bc66 <_doprnt+0x906>
7f00bc5c:	679d      	move	a0,sp
7f00bc5e:	a459      	lbu	v0,25(a0)
7f00bc60:	4a01      	addiu	v0,1
7f00bc62:	c459      	sb	v0,25(a0)
7f00bc64:	1006      	b	7f00bc72 <_doprnt+0x912>
7f00bc66:	7310      	cmpi	v1,16
7f00bc68:	6104      	btnez	7f00bc72 <_doprnt+0x912>
7f00bc6a:	67bd      	move	a1,sp
7f00bc6c:	a559      	lbu	v0,25(a1)
7f00bc6e:	4a02      	addiu	v0,2
7f00bc70:	c559      	sb	v0,25(a1)
7f00bc72:	679d      	move	a0,sp
7f00bc74:	a458      	lbu	v0,24(a0)
7f00bc76:	2203      	beqz	v0,7f00bc7e <_doprnt+0x91e>
7f00bc78:	a459      	lbu	v0,25(a0)
7f00bc7a:	4a01      	addiu	v0,1
7f00bc7c:	c459      	sb	v0,25(a0)
7f00bc7e:	951e      	lw	a1,120(sp)
7f00bc80:	2d36      	bnez	a1,7f00bcee <_doprnt+0x98e>
7f00bc82:	921c      	lw	v0,112(sp)
7f00bc84:	2234      	beqz	v0,7f00bcee <_doprnt+0x98e>
7f00bc86:	9421      	lw	a0,132(sp)
7f00bc88:	7420      	cmpi	a0,32
7f00bc8a:	6131      	btnez	7f00bcee <_doprnt+0x98e>
7f00bc8c:	67bd      	move	a1,sp
7f00bc8e:	941c      	lw	a0,112(sp)
7f00bc90:	a559      	lbu	v0,25(a1)
7f00bc92:	e453      	subu	a0,v0
7f00bc94:	5401      	slti	a0,1
7f00bc96:	d41c      	sw	a0,112(sp)
7f00bc98:	612a      	btnez	7f00bcee <_doprnt+0x98e>
7f00bc9a:	67c4      	move	a2,a0
7f00bc9c:	9940      	lw	v0,0(s1)
7f00bc9e:	4aff      	addiu	v0,-1
7f00bca0:	5200      	slti	v0,0
7f00bca2:	d940      	sw	v0,0(s1)
7f00bca4:	6104      	btnez	7f00bcae <_doprnt+0x94e>
7f00bca6:	9941      	lw	v0,4(s1)
7f00bca8:	6c20      	li	a0,32
7f00bcaa:	c280      	sb	a0,0(v0)
7f00bcac:	100c      	b	7f00bcc6 <_doprnt+0x966>
7f00bcae:	a988      	lhu	a0,16(s1)
7f00bcb0:	6d80      	li	a1,128
7f00bcb2:	ecac      	and	a0,a1
7f00bcb4:	240b      	beqz	a0,7f00bccc <_doprnt+0x96c>
7f00bcb6:	9983      	lw	a0,12(s1)
7f00bcb8:	ea4b      	neg	v0
7f00bcba:	ea82      	slt	v0,a0
7f00bcbc:	6007      	bteqz	7f00bccc <_doprnt+0x96c>
7f00bcbe:	9941      	lw	v0,4(s1)
7f00bcc0:	6c20      	li	a0,32
7f00bcc2:	c280      	sb	a0,0(v0)
7f00bcc4:	9941      	lw	v0,4(s1)
7f00bcc6:	4a01      	addiu	v0,1
7f00bcc8:	d941      	sw	v0,4(s1)
7f00bcca:	1008      	b	7f00bcdc <_doprnt+0x97c>
7f00bccc:	6c20      	li	a0,32
7f00bcce:	67b1      	move	a1,s1
7f00bcd0:	d327      	sw	v1,156(sp)
7f00bcd2:	181e 2a09 	jal	7f00a824 <_flsbuf>
7f00bcd6:	d626      	sw	a2,152(sp)
7f00bcd8:	9626      	lw	a2,152(sp)
7f00bcda:	9327      	lw	v1,156(sp)
7f00bcdc:	4eff      	addiu	a2,-1
7f00bcde:	5601      	slti	a2,1
7f00bce0:	60dd      	bteqz	7f00bc9c <_doprnt+0x93c>
7f00bce2:	951b      	lw	a1,108(sp)
7f00bce4:	921c      	lw	v0,112(sp)
7f00bce6:	6c00      	li	a0,0
7f00bce8:	d41c      	sw	a0,112(sp)
7f00bcea:	e555      	addu	a1,v0
7f00bcec:	d51b      	sw	a1,108(sp)
7f00bcee:	67bd      	move	a1,sp
7f00bcf0:	a598      	lbu	a0,24(a1)
7f00bcf2:	2422      	beqz	a0,7f00bd38 <_doprnt+0x9d8>
7f00bcf4:	9940      	lw	v0,0(s1)
7f00bcf6:	4aff      	addiu	v0,-1
7f00bcf8:	5200      	slti	v0,0
7f00bcfa:	d940      	sw	v0,0(s1)
7f00bcfc:	6103      	btnez	7f00bd04 <_doprnt+0x9a4>
7f00bcfe:	9941      	lw	v0,4(s1)
7f00bd00:	c280      	sb	a0,0(v0)
7f00bd02:	100e      	b	7f00bd20 <_doprnt+0x9c0>
7f00bd04:	a9a8      	lhu	a1,16(s1)
7f00bd06:	6e80      	li	a2,128
7f00bd08:	edcc      	and	a1,a2
7f00bd0a:	250e      	beqz	a1,7f00bd28 <_doprnt+0x9c8>
7f00bd0c:	99a3      	lw	a1,12(s1)
7f00bd0e:	ea4b      	neg	v0
7f00bd10:	eaa2      	slt	v0,a1
7f00bd12:	600a      	bteqz	7f00bd28 <_doprnt+0x9c8>
7f00bd14:	9941      	lw	v0,4(s1)
7f00bd16:	ec91      	seb	a0
7f00bd18:	740a      	cmpi	a0,10
7f00bd1a:	c280      	sb	a0,0(v0)
7f00bd1c:	9941      	lw	v0,4(s1)
7f00bd1e:	6003      	bteqz	7f00bd26 <_doprnt+0x9c6>
7f00bd20:	4a01      	addiu	v0,1
7f00bd22:	d941      	sw	v0,4(s1)
7f00bd24:	1006      	b	7f00bd32 <_doprnt+0x9d2>
7f00bd26:	a280      	lbu	a0,0(v0)
7f00bd28:	67b1      	move	a1,s1
7f00bd2a:	181e 2a09 	jal	7f00a824 <_flsbuf>
7f00bd2e:	d327      	sw	v1,156(sp)
7f00bd30:	9327      	lw	v1,156(sp)
7f00bd32:	921b      	lw	v0,108(sp)
7f00bd34:	4a01      	addiu	v0,1
7f00bd36:	d21b      	sw	v0,108(sp)
7f00bd38:	9420      	lw	a0,128(sp)
7f00bd3a:	2469      	beqz	a0,7f00be0e <_doprnt+0xaae>
7f00bd3c:	2068      	beqz	s0,7f00be0e <_doprnt+0xaae>
7f00bd3e:	7308      	cmpi	v1,8
7f00bd40:	6120      	btnez	7f00bd82 <_doprnt+0xa22>
7f00bd42:	9940      	lw	v0,0(s1)
7f00bd44:	4aff      	addiu	v0,-1
7f00bd46:	5200      	slti	v0,0
7f00bd48:	d940      	sw	v0,0(s1)
7f00bd4a:	6104      	btnez	7f00bd54 <_doprnt+0x9f4>
7f00bd4c:	9941      	lw	v0,4(s1)
7f00bd4e:	6b30      	li	v1,48
7f00bd50:	c260      	sb	v1,0(v0)
7f00bd52:	100c      	b	7f00bd6c <_doprnt+0xa0c>
7f00bd54:	a968      	lhu	v1,16(s1)
7f00bd56:	6c80      	li	a0,128
7f00bd58:	eb8c      	and	v1,a0
7f00bd5a:	230b      	beqz	v1,7f00bd72 <_doprnt+0xa12>
7f00bd5c:	9963      	lw	v1,12(s1)
7f00bd5e:	ea4b      	neg	v0
7f00bd60:	ea62      	slt	v0,v1
7f00bd62:	6007      	bteqz	7f00bd72 <_doprnt+0xa12>
7f00bd64:	9941      	lw	v0,4(s1)
7f00bd66:	6b30      	li	v1,48
7f00bd68:	c260      	sb	v1,0(v0)
7f00bd6a:	9941      	lw	v0,4(s1)
7f00bd6c:	4a01      	addiu	v0,1
7f00bd6e:	d941      	sw	v0,4(s1)
7f00bd70:	1004      	b	7f00bd7a <_doprnt+0xa1a>
7f00bd72:	6c30      	li	a0,48
7f00bd74:	181e 2a09 	jal	7f00a824 <_flsbuf>
7f00bd78:	67b1      	move	a1,s1
7f00bd7a:	951b      	lw	a1,108(sp)
7f00bd7c:	4d01      	addiu	a1,1
7f00bd7e:	d51b      	sw	a1,108(sp)
7f00bd80:	1046      	b	7f00be0e <_doprnt+0xaae>
7f00bd82:	7310      	cmpi	v1,16
7f00bd84:	6144      	btnez	7f00be0e <_doprnt+0xaae>
7f00bd86:	9940      	lw	v0,0(s1)
7f00bd88:	4aff      	addiu	v0,-1
7f00bd8a:	5200      	slti	v0,0
7f00bd8c:	d940      	sw	v0,0(s1)
7f00bd8e:	6104      	btnez	7f00bd98 <_doprnt+0xa38>
7f00bd90:	9941      	lw	v0,4(s1)
7f00bd92:	6b30      	li	v1,48
7f00bd94:	c260      	sb	v1,0(v0)
7f00bd96:	100c      	b	7f00bdb0 <_doprnt+0xa50>
7f00bd98:	a968      	lhu	v1,16(s1)
7f00bd9a:	6c80      	li	a0,128
7f00bd9c:	eb8c      	and	v1,a0
7f00bd9e:	230b      	beqz	v1,7f00bdb6 <_doprnt+0xa56>
7f00bda0:	9963      	lw	v1,12(s1)
7f00bda2:	ea4b      	neg	v0
7f00bda4:	ea62      	slt	v0,v1
7f00bda6:	6007      	bteqz	7f00bdb6 <_doprnt+0xa56>
7f00bda8:	9941      	lw	v0,4(s1)
7f00bdaa:	6b30      	li	v1,48
7f00bdac:	c260      	sb	v1,0(v0)
7f00bdae:	9941      	lw	v0,4(s1)
7f00bdb0:	4a01      	addiu	v0,1
7f00bdb2:	d941      	sw	v0,4(s1)
7f00bdb4:	1004      	b	7f00bdbe <_doprnt+0xa5e>
7f00bdb6:	6c30      	li	a0,48
7f00bdb8:	181e 2a09 	jal	7f00a824 <_flsbuf>
7f00bdbc:	67b1      	move	a1,s1
7f00bdbe:	9940      	lw	v0,0(s1)
7f00bdc0:	4aff      	addiu	v0,-1
7f00bdc2:	5200      	slti	v0,0
7f00bdc4:	d940      	sw	v0,0(s1)
7f00bdc6:	6107      	btnez	7f00bdd6 <_doprnt+0xa76>
7f00bdc8:	941d      	lw	a0,116(sp)
7f00bdca:	9941      	lw	v0,4(s1)
7f00bdcc:	6b78      	li	v1,120
7f00bdce:	2401      	beqz	a0,7f00bdd2 <_doprnt+0xa72>
7f00bdd0:	6b58      	li	v1,88
7f00bdd2:	c260      	sb	v1,0(v0)
7f00bdd4:	100f      	b	7f00bdf4 <_doprnt+0xa94>
7f00bdd6:	a968      	lhu	v1,16(s1)
7f00bdd8:	6c80      	li	a0,128
7f00bdda:	eb8c      	and	v1,a0
7f00bddc:	230e      	beqz	v1,7f00bdfa <_doprnt+0xa9a>
7f00bdde:	9963      	lw	v1,12(s1)
7f00bde0:	ea4b      	neg	v0
7f00bde2:	ea62      	slt	v0,v1
7f00bde4:	600a      	bteqz	7f00bdfa <_doprnt+0xa9a>
7f00bde6:	951d      	lw	a1,116(sp)
7f00bde8:	9961      	lw	v1,4(s1)
7f00bdea:	6a78      	li	v0,120
7f00bdec:	2501      	beqz	a1,7f00bdf0 <_doprnt+0xa90>
7f00bdee:	6a58      	li	v0,88
7f00bdf0:	c340      	sb	v0,0(v1)
7f00bdf2:	9941      	lw	v0,4(s1)
7f00bdf4:	4a01      	addiu	v0,1
7f00bdf6:	d941      	sw	v0,4(s1)
7f00bdf8:	1007      	b	7f00be08 <_doprnt+0xaa8>
7f00bdfa:	921d      	lw	v0,116(sp)
7f00bdfc:	6c78      	li	a0,120
7f00bdfe:	2201      	beqz	v0,7f00be02 <_doprnt+0xaa2>
7f00be00:	6c58      	li	a0,88
7f00be02:	181e 2a09 	jal	7f00a824 <_flsbuf>
7f00be06:	67b1      	move	a1,s1
7f00be08:	931b      	lw	v1,108(sp)
7f00be0a:	4b02      	addiu	v1,2
7f00be0c:	d31b      	sw	v1,108(sp)
7f00be0e:	941f      	lw	a0,124(sp)
7f00be10:	2423      	beqz	a0,7f00be58 <_doprnt+0xaf8>
7f00be12:	6704      	move	s0,a0
7f00be14:	9940      	lw	v0,0(s1)
7f00be16:	4aff      	addiu	v0,-1
7f00be18:	5200      	slti	v0,0
7f00be1a:	d940      	sw	v0,0(s1)
7f00be1c:	6104      	btnez	7f00be26 <_doprnt+0xac6>
7f00be1e:	9941      	lw	v0,4(s1)
7f00be20:	6b30      	li	v1,48
7f00be22:	c260      	sb	v1,0(v0)
7f00be24:	100c      	b	7f00be3e <_doprnt+0xade>
7f00be26:	a968      	lhu	v1,16(s1)
7f00be28:	6c80      	li	a0,128
7f00be2a:	eb8c      	and	v1,a0
7f00be2c:	230b      	beqz	v1,7f00be44 <_doprnt+0xae4>
7f00be2e:	9963      	lw	v1,12(s1)
7f00be30:	ea4b      	neg	v0
7f00be32:	ea62      	slt	v0,v1
7f00be34:	6007      	bteqz	7f00be44 <_doprnt+0xae4>
7f00be36:	9941      	lw	v0,4(s1)
7f00be38:	6b30      	li	v1,48
7f00be3a:	c260      	sb	v1,0(v0)
7f00be3c:	9941      	lw	v0,4(s1)
7f00be3e:	4a01      	addiu	v0,1
7f00be40:	d941      	sw	v0,4(s1)
7f00be42:	1004      	b	7f00be4c <_doprnt+0xaec>
7f00be44:	6c30      	li	a0,48
7f00be46:	181e 2a09 	jal	7f00a824 <_flsbuf>
7f00be4a:	67b1      	move	a1,s1
7f00be4c:	951b      	lw	a1,108(sp)
7f00be4e:	48ff      	addiu	s0,-1
7f00be50:	5001      	slti	s0,1
7f00be52:	4d01      	addiu	a1,1
7f00be54:	d51b      	sw	a1,108(sp)
7f00be56:	60de      	bteqz	7f00be14 <_doprnt+0xab4>
7f00be58:	921e      	lw	v0,120(sp)
7f00be5a:	2a02      	bnez	v0,7f00be60 <_doprnt+0xb00>
7f00be5c:	931c      	lw	v1,112(sp)
7f00be5e:	2b02      	bnez	v1,7f00be64 <_doprnt+0xb04>
7f00be60:	901b      	lw	s0,108(sp)
7f00be62:	1079      	b	7f00bf56 <_doprnt+0xbf6>
7f00be64:	679d      	move	a0,sp
7f00be66:	951c      	lw	a1,112(sp)
7f00be68:	a459      	lbu	v0,25(a0)
7f00be6a:	e557      	subu	a1,v0
7f00be6c:	5501      	slti	a1,1
7f00be6e:	d51c      	sw	a1,112(sp)
7f00be70:	61f7      	btnez	7f00be60 <_doprnt+0xb00>
7f00be72:	6705      	move	s0,a1
7f00be74:	9940      	lw	v0,0(s1)
7f00be76:	4aff      	addiu	v0,-1
7f00be78:	5200      	slti	v0,0
7f00be7a:	d940      	sw	v0,0(s1)
7f00be7c:	6107      	btnez	7f00be8c <_doprnt+0xb2c>
7f00be7e:	677d      	move	v1,sp
7f00be80:	4387      	addiu	a0,v1,7
7f00be82:	4c7d      	addiu	a0,125
7f00be84:	9941      	lw	v0,4(s1)
7f00be86:	a460      	lbu	v1,0(a0)
7f00be88:	c260      	sb	v1,0(v0)
7f00be8a:	100f      	b	7f00beaa <_doprnt+0xb4a>
7f00be8c:	a968      	lhu	v1,16(s1)
7f00be8e:	6c80      	li	a0,128
7f00be90:	eb8c      	and	v1,a0
7f00be92:	230e      	beqz	v1,7f00beb0 <_doprnt+0xb50>
7f00be94:	9963      	lw	v1,12(s1)
7f00be96:	ea4b      	neg	v0
7f00be98:	ea62      	slt	v0,v1
7f00be9a:	600a      	bteqz	7f00beb0 <_doprnt+0xb50>
7f00be9c:	679d      	move	a0,sp
7f00be9e:	44a7      	addiu	a1,a0,7
7f00bea0:	4d7d      	addiu	a1,125
7f00bea2:	9941      	lw	v0,4(s1)
7f00bea4:	a580      	lbu	a0,0(a1)
7f00bea6:	c280      	sb	a0,0(v0)
7f00bea8:	9941      	lw	v0,4(s1)
7f00beaa:	4a01      	addiu	v0,1
7f00beac:	d941      	sw	v0,4(s1)
7f00beae:	1004      	b	7f00beb8 <_doprnt+0xb58>
7f00beb0:	9421      	lw	a0,132(sp)
7f00beb2:	181e 2a09 	jal	7f00a824 <_flsbuf>
7f00beb6:	67b1      	move	a1,s1
7f00beb8:	48ff      	addiu	s0,-1
7f00beba:	5001      	slti	s0,1
7f00bebc:	60db      	bteqz	7f00be74 <_doprnt+0xb14>
7f00bebe:	951b      	lw	a1,108(sp)
7f00bec0:	921c      	lw	v0,112(sp)
7f00bec2:	6b00      	li	v1,0
7f00bec4:	d31c      	sw	v1,112(sp)
7f00bec6:	e555      	addu	a1,v0
7f00bec8:	d51b      	sw	a1,108(sp)
7f00beca:	17ca      	b	7f00be60 <_doprnt+0xb00>
7f00becc:	941d      	lw	a0,116(sp)
7f00bece:	9960      	lw	v1,0(s1)
7f00bed0:	241f      	beqz	a0,7f00bf10 <_doprnt+0xbb0>
7f00bed2:	5a61      	sltiu	v0,97
7f00bed4:	611d      	btnez	7f00bf10 <_doprnt+0xbb0>
7f00bed6:	5a7b      	sltiu	v0,123
7f00bed8:	601b      	bteqz	7f00bf10 <_doprnt+0xbb0>
7f00beda:	951a      	lw	a1,104(sp)
7f00bedc:	434f      	addiu	v0,v1,-1
7f00bede:	d940      	sw	v0,0(s1)
7f00bee0:	5200      	slti	v0,0
7f00bee2:	a580      	lbu	a0,0(a1)
7f00bee4:	6104      	btnez	7f00beee <_doprnt+0xb8e>
7f00bee6:	9941      	lw	v0,4(s1)
7f00bee8:	4ce0      	addiu	a0,-32
7f00beea:	c280      	sb	a0,0(v0)
7f00beec:	1029      	b	7f00bf40 <_doprnt+0xbe0>
7f00beee:	a968      	lhu	v1,16(s1)
7f00bef0:	6d80      	li	a1,128
7f00bef2:	ebac      	and	v1,a1
7f00bef4:	230a      	beqz	v1,7f00bf0a <_doprnt+0xbaa>
7f00bef6:	9963      	lw	v1,12(s1)
7f00bef8:	ea4b      	neg	v0
7f00befa:	ea62      	slt	v0,v1
7f00befc:	6006      	bteqz	7f00bf0a <_doprnt+0xbaa>
7f00befe:	9941      	lw	v0,4(s1)
7f00bf00:	4ce0      	addiu	a0,-32
7f00bf02:	ec91      	seb	a0
7f00bf04:	c280      	sb	a0,0(v0)
7f00bf06:	740a      	cmpi	a0,10
7f00bf08:	1019      	b	7f00bf3c <_doprnt+0xbdc>
7f00bf0a:	4ce0      	addiu	a0,-32
7f00bf0c:	ec11      	zeb	a0
7f00bf0e:	101d      	b	7f00bf4a <_doprnt+0xbea>
7f00bf10:	434f      	addiu	v0,v1,-1
7f00bf12:	5200      	slti	v0,0
7f00bf14:	d940      	sw	v0,0(s1)
7f00bf16:	6105      	btnez	7f00bf22 <_doprnt+0xbc2>
7f00bf18:	941a      	lw	a0,104(sp)
7f00bf1a:	9941      	lw	v0,4(s1)
7f00bf1c:	a460      	lbu	v1,0(a0)
7f00bf1e:	c260      	sb	v1,0(v0)
7f00bf20:	100f      	b	7f00bf40 <_doprnt+0xbe0>
7f00bf22:	a968      	lhu	v1,16(s1)
7f00bf24:	6c80      	li	a0,128
7f00bf26:	eb8c      	and	v1,a0
7f00bf28:	230e      	beqz	v1,7f00bf46 <_doprnt+0xbe6>
7f00bf2a:	9963      	lw	v1,12(s1)
7f00bf2c:	ea4b      	neg	v0
7f00bf2e:	ea62      	slt	v0,v1
7f00bf30:	600a      	bteqz	7f00bf46 <_doprnt+0xbe6>
7f00bf32:	951a      	lw	a1,104(sp)
7f00bf34:	9961      	lw	v1,4(s1)
7f00bf36:	8540      	lb	v0,0(a1)
7f00bf38:	c340      	sb	v0,0(v1)
7f00bf3a:	720a      	cmpi	v0,10
7f00bf3c:	9941      	lw	v0,4(s1)
7f00bf3e:	6004      	bteqz	7f00bf48 <_doprnt+0xbe8>
7f00bf40:	4a01      	addiu	v0,1
7f00bf42:	d941      	sw	v0,4(s1)
7f00bf44:	1005      	b	7f00bf50 <_doprnt+0xbf0>
7f00bf46:	921a      	lw	v0,104(sp)
7f00bf48:	a280      	lbu	a0,0(v0)
7f00bf4a:	181e 2a09 	jal	7f00a824 <_flsbuf>
7f00bf4e:	67b1      	move	a1,s1
7f00bf50:	931a      	lw	v1,104(sp)
7f00bf52:	4bff      	addiu	v1,-1
7f00bf54:	d31a      	sw	v1,104(sp)
7f00bf56:	4801      	addiu	s0,1
7f00bf58:	951a      	lw	a1,104(sp)
7f00bf5a:	408f      	addiu	a0,s0,-1
7f00bf5c:	d41b      	sw	a0,108(sp)
7f00bf5e:	a540      	lbu	v0,0(a1)
7f00bf60:	2ab5      	bnez	v0,7f00becc <_doprnt+0xb6c>
7f00bf62:	921e      	lw	v0,120(sp)
7f00bf64:	f23f 220d 	beqz	v0,7f00b3c2 <_doprnt+0x62>
7f00bf68:	931c      	lw	v1,112(sp)
7f00bf6a:	f23f 230a 	beqz	v1,7f00b3c2 <_doprnt+0x62>
7f00bf6e:	679d      	move	a0,sp
7f00bf70:	a479      	lbu	v1,25(a0)
7f00bf72:	951c      	lw	a1,112(sp)
7f00bf74:	e56f      	subu	v1,a1,v1
7f00bf76:	5301      	slti	v1,1
7f00bf78:	f23f 6103 	btnez	7f00b3c2 <_doprnt+0x62>
7f00bf7c:	6703      	move	s0,v1
7f00bf7e:	9940      	lw	v0,0(s1)
7f00bf80:	4aff      	addiu	v0,-1
7f00bf82:	5200      	slti	v0,0
7f00bf84:	d940      	sw	v0,0(s1)
7f00bf86:	6104      	btnez	7f00bf90 <_doprnt+0xc30>
7f00bf88:	9941      	lw	v0,4(s1)
7f00bf8a:	6c20      	li	a0,32
7f00bf8c:	c280      	sb	a0,0(v0)
7f00bf8e:	100c      	b	7f00bfa8 <_doprnt+0xc48>
7f00bf90:	a988      	lhu	a0,16(s1)
7f00bf92:	6d80      	li	a1,128
7f00bf94:	ecac      	and	a0,a1
7f00bf96:	240b      	beqz	a0,7f00bfae <_doprnt+0xc4e>
7f00bf98:	9983      	lw	a0,12(s1)
7f00bf9a:	ea4b      	neg	v0
7f00bf9c:	ea82      	slt	v0,a0
7f00bf9e:	6007      	bteqz	7f00bfae <_doprnt+0xc4e>
7f00bfa0:	9941      	lw	v0,4(s1)
7f00bfa2:	6c20      	li	a0,32
7f00bfa4:	c280      	sb	a0,0(v0)
7f00bfa6:	9941      	lw	v0,4(s1)
7f00bfa8:	4a01      	addiu	v0,1
7f00bfaa:	d941      	sw	v0,4(s1)
7f00bfac:	1006      	b	7f00bfba <_doprnt+0xc5a>
7f00bfae:	6c20      	li	a0,32
7f00bfb0:	67b1      	move	a1,s1
7f00bfb2:	181e 2a09 	jal	7f00a824 <_flsbuf>
7f00bfb6:	d327      	sw	v1,156(sp)
7f00bfb8:	9327      	lw	v1,156(sp)
7f00bfba:	48ff      	addiu	s0,-1
7f00bfbc:	5001      	slti	s0,1
7f00bfbe:	60df      	bteqz	7f00bf7e <_doprnt+0xc1e>
7f00bfc0:	f400 100a 	b	7f00c7d8 <_doprnt+0x1478>
7f00bfc4:	d41f      	sw	a0,124(sp)
7f00bfc6:	6789      	move	a0,t1
7f00bfc8:	6768      	move	v1,t0
7f00bfca:	6749      	move	v0,t1
7f00bfcc:	4c04      	addiu	a0,4
7f00bfce:	5607      	slti	a2,7
7f00bfd0:	d31c      	sw	v1,112(sp)
7f00bfd2:	d51e      	sw	a1,120(sp)
7f00bfd4:	d61a      	sw	a2,104(sp)
7f00bfd6:	d72c      	sw	a3,176(sp)
7f00bfd8:	d42d      	sw	a0,180(sp)
7f00bfda:	9a60      	lw	v1,0(v0)
7f00bfdc:	610b      	btnez	7f00bff4 <_doprnt+0xc94>
7f00bfde:	951f      	lw	a1,124(sp)
7f00bfe0:	7567      	cmpi	a1,103
7f00bfe2:	6002      	bteqz	7f00bfe8 <_doprnt+0xc88>
7f00bfe4:	7547      	cmpi	a1,71
7f00bfe6:	6103      	btnez	7f00bfee <_doprnt+0xc8e>
7f00bfe8:	9220      	lw	v0,128(sp)
7f00bfea:	6c00      	li	a0,0
7f00bfec:	2209      	beqz	v0,7f00c000 <_doprnt+0xca0>
7f00bfee:	941a      	lw	a0,104(sp)
7f00bff0:	4cfa      	addiu	a0,-6
7f00bff2:	1006      	b	7f00c000 <_doprnt+0xca0>
7f00bff4:	921a      	lw	v0,104(sp)
7f00bff6:	4a01      	addiu	v0,1
7f00bff8:	2207      	beqz	v0,7f00c008 <_doprnt+0xca8>
7f00bffa:	6a00      	li	v0,0
7f00bffc:	d222      	sw	v0,136(sp)
7f00bffe:	1008      	b	7f00c010 <_doprnt+0xcb0>
7f00c000:	6d06      	li	a1,6
7f00c002:	d422      	sw	a0,136(sp)
7f00c004:	d51a      	sw	a1,104(sp)
7f00c006:	1004      	b	7f00c010 <_doprnt+0xcb0>
7f00c008:	6a00      	li	v0,0
7f00c00a:	6c06      	li	a0,6
7f00c00c:	d222      	sw	v0,136(sp)
7f00c00e:	d41a      	sw	a0,104(sp)
7f00c010:	f0e1 b500 	lw	a1,7f00c8f0 <_doprnt+0x1590>
7f00c014:	6783      	move	a0,v1
7f00c016:	1c1e 36ee 	jalx	7f00dbb8 <__lesf2>
7f00c01a:	d327      	sw	v1,156(sp)
7f00c01c:	5200      	slti	v0,0
7f00c01e:	9327      	lw	v1,156(sp)
7f00c020:	6006      	bteqz	7f00c02e <_doprnt+0xcce>
7f00c022:	6a01      	li	v0,1
7f00c024:	67bd      	move	a1,sp
7f00c026:	c558      	sb	v0,24(a1)
7f00c028:	f0c1 b20c 	lw	v0,7f00c8f4 <_doprnt+0x1594>
7f00c02c:	eb4e      	xor	v1,v0
7f00c02e:	6783      	move	a0,v1
7f00c030:	67a3      	move	a1,v1
7f00c032:	1c1e 3967 	jalx	7f00e59c <__unordsf2>
7f00c036:	d327      	sw	v1,156(sp)
7f00c038:	9327      	lw	v1,156(sp)
7f00c03a:	2a12      	bnez	v0,7f00c060 <_doprnt+0xd00>
7f00c03c:	f0a1 b01c 	lw	s0,7f00c8f8 <_doprnt+0x1598>
7f00c040:	f0a1 b51c 	lw	a1,7f00c8fc <_doprnt+0x159c>
7f00c044:	e86c      	and	s0,v1
7f00c046:	1c1e 3967 	jalx	7f00e59c <__unordsf2>
7f00c04a:	6790      	move	a0,s0
7f00c04c:	9327      	lw	v1,156(sp)
7f00c04e:	2a1a      	bnez	v0,7f00c084 <_doprnt+0xd24>
7f00c050:	f0a1 b50c 	lw	a1,7f00c8fc <_doprnt+0x159c>
7f00c054:	1c1e 36ee 	jalx	7f00dbb8 <__lesf2>
7f00c058:	6790      	move	a0,s0
7f00c05a:	5201      	slti	v0,1
7f00c05c:	9327      	lw	v1,156(sp)
7f00c05e:	6112      	btnez	7f00c084 <_doprnt+0xd24>
7f00c060:	67a3      	move	a1,v1
7f00c062:	1c1e 3967 	jalx	7f00e59c <__unordsf2>
7f00c066:	6783      	move	a0,v1
7f00c068:	f081 b518 	lw	a1,7f00c900 <_doprnt+0x15a0>
7f00c06c:	2a02      	bnez	v0,7f00c072 <_doprnt+0xd12>
7f00c06e:	f081 b518 	lw	a1,7f00c904 <_doprnt+0x15a4>
7f00c072:	181e 342f 	jal	7f00d0bc <strcpy>
7f00c076:	040c      	addiu	a0,sp,48
7f00c078:	6a03      	li	v0,3
7f00c07a:	677d      	move	v1,sp
7f00c07c:	6c00      	li	a0,0
7f00c07e:	c359      	sb	v0,25(v1)
7f00c080:	d422      	sw	a0,136(sp)
7f00c082:	1244      	b	7f00c50c <_doprnt+0x11ac>
7f00c084:	6a00      	li	v0,0
7f00c086:	67bd      	move	a1,sp
7f00c088:	f020 c550 	sb	v0,48(a1)
7f00c08c:	6783      	move	a0,v1
7f00c08e:	6a00      	li	v0,0
7f00c090:	0508      	addiu	a1,sp,32
7f00c092:	181e 3401 	jal	7f00d004 <modf>
7f00c096:	d207      	sw	v0,28(sp)
7f00c098:	f040 031f 	addiu	v1,sp,95
7f00c09c:	d21d      	sw	v0,116(sp)
7f00c09e:	6703      	move	s0,v1
7f00c0a0:	101d      	b	7f00c0dc <_doprnt+0xd7c>
7f00c0a2:	f061 b508 	lw	a1,7f00c908 <_doprnt+0x15a8>
7f00c0a6:	1c1e 35c1 	jalx	7f00d704 <__divsf3>
7f00c0aa:	6783      	move	a0,v1
7f00c0ac:	6782      	move	a0,v0
7f00c0ae:	181e 3401 	jal	7f00d004 <modf>
7f00c0b2:	0508      	addiu	a1,sp,32
7f00c0b4:	f041 b518 	lw	a1,7f00c90c <_doprnt+0x15ac>
7f00c0b8:	6782      	move	a0,v0
7f00c0ba:	1c1e 3452 	jalx	7f00d148 <__addsf3>
7f00c0be:	d209      	sw	v0,36(sp)
7f00c0c0:	f041 b508 	lw	a1,7f00c908 <_doprnt+0x15a8>
7f00c0c4:	1c1e 3726 	jalx	7f00dc98 <__mulsf3>
7f00c0c8:	6782      	move	a0,v0
7f00c0ca:	1c1e 3976 	jalx	7f00e5d8 <__fixsfsi>
7f00c0ce:	6782      	move	a0,v0
7f00c0d0:	4a30      	addiu	v0,48
7f00c0d2:	c040      	sb	v0,0(s0)
7f00c0d4:	9207      	lw	v0,28(sp)
7f00c0d6:	48ff      	addiu	s0,-1
7f00c0d8:	4a01      	addiu	v0,1
7f00c0da:	d207      	sw	v0,28(sp)
7f00c0dc:	9308      	lw	v1,32(sp)
7f00c0de:	f001 b514 	lw	a1,7f00c8f0 <_doprnt+0x1590>
7f00c0e2:	6783      	move	a0,v1
7f00c0e4:	1c1e 3698 	jalx	7f00da60 <__eqsf2>
7f00c0e8:	d327      	sw	v1,156(sp)
7f00c0ea:	9327      	lw	v1,156(sp)
7f00c0ec:	2ada      	bnez	v0,7f00c0a2 <_doprnt+0xd42>
7f00c0ee:	921f      	lw	v0,124(sp)
7f00c0f0:	6770      	move	v1,s0
7f00c0f2:	7265      	cmpi	v0,101
7f00c0f4:	6068      	bteqz	7f00c1c6 <_doprnt+0xe66>
7f00c0f6:	5a66      	sltiu	v0,102
7f00c0f8:	6004      	bteqz	7f00c102 <_doprnt+0xda2>
7f00c0fa:	7245      	cmpi	v0,69
7f00c0fc:	6064      	bteqz	7f00c1c6 <_doprnt+0xe66>
7f00c0fe:	7247      	cmpi	v0,71
7f00c100:	1004      	b	7f00c10a <_doprnt+0xdaa>
7f00c102:	941f      	lw	a0,124(sp)
7f00c104:	7466      	cmpi	a0,102
7f00c106:	6004      	bteqz	7f00c110 <_doprnt+0xdb0>
7f00c108:	7467      	cmpi	a0,103
7f00c10a:	f160 6007 	bteqz	7f00c3dc <_doprnt+0x107c>
7f00c10e:	11f0      	b	7f00c4f0 <_doprnt+0x1190>
7f00c110:	9207      	lw	v0,28(sp)
7f00c112:	f020 0011 	addiu	s0,sp,49
7f00c116:	2a04      	bnez	v0,7f00c120 <_doprnt+0xdc0>
7f00c118:	1008      	b	7f00c12a <_doprnt+0xdca>
7f00c11a:	a340      	lbu	v0,0(v1)
7f00c11c:	c040      	sb	v0,0(s0)
7f00c11e:	4801      	addiu	s0,1
7f00c120:	4b01      	addiu	v1,1
7f00c122:	0218      	addiu	v0,sp,96
7f00c124:	eb43      	sltu	v1,v0
7f00c126:	61f9      	btnez	7f00c11a <_doprnt+0xdba>
7f00c128:	1006      	b	7f00c136 <_doprnt+0xdd6>
7f00c12a:	6a30      	li	v0,48
7f00c12c:	67bd      	move	a1,sp
7f00c12e:	f020 c551 	sb	v0,49(a1)
7f00c132:	f020 0012 	addiu	s0,sp,50
7f00c136:	921a      	lw	v0,104(sp)
7f00c138:	9320      	lw	v1,128(sp)
7f00c13a:	ea6d      	or	v0,v1
7f00c13c:	2203      	beqz	v0,7f00c144 <_doprnt+0xde4>
7f00c13e:	6a2e      	li	v0,46
7f00c140:	c040      	sb	v0,0(s0)
7f00c142:	4801      	addiu	s0,1
7f00c144:	f7a0 b50c 	lw	a1,7f00c8f0 <_doprnt+0x1590>
7f00c148:	1c1e 3698 	jalx	7f00da60 <__eqsf2>
7f00c14c:	941d      	lw	a0,116(sp)
7f00c14e:	222f      	beqz	v0,7f00c1ae <_doprnt+0xe4e>
7f00c150:	941a      	lw	a0,104(sp)
7f00c152:	2420      	beqz	a0,7f00c194 <_doprnt+0xe34>
7f00c154:	f7a0 b514 	lw	a1,7f00c908 <_doprnt+0x15a8>
7f00c158:	1c1e 3726 	jalx	7f00dc98 <__mulsf3>
7f00c15c:	941d      	lw	a0,116(sp)
7f00c15e:	6782      	move	a0,v0
7f00c160:	181e 3401 	jal	7f00d004 <modf>
7f00c164:	0509      	addiu	a1,sp,36
7f00c166:	9409      	lw	a0,36(sp)
7f00c168:	1c1e 3976 	jalx	7f00e5d8 <__fixsfsi>
7f00c16c:	d21d      	sw	v0,116(sp)
7f00c16e:	4a30      	addiu	v0,48
7f00c170:	c040      	sb	v0,0(s0)
7f00c172:	951a      	lw	a1,104(sp)
7f00c174:	4801      	addiu	s0,1
7f00c176:	4dff      	addiu	a1,-1
7f00c178:	d51a      	sw	a1,104(sp)
7f00c17a:	2506      	beqz	a1,7f00c188 <_doprnt+0xe28>
7f00c17c:	f760 b514 	lw	a1,7f00c8f0 <_doprnt+0x1590>
7f00c180:	1c1e 3698 	jalx	7f00da60 <__eqsf2>
7f00c184:	941d      	lw	a0,116(sp)
7f00c186:	2ae6      	bnez	v0,7f00c154 <_doprnt+0xdf4>
7f00c188:	f760 b508 	lw	a1,7f00c8f0 <_doprnt+0x1590>
7f00c18c:	1c1e 3698 	jalx	7f00da60 <__eqsf2>
7f00c190:	941d      	lw	a0,116(sp)
7f00c192:	220d      	beqz	v0,7f00c1ae <_doprnt+0xe4e>
7f00c194:	941d      	lw	a0,116(sp)
7f00c196:	6a30      	li	v0,48
7f00c198:	d204      	sw	v0,16(sp)
7f00c19a:	f020 0611 	addiu	a2,sp,49
7f00c19e:	0206      	addiu	v0,sp,24
7f00c1a0:	6d00      	li	a1,0
7f00c1a2:	40ef      	addiu	a3,s0,-1
7f00c1a4:	181e 2ca7 	jal	7f00b29c <cvtround>
7f00c1a8:	d205      	sw	v0,20(sp)
7f00c1aa:	67c2      	move	a2,v0
7f00c1ac:	1002      	b	7f00c1b2 <_doprnt+0xe52>
7f00c1ae:	f020 0611 	addiu	a2,sp,49
7f00c1b2:	6770      	move	v1,s0
7f00c1b4:	921a      	lw	v0,104(sp)
7f00c1b6:	1003      	b	7f00c1be <_doprnt+0xe5e>
7f00c1b8:	6c30      	li	a0,48
7f00c1ba:	c380      	sb	a0,0(v1)
7f00c1bc:	4b01      	addiu	v1,1
7f00c1be:	4aff      	addiu	v0,-1
7f00c1c0:	4281      	addiu	a0,v0,1
7f00c1c2:	2cfa      	bnez	a0,7f00c1b8 <_doprnt+0xe58>
7f00c1c4:	1185      	b	7f00c4d0 <_doprnt+0x1170>
7f00c1c6:	6c00      	li	a0,0
7f00c1c8:	9207      	lw	v0,28(sp)
7f00c1ca:	d424      	sw	a0,144(sp)
7f00c1cc:	223b      	beqz	v0,7f00c244 <_doprnt+0xee4>
7f00c1ce:	4341      	addiu	v0,v1,1
7f00c1d0:	a260      	lbu	v1,0(v0)
7f00c1d2:	67bd      	move	a1,sp
7f00c1d4:	9420      	lw	a0,128(sp)
7f00c1d6:	f020 c571 	sb	v1,49(a1)
7f00c1da:	931a      	lw	v1,104(sp)
7f00c1dc:	eb8d      	or	v1,a0
7f00c1de:	2307      	beqz	v1,7f00c1ee <_doprnt+0xe8e>
7f00c1e0:	6b2e      	li	v1,46
7f00c1e2:	f020 c572 	sb	v1,50(a1)
7f00c1e6:	f020 0013 	addiu	s0,sp,51
7f00c1ea:	941a      	lw	a0,104(sp)
7f00c1ec:	100a      	b	7f00c202 <_doprnt+0xea2>
7f00c1ee:	6d00      	li	a1,0
7f00c1f0:	f020 0012 	addiu	s0,sp,50
7f00c1f4:	d51a      	sw	a1,104(sp)
7f00c1f6:	6785      	move	a0,a1
7f00c1f8:	1004      	b	7f00c202 <_doprnt+0xea2>
7f00c1fa:	a260      	lbu	v1,0(v0)
7f00c1fc:	4cff      	addiu	a0,-1
7f00c1fe:	c060      	sb	v1,0(s0)
7f00c200:	4801      	addiu	s0,1
7f00c202:	0318      	addiu	v1,sp,96
7f00c204:	4a01      	addiu	v0,1
7f00c206:	2406      	beqz	a0,7f00c214 <_doprnt+0xeb4>
7f00c208:	ea63      	sltu	v0,v1
7f00c20a:	61f7      	btnez	7f00c1fa <_doprnt+0xe9a>
7f00c20c:	d41a      	sw	a0,104(sp)
7f00c20e:	f020 0611 	addiu	a2,sp,49
7f00c212:	1014      	b	7f00c23c <_doprnt+0xedc>
7f00c214:	ea63      	sltu	v0,v1
7f00c216:	d41a      	sw	a0,104(sp)
7f00c218:	f020 0611 	addiu	a2,sp,49
7f00c21c:	600f      	bteqz	7f00c23c <_doprnt+0xedc>
7f00c21e:	a240      	lbu	v0,0(v0)
7f00c220:	f6c0 b310 	lw	v1,7f00c8f0 <_doprnt+0x1590>
7f00c224:	0507      	addiu	a1,sp,28
7f00c226:	d204      	sw	v0,16(sp)
7f00c228:	6783      	move	a0,v1
7f00c22a:	0206      	addiu	v0,sp,24
7f00c22c:	40ef      	addiu	a3,s0,-1
7f00c22e:	d327      	sw	v1,156(sp)
7f00c230:	181e 2ca7 	jal	7f00b29c <cvtround>
7f00c234:	d205      	sw	v0,20(sp)
7f00c236:	9327      	lw	v1,156(sp)
7f00c238:	67c2      	move	a2,v0
7f00c23a:	d31d      	sw	v1,116(sp)
7f00c23c:	9207      	lw	v0,28(sp)
7f00c23e:	4aff      	addiu	v0,-1
7f00c240:	d207      	sw	v0,28(sp)
7f00c242:	1049      	b	7f00c2d6 <_doprnt+0xf76>
7f00c244:	f6a0 b50c 	lw	a1,7f00c8f0 <_doprnt+0x1590>
7f00c248:	1c1e 3698 	jalx	7f00da60 <__eqsf2>
7f00c24c:	941d      	lw	a0,116(sp)
7f00c24e:	2226      	beqz	v0,7f00c29c <_doprnt+0xf3c>
7f00c250:	6a01      	li	v0,1
7f00c252:	ea4b      	neg	v0
7f00c254:	941d      	lw	a0,116(sp)
7f00c256:	f6a0 b514 	lw	a1,7f00c908 <_doprnt+0x15a8>
7f00c25a:	1c1e 3726 	jalx	7f00dc98 <__mulsf3>
7f00c25e:	d207      	sw	v0,28(sp)
7f00c260:	6782      	move	a0,v0
7f00c262:	181e 3401 	jal	7f00d004 <modf>
7f00c266:	0509      	addiu	a1,sp,36
7f00c268:	9009      	lw	s0,36(sp)
7f00c26a:	f680 b508 	lw	a1,7f00c8f0 <_doprnt+0x1590>
7f00c26e:	d21d      	sw	v0,116(sp)
7f00c270:	1c1e 3698 	jalx	7f00da60 <__eqsf2>
7f00c274:	6790      	move	a0,s0
7f00c276:	2a03      	bnez	v0,7f00c27e <_doprnt+0xf1e>
7f00c278:	9207      	lw	v0,28(sp)
7f00c27a:	4aff      	addiu	v0,-1
7f00c27c:	17eb      	b	7f00c254 <_doprnt+0xef4>
7f00c27e:	1c1e 3976 	jalx	7f00e5d8 <__fixsfsi>
7f00c282:	6790      	move	a0,s0
7f00c284:	4a30      	addiu	v0,48
7f00c286:	677d      	move	v1,sp
7f00c288:	f020 c351 	sb	v0,49(v1)
7f00c28c:	9420      	lw	a0,128(sp)
7f00c28e:	921a      	lw	v0,104(sp)
7f00c290:	ea8d      	or	v0,a0
7f00c292:	2214      	beqz	v0,7f00c2bc <_doprnt+0xf5c>
7f00c294:	6a2e      	li	v0,46
7f00c296:	f020 c352 	sb	v0,50(v1)
7f00c29a:	100b      	b	7f00c2b2 <_doprnt+0xf52>
7f00c29c:	6a30      	li	v0,48
7f00c29e:	67bd      	move	a1,sp
7f00c2a0:	f020 c551 	sb	v0,49(a1)
7f00c2a4:	9320      	lw	v1,128(sp)
7f00c2a6:	921a      	lw	v0,104(sp)
7f00c2a8:	ea6d      	or	v0,v1
7f00c2aa:	220f      	beqz	v0,7f00c2ca <_doprnt+0xf6a>
7f00c2ac:	6a2e      	li	v0,46
7f00c2ae:	f020 c552 	sb	v0,50(a1)
7f00c2b2:	f020 0013 	addiu	s0,sp,51
7f00c2b6:	f020 0611 	addiu	a2,sp,49
7f00c2ba:	100d      	b	7f00c2d6 <_doprnt+0xf76>
7f00c2bc:	6c00      	li	a0,0
7f00c2be:	f020 0012 	addiu	s0,sp,50
7f00c2c2:	f020 0611 	addiu	a2,sp,49
7f00c2c6:	d41a      	sw	a0,104(sp)
7f00c2c8:	1006      	b	7f00c2d6 <_doprnt+0xf76>
7f00c2ca:	6d00      	li	a1,0
7f00c2cc:	f020 0012 	addiu	s0,sp,50
7f00c2d0:	f020 0611 	addiu	a2,sp,49
7f00c2d4:	d51a      	sw	a1,104(sp)
7f00c2d6:	941d      	lw	a0,116(sp)
7f00c2d8:	f600 b518 	lw	a1,7f00c8f0 <_doprnt+0x1590>
7f00c2dc:	1c1e 3698 	jalx	7f00da60 <__eqsf2>
7f00c2e0:	d626      	sw	a2,152(sp)
7f00c2e2:	9626      	lw	a2,152(sp)
7f00c2e4:	2231      	beqz	v0,7f00c348 <_doprnt+0xfe8>
7f00c2e6:	921a      	lw	v0,104(sp)
7f00c2e8:	2225      	beqz	v0,7f00c334 <_doprnt+0xfd4>
7f00c2ea:	941d      	lw	a0,116(sp)
7f00c2ec:	f600 b51c 	lw	a1,7f00c908 <_doprnt+0x15a8>
7f00c2f0:	1c1e 3726 	jalx	7f00dc98 <__mulsf3>
7f00c2f4:	d626      	sw	a2,152(sp)
7f00c2f6:	6782      	move	a0,v0
7f00c2f8:	181e 3401 	jal	7f00d004 <modf>
7f00c2fc:	0509      	addiu	a1,sp,36
7f00c2fe:	9409      	lw	a0,36(sp)
7f00c300:	1c1e 3976 	jalx	7f00e5d8 <__fixsfsi>
7f00c304:	d21d      	sw	v0,116(sp)
7f00c306:	4a30      	addiu	v0,48
7f00c308:	c040      	sb	v0,0(s0)
7f00c30a:	931a      	lw	v1,104(sp)
7f00c30c:	4801      	addiu	s0,1
7f00c30e:	9626      	lw	a2,152(sp)
7f00c310:	4bff      	addiu	v1,-1
7f00c312:	d31a      	sw	v1,104(sp)
7f00c314:	2307      	beqz	v1,7f00c324 <_doprnt+0xfc4>
7f00c316:	f5c0 b51c 	lw	a1,7f00c8f0 <_doprnt+0x1590>
7f00c31a:	1c1e 3698 	jalx	7f00da60 <__eqsf2>
7f00c31e:	941d      	lw	a0,116(sp)
7f00c320:	9626      	lw	a2,152(sp)
7f00c322:	2ae3      	bnez	v0,7f00c2ea <_doprnt+0xf8a>
7f00c324:	941d      	lw	a0,116(sp)
7f00c326:	f5c0 b50c 	lw	a1,7f00c8f0 <_doprnt+0x1590>
7f00c32a:	1c1e 3698 	jalx	7f00da60 <__eqsf2>
7f00c32e:	d626      	sw	a2,152(sp)
7f00c330:	9626      	lw	a2,152(sp)
7f00c332:	220a      	beqz	v0,7f00c348 <_doprnt+0xfe8>
7f00c334:	941d      	lw	a0,116(sp)
7f00c336:	6a30      	li	v0,48
7f00c338:	d204      	sw	v0,16(sp)
7f00c33a:	0507      	addiu	a1,sp,28
7f00c33c:	0206      	addiu	v0,sp,24
7f00c33e:	40ef      	addiu	a3,s0,-1
7f00c340:	181e 2ca7 	jal	7f00b29c <cvtround>
7f00c344:	d205      	sw	v0,20(sp)
7f00c346:	67c2      	move	a2,v0
7f00c348:	6770      	move	v1,s0
7f00c34a:	921a      	lw	v0,104(sp)
7f00c34c:	1003      	b	7f00c354 <_doprnt+0xff4>
7f00c34e:	6c30      	li	a0,48
7f00c350:	c380      	sb	a0,0(v1)
7f00c352:	4b01      	addiu	v1,1
7f00c354:	4aff      	addiu	v0,-1
7f00c356:	4281      	addiu	a0,v0,1
7f00c358:	2cfa      	bnez	a0,7f00c34e <_doprnt+0xfee>
7f00c35a:	941a      	lw	a0,104(sp)
7f00c35c:	9524      	lw	a1,144(sp)
7f00c35e:	e081      	addu	s0,a0
7f00c360:	250f      	beqz	a1,7f00c380 <_doprnt+0x1020>
7f00c362:	9220      	lw	v0,128(sp)
7f00c364:	2a0d      	bnez	v0,7f00c380 <_doprnt+0x1020>
7f00c366:	ee03      	sltu	a2,s0
7f00c368:	6004      	bteqz	7f00c372 <_doprnt+0x1012>
7f00c36a:	48ff      	addiu	s0,-1
7f00c36c:	a040      	lbu	v0,0(s0)
7f00c36e:	7230      	cmpi	v0,48
7f00c370:	60fa      	bteqz	7f00c366 <_doprnt+0x1006>
7f00c372:	a040      	lbu	v0,0(s0)
7f00c374:	722e      	cmpi	v0,46
7f00c376:	6778      	move	v1,t8
7f00c378:	5b01      	sltiu	v1,1
7f00c37a:	6798      	move	a0,t8
7f00c37c:	e083      	subu	s0,a0
7f00c37e:	4801      	addiu	s0,1
7f00c380:	9207      	lw	v0,28(sp)
7f00c382:	67bd      	move	a1,sp
7f00c384:	f060 a5bc 	lbu	a1,124(a1)
7f00c388:	5200      	slti	v0,0
7f00c38a:	4081      	addiu	a0,s0,1
7f00c38c:	c0a0      	sb	a1,0(s0)
7f00c38e:	4062      	addiu	v1,s0,2
7f00c390:	6d2b      	li	a1,43
7f00c392:	6002      	bteqz	7f00c398 <_doprnt+0x1038>
7f00c394:	ea4b      	neg	v0
7f00c396:	6d2d      	li	a1,45
7f00c398:	520a      	slti	v0,10
7f00c39a:	c4a0      	sb	a1,0(a0)
7f00c39c:	6703      	move	s0,v1
7f00c39e:	6118      	btnez	7f00c3d0 <_doprnt+0x1070>
7f00c3a0:	030c      	addiu	v1,sp,48
7f00c3a2:	6c0a      	li	a0,10
7f00c3a4:	ea9a      	div	zero,v0,a0
7f00c3a6:	2c01      	bnez	a0,7f00c3aa <_doprnt+0x104a>
7f00c3a8:	e8e5      	break	7
7f00c3aa:	4bff      	addiu	v1,-1
7f00c3ac:	ec10      	mfhi	a0
7f00c3ae:	4c30      	addiu	a0,48
7f00c3b0:	c380      	sb	a0,0(v1)
7f00c3b2:	ea12      	mflo	v0
7f00c3b4:	520a      	slti	v0,10
7f00c3b6:	60f5      	bteqz	7f00c3a2 <_doprnt+0x1042>
7f00c3b8:	4bff      	addiu	v1,-1
7f00c3ba:	4a30      	addiu	v0,48
7f00c3bc:	c340      	sb	v0,0(v1)
7f00c3be:	1004      	b	7f00c3c8 <_doprnt+0x1068>
7f00c3c0:	a340      	lbu	v0,0(v1)
7f00c3c2:	4b01      	addiu	v1,1
7f00c3c4:	c040      	sb	v0,0(s0)
7f00c3c6:	4801      	addiu	s0,1
7f00c3c8:	020c      	addiu	v0,sp,48
7f00c3ca:	eb43      	sltu	v1,v0
7f00c3cc:	61f9      	btnez	7f00c3c0 <_doprnt+0x1060>
7f00c3ce:	1093      	b	7f00c4f6 <_doprnt+0x1196>
7f00c3d0:	6c30      	li	a0,48
7f00c3d2:	4a30      	addiu	v0,48
7f00c3d4:	c380      	sb	a0,0(v1)
7f00c3d6:	c341      	sb	v0,1(v1)
7f00c3d8:	4302      	addiu	s0,v1,2
7f00c3da:	108d      	b	7f00c4f6 <_doprnt+0x1196>
7f00c3dc:	921a      	lw	v0,104(sp)
7f00c3de:	2a02      	bnez	v0,7f00c3e4 <_doprnt+0x1084>
7f00c3e0:	6c01      	li	a0,1
7f00c3e2:	d41a      	sw	a0,104(sp)
7f00c3e4:	9207      	lw	v0,28(sp)
7f00c3e6:	951a      	lw	a1,104(sp)
7f00c3e8:	ed42      	slt	a1,v0
7f00c3ea:	6112      	btnez	7f00c410 <_doprnt+0x10b0>
7f00c3ec:	f020 0011 	addiu	s0,sp,49
7f00c3f0:	2a1e      	bnez	v0,7f00c42e <_doprnt+0x10ce>
7f00c3f2:	941d      	lw	a0,116(sp)
7f00c3f4:	f4e0 b51c 	lw	a1,7f00c8f0 <_doprnt+0x1590>
7f00c3f8:	1c1e 3698 	jalx	7f00da60 <__eqsf2>
7f00c3fc:	d327      	sw	v1,156(sp)
7f00c3fe:	221c      	beqz	v0,7f00c438 <_doprnt+0x10d8>
7f00c400:	f500 b510 	lw	a1,7f00c910 <_doprnt+0x15b0>
7f00c404:	1c1e 36ee 	jalx	7f00dbb8 <__lesf2>
7f00c408:	941d      	lw	a0,116(sp)
7f00c40a:	5200      	slti	v0,0
7f00c40c:	9327      	lw	v1,156(sp)
7f00c40e:	6014      	bteqz	7f00c438 <_doprnt+0x10d8>
7f00c410:	921a      	lw	v0,104(sp)
7f00c412:	6c01      	li	a0,1
7f00c414:	4aff      	addiu	v0,-1
7f00c416:	d21a      	sw	v0,104(sp)
7f00c418:	921f      	lw	v0,124(sp)
7f00c41a:	4afe      	addiu	v0,-2
7f00c41c:	ea11      	zeb	v0
7f00c41e:	d21f      	sw	v0,124(sp)
7f00c420:	16d3      	b	7f00c1c8 <_doprnt+0xe68>
7f00c422:	a340      	lbu	v0,0(v1)
7f00c424:	c040      	sb	v0,0(s0)
7f00c426:	951a      	lw	a1,104(sp)
7f00c428:	4801      	addiu	s0,1
7f00c42a:	4dff      	addiu	a1,-1
7f00c42c:	d51a      	sw	a1,104(sp)
7f00c42e:	4b01      	addiu	v1,1
7f00c430:	0218      	addiu	v0,sp,96
7f00c432:	eb43      	sltu	v1,v0
7f00c434:	61f6      	btnez	7f00c422 <_doprnt+0x10c2>
7f00c436:	1006      	b	7f00c444 <_doprnt+0x10e4>
7f00c438:	6a30      	li	v0,48
7f00c43a:	677d      	move	v1,sp
7f00c43c:	f020 c351 	sb	v0,49(v1)
7f00c440:	f020 0012 	addiu	s0,sp,50
7f00c444:	921a      	lw	v0,104(sp)
7f00c446:	9420      	lw	a0,128(sp)
7f00c448:	6d00      	li	a1,0
7f00c44a:	d51f      	sw	a1,124(sp)
7f00c44c:	ea8d      	or	v0,a0
7f00c44e:	2219      	beqz	v0,7f00c482 <_doprnt+0x1122>
7f00c450:	6a2e      	li	v0,46
7f00c452:	c040      	sb	v0,0(s0)
7f00c454:	6a01      	li	v0,1
7f00c456:	4801      	addiu	s0,1
7f00c458:	d21f      	sw	v0,124(sp)
7f00c45a:	1013      	b	7f00c482 <_doprnt+0x1122>
7f00c45c:	f4a0 b50c 	lw	a1,7f00c908 <_doprnt+0x15a8>
7f00c460:	1c1e 3726 	jalx	7f00dc98 <__mulsf3>
7f00c464:	941d      	lw	a0,116(sp)
7f00c466:	6782      	move	a0,v0
7f00c468:	181e 3401 	jal	7f00d004 <modf>
7f00c46c:	0509      	addiu	a1,sp,36
7f00c46e:	9409      	lw	a0,36(sp)
7f00c470:	1c1e 3976 	jalx	7f00e5d8 <__fixsfsi>
7f00c474:	d21d      	sw	v0,116(sp)
7f00c476:	4a30      	addiu	v0,48
7f00c478:	c040      	sb	v0,0(s0)
7f00c47a:	931a      	lw	v1,104(sp)
7f00c47c:	4801      	addiu	s0,1
7f00c47e:	4bff      	addiu	v1,-1
7f00c480:	d31a      	sw	v1,104(sp)
7f00c482:	941a      	lw	a0,104(sp)
7f00c484:	2406      	beqz	a0,7f00c492 <_doprnt+0x1132>
7f00c486:	f460 b50c 	lw	a1,7f00c8f0 <_doprnt+0x1590>
7f00c48a:	1c1e 3698 	jalx	7f00da60 <__eqsf2>
7f00c48e:	941d      	lw	a0,116(sp)
7f00c490:	2ae5      	bnez	v0,7f00c45c <_doprnt+0x10fc>
7f00c492:	f460 b500 	lw	a1,7f00c8f0 <_doprnt+0x1590>
7f00c496:	1c1e 3698 	jalx	7f00da60 <__eqsf2>
7f00c49a:	941d      	lw	a0,116(sp)
7f00c49c:	f020 0611 	addiu	a2,sp,49
7f00c4a0:	220c      	beqz	v0,7f00c4ba <_doprnt+0x115a>
7f00c4a2:	941d      	lw	a0,116(sp)
7f00c4a4:	6a30      	li	v0,48
7f00c4a6:	d204      	sw	v0,16(sp)
7f00c4a8:	f020 0611 	addiu	a2,sp,49
7f00c4ac:	0206      	addiu	v0,sp,24
7f00c4ae:	6d00      	li	a1,0
7f00c4b0:	40ef      	addiu	a3,s0,-1
7f00c4b2:	181e 2ca7 	jal	7f00b29c <cvtround>
7f00c4b6:	d205      	sw	v0,20(sp)
7f00c4b8:	67c2      	move	a2,v0
7f00c4ba:	9520      	lw	a1,128(sp)
7f00c4bc:	250c      	beqz	a1,7f00c4d6 <_doprnt+0x1176>
7f00c4be:	6770      	move	v1,s0
7f00c4c0:	921a      	lw	v0,104(sp)
7f00c4c2:	1003      	b	7f00c4ca <_doprnt+0x116a>
7f00c4c4:	6c30      	li	a0,48
7f00c4c6:	c380      	sb	a0,0(v1)
7f00c4c8:	4b01      	addiu	v1,1
7f00c4ca:	4aff      	addiu	v0,-1
7f00c4cc:	4281      	addiu	a0,v0,1
7f00c4ce:	2cfa      	bnez	a0,7f00c4c4 <_doprnt+0x1164>
7f00c4d0:	921a      	lw	v0,104(sp)
7f00c4d2:	e041      	addu	s0,v0
7f00c4d4:	1010      	b	7f00c4f6 <_doprnt+0x1196>
7f00c4d6:	931f      	lw	v1,124(sp)
7f00c4d8:	230e      	beqz	v1,7f00c4f6 <_doprnt+0x1196>
7f00c4da:	ee03      	sltu	a2,s0
7f00c4dc:	6004      	bteqz	7f00c4e6 <_doprnt+0x1186>
7f00c4de:	48ff      	addiu	s0,-1
7f00c4e0:	a040      	lbu	v0,0(s0)
7f00c4e2:	7230      	cmpi	v0,48
7f00c4e4:	60fa      	bteqz	7f00c4da <_doprnt+0x117a>
7f00c4e6:	a040      	lbu	v0,0(s0)
7f00c4e8:	722e      	cmpi	v0,46
7f00c4ea:	6005      	bteqz	7f00c4f6 <_doprnt+0x1196>
7f00c4ec:	4801      	addiu	s0,1
7f00c4ee:	1003      	b	7f00c4f6 <_doprnt+0x1196>
7f00c4f0:	f020 0011 	addiu	s0,sp,49
7f00c4f4:	67d0      	move	a2,s0
7f00c4f6:	679d      	move	a0,sp
7f00c4f8:	f020 a450 	lbu	v0,48(a0)
7f00c4fc:	e0c3      	subu	s0,a2
7f00c4fe:	e811      	zeb	s0
7f00c500:	c419      	sb	s0,25(a0)
7f00c502:	2206      	beqz	v0,7f00c510 <_doprnt+0x11b0>
7f00c504:	0506      	addiu	a1,sp,24
7f00c506:	e501      	addu	s0,a1,s0
7f00c508:	6a00      	li	v0,0
7f00c50a:	c058      	sb	v0,24(s0)
7f00c50c:	000c      	addiu	s0,sp,48
7f00c50e:	1005      	b	7f00c51a <_doprnt+0x11ba>
7f00c510:	0306      	addiu	v1,sp,24
7f00c512:	e301      	addu	s0,v1,s0
7f00c514:	c059      	sb	v0,25(s0)
7f00c516:	f020 0011 	addiu	s0,sp,49
7f00c51a:	679d      	move	a0,sp
7f00c51c:	a458      	lbu	v0,24(a0)
7f00c51e:	2a02      	bnez	v0,7f00c524 <_doprnt+0x11c4>
7f00c520:	9523      	lw	a1,140(sp)
7f00c522:	2504      	beqz	a1,7f00c52c <_doprnt+0x11cc>
7f00c524:	677d      	move	v1,sp
7f00c526:	a359      	lbu	v0,25(v1)
7f00c528:	4a01      	addiu	v0,1
7f00c52a:	c359      	sb	v0,25(v1)
7f00c52c:	941e      	lw	a0,120(sp)
7f00c52e:	2c33      	bnez	a0,7f00c596 <_doprnt+0x1236>
7f00c530:	951c      	lw	a1,112(sp)
7f00c532:	2531      	beqz	a1,7f00c596 <_doprnt+0x1236>
7f00c534:	9221      	lw	v0,132(sp)
7f00c536:	7220      	cmpi	v0,32
7f00c538:	612e      	btnez	7f00c596 <_doprnt+0x1236>
7f00c53a:	677d      	move	v1,sp
7f00c53c:	a359      	lbu	v0,25(v1)
7f00c53e:	e557      	subu	a1,v0
7f00c540:	5501      	slti	a1,1
7f00c542:	d51c      	sw	a1,112(sp)
7f00c544:	6128      	btnez	7f00c596 <_doprnt+0x1236>
7f00c546:	6765      	move	v1,a1
7f00c548:	9940      	lw	v0,0(s1)
7f00c54a:	4aff      	addiu	v0,-1
7f00c54c:	5200      	slti	v0,0
7f00c54e:	d940      	sw	v0,0(s1)
7f00c550:	6104      	btnez	7f00c55a <_doprnt+0x11fa>
7f00c552:	9941      	lw	v0,4(s1)
7f00c554:	6c20      	li	a0,32
7f00c556:	c280      	sb	a0,0(v0)
7f00c558:	100c      	b	7f00c572 <_doprnt+0x1212>
7f00c55a:	a988      	lhu	a0,16(s1)
7f00c55c:	6d80      	li	a1,128
7f00c55e:	ecac      	and	a0,a1
7f00c560:	240b      	beqz	a0,7f00c578 <_doprnt+0x1218>
7f00c562:	9983      	lw	a0,12(s1)
7f00c564:	ea4b      	neg	v0
7f00c566:	ea82      	slt	v0,a0
7f00c568:	6007      	bteqz	7f00c578 <_doprnt+0x1218>
7f00c56a:	9941      	lw	v0,4(s1)
7f00c56c:	6c20      	li	a0,32
7f00c56e:	c280      	sb	a0,0(v0)
7f00c570:	9941      	lw	v0,4(s1)
7f00c572:	4a01      	addiu	v0,1
7f00c574:	d941      	sw	v0,4(s1)
7f00c576:	1006      	b	7f00c584 <_doprnt+0x1224>
7f00c578:	6c20      	li	a0,32
7f00c57a:	67b1      	move	a1,s1
7f00c57c:	181e 2a09 	jal	7f00a824 <_flsbuf>
7f00c580:	d327      	sw	v1,156(sp)
7f00c582:	9327      	lw	v1,156(sp)
7f00c584:	4bff      	addiu	v1,-1
7f00c586:	5301      	slti	v1,1
7f00c588:	60df      	bteqz	7f00c548 <_doprnt+0x11e8>
7f00c58a:	941b      	lw	a0,108(sp)
7f00c58c:	951c      	lw	a1,112(sp)
7f00c58e:	6a00      	li	v0,0
7f00c590:	d21c      	sw	v0,112(sp)
7f00c592:	e4b1      	addu	a0,a1
7f00c594:	d41b      	sw	a0,108(sp)
7f00c596:	677d      	move	v1,sp
7f00c598:	a358      	lbu	v0,24(v1)
7f00c59a:	2220      	beqz	v0,7f00c5dc <_doprnt+0x127c>
7f00c59c:	9940      	lw	v0,0(s1)
7f00c59e:	4aff      	addiu	v0,-1
7f00c5a0:	5200      	slti	v0,0
7f00c5a2:	d940      	sw	v0,0(s1)
7f00c5a4:	6104      	btnez	7f00c5ae <_doprnt+0x124e>
7f00c5a6:	9941      	lw	v0,4(s1)
7f00c5a8:	6b2d      	li	v1,45
7f00c5aa:	c260      	sb	v1,0(v0)
7f00c5ac:	100c      	b	7f00c5c6 <_doprnt+0x1266>
7f00c5ae:	a968      	lhu	v1,16(s1)
7f00c5b0:	6c80      	li	a0,128
7f00c5b2:	eb8c      	and	v1,a0
7f00c5b4:	230b      	beqz	v1,7f00c5cc <_doprnt+0x126c>
7f00c5b6:	9963      	lw	v1,12(s1)
7f00c5b8:	ea4b      	neg	v0
7f00c5ba:	ea62      	slt	v0,v1
7f00c5bc:	6007      	bteqz	7f00c5cc <_doprnt+0x126c>
7f00c5be:	9941      	lw	v0,4(s1)
7f00c5c0:	6b2d      	li	v1,45
7f00c5c2:	c260      	sb	v1,0(v0)
7f00c5c4:	9941      	lw	v0,4(s1)
7f00c5c6:	4a01      	addiu	v0,1
7f00c5c8:	d941      	sw	v0,4(s1)
7f00c5ca:	1004      	b	7f00c5d4 <_doprnt+0x1274>
7f00c5cc:	6c2d      	li	a0,45
7f00c5ce:	181e 2a09 	jal	7f00a824 <_flsbuf>
7f00c5d2:	67b1      	move	a1,s1
7f00c5d4:	941b      	lw	a0,108(sp)
7f00c5d6:	4c01      	addiu	a0,1
7f00c5d8:	d41b      	sw	a0,108(sp)
7f00c5da:	1021      	b	7f00c61e <_doprnt+0x12be>
7f00c5dc:	9523      	lw	a1,140(sp)
7f00c5de:	251f      	beqz	a1,7f00c61e <_doprnt+0x12be>
7f00c5e0:	9940      	lw	v0,0(s1)
7f00c5e2:	4aff      	addiu	v0,-1
7f00c5e4:	5200      	slti	v0,0
7f00c5e6:	d940      	sw	v0,0(s1)
7f00c5e8:	6104      	btnez	7f00c5f2 <_doprnt+0x1292>
7f00c5ea:	9941      	lw	v0,4(s1)
7f00c5ec:	6b2b      	li	v1,43
7f00c5ee:	c260      	sb	v1,0(v0)
7f00c5f0:	100c      	b	7f00c60a <_doprnt+0x12aa>
7f00c5f2:	a968      	lhu	v1,16(s1)
7f00c5f4:	6c80      	li	a0,128
7f00c5f6:	eb8c      	and	v1,a0
7f00c5f8:	230b      	beqz	v1,7f00c610 <_doprnt+0x12b0>
7f00c5fa:	9963      	lw	v1,12(s1)
7f00c5fc:	ea4b      	neg	v0
7f00c5fe:	ea62      	slt	v0,v1
7f00c600:	6007      	bteqz	7f00c610 <_doprnt+0x12b0>
7f00c602:	9941      	lw	v0,4(s1)
7f00c604:	6b2b      	li	v1,43
7f00c606:	c260      	sb	v1,0(v0)
7f00c608:	9941      	lw	v0,4(s1)
7f00c60a:	4a01      	addiu	v0,1
7f00c60c:	d941      	sw	v0,4(s1)
7f00c60e:	1004      	b	7f00c618 <_doprnt+0x12b8>
7f00c610:	6c2b      	li	a0,43
7f00c612:	181e 2a09 	jal	7f00a824 <_flsbuf>
7f00c616:	67b1      	move	a1,s1
7f00c618:	921b      	lw	v0,108(sp)
7f00c61a:	4a01      	addiu	v0,1
7f00c61c:	d21b      	sw	v0,108(sp)
7f00c61e:	931e      	lw	v1,120(sp)
7f00c620:	f080 2b05 	bnez	v1,7f00c72e <_doprnt+0x13ce>
7f00c624:	941c      	lw	a0,112(sp)
7f00c626:	f080 2402 	beqz	a0,7f00c72e <_doprnt+0x13ce>
7f00c62a:	67bd      	move	a1,sp
7f00c62c:	a559      	lbu	v0,25(a1)
7f00c62e:	e44f      	subu	v1,a0,v0
7f00c630:	5301      	slti	v1,1
7f00c632:	d31c      	sw	v1,112(sp)
7f00c634:	617c      	btnez	7f00c72e <_doprnt+0x13ce>
7f00c636:	9940      	lw	v0,0(s1)
7f00c638:	4aff      	addiu	v0,-1
7f00c63a:	5200      	slti	v0,0
7f00c63c:	d940      	sw	v0,0(s1)
7f00c63e:	6107      	btnez	7f00c64e <_doprnt+0x12ee>
7f00c640:	679d      	move	a0,sp
7f00c642:	44a7      	addiu	a1,a0,7
7f00c644:	4d7d      	addiu	a1,125
7f00c646:	9941      	lw	v0,4(s1)
7f00c648:	a580      	lbu	a0,0(a1)
7f00c64a:	c280      	sb	a0,0(v0)
7f00c64c:	100f      	b	7f00c66c <_doprnt+0x130c>
7f00c64e:	a988      	lhu	a0,16(s1)
7f00c650:	6d80      	li	a1,128
7f00c652:	ecac      	and	a0,a1
7f00c654:	240e      	beqz	a0,7f00c672 <_doprnt+0x1312>
7f00c656:	9983      	lw	a0,12(s1)
7f00c658:	ea4b      	neg	v0
7f00c65a:	ea82      	slt	v0,a0
7f00c65c:	600a      	bteqz	7f00c672 <_doprnt+0x1312>
7f00c65e:	67bd      	move	a1,sp
7f00c660:	4587      	addiu	a0,a1,7
7f00c662:	4c7d      	addiu	a0,125
7f00c664:	9941      	lw	v0,4(s1)
7f00c666:	a4a0      	lbu	a1,0(a0)
7f00c668:	c2a0      	sb	a1,0(v0)
7f00c66a:	9941      	lw	v0,4(s1)
7f00c66c:	4a01      	addiu	v0,1
7f00c66e:	d941      	sw	v0,4(s1)
7f00c670:	1006      	b	7f00c67e <_doprnt+0x131e>
7f00c672:	9421      	lw	a0,132(sp)
7f00c674:	67b1      	move	a1,s1
7f00c676:	181e 2a09 	jal	7f00a824 <_flsbuf>
7f00c67a:	d327      	sw	v1,156(sp)
7f00c67c:	9327      	lw	v1,156(sp)
7f00c67e:	4bff      	addiu	v1,-1
7f00c680:	5301      	slti	v1,1
7f00c682:	60d9      	bteqz	7f00c636 <_doprnt+0x12d6>
7f00c684:	921b      	lw	v0,108(sp)
7f00c686:	931c      	lw	v1,112(sp)
7f00c688:	6c00      	li	a0,0
7f00c68a:	d41c      	sw	a0,112(sp)
7f00c68c:	e269      	addu	v0,v1
7f00c68e:	d21b      	sw	v0,108(sp)
7f00c690:	104e      	b	7f00c72e <_doprnt+0x13ce>
7f00c692:	9522      	lw	a1,136(sp)
7f00c694:	2528      	beqz	a1,7f00c6e6 <_doprnt+0x1386>
7f00c696:	7265      	cmpi	v0,101
7f00c698:	6002      	bteqz	7f00c69e <_doprnt+0x133e>
7f00c69a:	7245      	cmpi	v0,69
7f00c69c:	6124      	btnez	7f00c6e6 <_doprnt+0x1386>
7f00c69e:	9940      	lw	v0,0(s1)
7f00c6a0:	4aff      	addiu	v0,-1
7f00c6a2:	5200      	slti	v0,0
7f00c6a4:	d940      	sw	v0,0(s1)
7f00c6a6:	6104      	btnez	7f00c6b0 <_doprnt+0x1350>
7f00c6a8:	9941      	lw	v0,4(s1)
7f00c6aa:	6b30      	li	v1,48
7f00c6ac:	c260      	sb	v1,0(v0)
7f00c6ae:	100c      	b	7f00c6c8 <_doprnt+0x1368>
7f00c6b0:	a968      	lhu	v1,16(s1)
7f00c6b2:	6c80      	li	a0,128
7f00c6b4:	eb8c      	and	v1,a0
7f00c6b6:	230b      	beqz	v1,7f00c6ce <_doprnt+0x136e>
7f00c6b8:	9963      	lw	v1,12(s1)
7f00c6ba:	ea4b      	neg	v0
7f00c6bc:	ea62      	slt	v0,v1
7f00c6be:	6007      	bteqz	7f00c6ce <_doprnt+0x136e>
7f00c6c0:	9941      	lw	v0,4(s1)
7f00c6c2:	6b30      	li	v1,48
7f00c6c4:	c260      	sb	v1,0(v0)
7f00c6c6:	9941      	lw	v0,4(s1)
7f00c6c8:	4a01      	addiu	v0,1
7f00c6ca:	d941      	sw	v0,4(s1)
7f00c6cc:	1004      	b	7f00c6d6 <_doprnt+0x1376>
7f00c6ce:	6c30      	li	a0,48
7f00c6d0:	181e 2a09 	jal	7f00a824 <_flsbuf>
7f00c6d4:	67b1      	move	a1,s1
7f00c6d6:	921b      	lw	v0,108(sp)
7f00c6d8:	9322      	lw	v1,136(sp)
7f00c6da:	4a01      	addiu	v0,1
7f00c6dc:	4bff      	addiu	v1,-1
7f00c6de:	d21b      	sw	v0,108(sp)
7f00c6e0:	d322      	sw	v1,136(sp)
7f00c6e2:	5301      	slti	v1,1
7f00c6e4:	17db      	b	7f00c69c <_doprnt+0x133c>
7f00c6e6:	9940      	lw	v0,0(s1)
7f00c6e8:	4aff      	addiu	v0,-1
7f00c6ea:	5200      	slti	v0,0
7f00c6ec:	d940      	sw	v0,0(s1)
7f00c6ee:	6104      	btnez	7f00c6f8 <_doprnt+0x1398>
7f00c6f0:	9941      	lw	v0,4(s1)
7f00c6f2:	a060      	lbu	v1,0(s0)
7f00c6f4:	c260      	sb	v1,0(v0)
7f00c6f6:	100e      	b	7f00c714 <_doprnt+0x13b4>
7f00c6f8:	a968      	lhu	v1,16(s1)
7f00c6fa:	6c80      	li	a0,128
7f00c6fc:	eb8c      	and	v1,a0
7f00c6fe:	230f      	beqz	v1,7f00c71e <_doprnt+0x13be>
7f00c700:	9963      	lw	v1,12(s1)
7f00c702:	ea4b      	neg	v0
7f00c704:	ea62      	slt	v0,v1
7f00c706:	600b      	bteqz	7f00c71e <_doprnt+0x13be>
7f00c708:	8040      	lb	v0,0(s0)
7f00c70a:	9961      	lw	v1,4(s1)
7f00c70c:	720a      	cmpi	v0,10
7f00c70e:	c340      	sb	v0,0(v1)
7f00c710:	9941      	lw	v0,4(s1)
7f00c712:	6003      	bteqz	7f00c71a <_doprnt+0x13ba>
7f00c714:	4a01      	addiu	v0,1
7f00c716:	d941      	sw	v0,4(s1)
7f00c718:	1006      	b	7f00c726 <_doprnt+0x13c6>
7f00c71a:	a280      	lbu	a0,0(v0)
7f00c71c:	1001      	b	7f00c720 <_doprnt+0x13c0>
7f00c71e:	a080      	lbu	a0,0(s0)
7f00c720:	181e 2a09 	jal	7f00a824 <_flsbuf>
7f00c724:	67b1      	move	a1,s1
7f00c726:	941b      	lw	a0,108(sp)
7f00c728:	4801      	addiu	s0,1
7f00c72a:	4c01      	addiu	a0,1
7f00c72c:	d41b      	sw	a0,108(sp)
7f00c72e:	a040      	lbu	v0,0(s0)
7f00c730:	2ab0      	bnez	v0,7f00c692 <_doprnt+0x1332>
7f00c732:	9522      	lw	a1,136(sp)
7f00c734:	2523      	beqz	a1,7f00c77c <_doprnt+0x141c>
7f00c736:	6705      	move	s0,a1
7f00c738:	9940      	lw	v0,0(s1)
7f00c73a:	4aff      	addiu	v0,-1
7f00c73c:	5200      	slti	v0,0
7f00c73e:	d940      	sw	v0,0(s1)
7f00c740:	6104      	btnez	7f00c74a <_doprnt+0x13ea>
7f00c742:	9941      	lw	v0,4(s1)
7f00c744:	6b30      	li	v1,48
7f00c746:	c260      	sb	v1,0(v0)
7f00c748:	100c      	b	7f00c762 <_doprnt+0x1402>
7f00c74a:	a968      	lhu	v1,16(s1)
7f00c74c:	6c80      	li	a0,128
7f00c74e:	eb8c      	and	v1,a0
7f00c750:	230b      	beqz	v1,7f00c768 <_doprnt+0x1408>
7f00c752:	9963      	lw	v1,12(s1)
7f00c754:	ea4b      	neg	v0
7f00c756:	ea62      	slt	v0,v1
7f00c758:	6007      	bteqz	7f00c768 <_doprnt+0x1408>
7f00c75a:	9941      	lw	v0,4(s1)
7f00c75c:	6b30      	li	v1,48
7f00c75e:	c260      	sb	v1,0(v0)
7f00c760:	9941      	lw	v0,4(s1)
7f00c762:	4a01      	addiu	v0,1
7f00c764:	d941      	sw	v0,4(s1)
7f00c766:	1004      	b	7f00c770 <_doprnt+0x1410>
7f00c768:	6c30      	li	a0,48
7f00c76a:	181e 2a09 	jal	7f00a824 <_flsbuf>
7f00c76e:	67b1      	move	a1,s1
7f00c770:	921b      	lw	v0,108(sp)
7f00c772:	48ff      	addiu	s0,-1
7f00c774:	5001      	slti	s0,1
7f00c776:	4a01      	addiu	v0,1
7f00c778:	d21b      	sw	v0,108(sp)
7f00c77a:	60de      	bteqz	7f00c738 <_doprnt+0x13d8>
7f00c77c:	931e      	lw	v1,120(sp)
7f00c77e:	f63e 2300 	beqz	v1,7f00b3c2 <_doprnt+0x62>
7f00c782:	941c      	lw	a0,112(sp)
7f00c784:	f61e 241d 	beqz	a0,7f00b3c2 <_doprnt+0x62>
7f00c788:	67bd      	move	a1,sp
7f00c78a:	a579      	lbu	v1,25(a1)
7f00c78c:	e46f      	subu	v1,a0,v1
7f00c78e:	5301      	slti	v1,1
7f00c790:	f61e 6117 	btnez	7f00b3c2 <_doprnt+0x62>
7f00c794:	6703      	move	s0,v1
7f00c796:	9940      	lw	v0,0(s1)
7f00c798:	4aff      	addiu	v0,-1
7f00c79a:	5200      	slti	v0,0
7f00c79c:	d940      	sw	v0,0(s1)
7f00c79e:	6104      	btnez	7f00c7a8 <_doprnt+0x1448>
7f00c7a0:	9941      	lw	v0,4(s1)
7f00c7a2:	6c20      	li	a0,32
7f00c7a4:	c280      	sb	a0,0(v0)
7f00c7a6:	100c      	b	7f00c7c0 <_doprnt+0x1460>
7f00c7a8:	a988      	lhu	a0,16(s1)
7f00c7aa:	6d80      	li	a1,128
7f00c7ac:	ecac      	and	a0,a1
7f00c7ae:	240b      	beqz	a0,7f00c7c6 <_doprnt+0x1466>
7f00c7b0:	9983      	lw	a0,12(s1)
7f00c7b2:	ea4b      	neg	v0
7f00c7b4:	ea82      	slt	v0,a0
7f00c7b6:	6007      	bteqz	7f00c7c6 <_doprnt+0x1466>
7f00c7b8:	9941      	lw	v0,4(s1)
7f00c7ba:	6c20      	li	a0,32
7f00c7bc:	c280      	sb	a0,0(v0)
7f00c7be:	9941      	lw	v0,4(s1)
7f00c7c0:	4a01      	addiu	v0,1
7f00c7c2:	d941      	sw	v0,4(s1)
7f00c7c4:	1006      	b	7f00c7d2 <_doprnt+0x1472>
7f00c7c6:	6c20      	li	a0,32
7f00c7c8:	67b1      	move	a1,s1
7f00c7ca:	181e 2a09 	jal	7f00a824 <_flsbuf>
7f00c7ce:	d327      	sw	v1,156(sp)
7f00c7d0:	9327      	lw	v1,156(sp)
7f00c7d2:	48ff      	addiu	s0,-1
7f00c7d4:	5001      	slti	s0,1
7f00c7d6:	60df      	bteqz	7f00c796 <_doprnt+0x1436>
7f00c7d8:	921b      	lw	v0,108(sp)
7f00c7da:	e269      	addu	v0,v1
7f00c7dc:	d21b      	sw	v0,108(sp)
7f00c7de:	f5fe 1010 	b	7f00b3c2 <_doprnt+0x62>
7f00c7e2:	9940      	lw	v0,0(s1)
7f00c7e4:	d41f      	sw	a0,124(sp)
7f00c7e6:	6789      	move	a0,t1
7f00c7e8:	4aff      	addiu	v0,-1
7f00c7ea:	5200      	slti	v0,0
7f00c7ec:	676c      	move	v1,t4
7f00c7ee:	d72c      	sw	a3,176(sp)
7f00c7f0:	d42d      	sw	a0,180(sp)
7f00c7f2:	d940      	sw	v0,0(s1)
7f00c7f4:	6104      	btnez	7f00c7fe <_doprnt+0x149e>
7f00c7f6:	9941      	lw	v0,4(s1)
7f00c7f8:	6c25      	li	a0,37
7f00c7fa:	c280      	sb	a0,0(v0)
7f00c7fc:	100c      	b	7f00c816 <_doprnt+0x14b6>
7f00c7fe:	a988      	lhu	a0,16(s1)
7f00c800:	6d80      	li	a1,128
7f00c802:	ecac      	and	a0,a1
7f00c804:	240b      	beqz	a0,7f00c81c <_doprnt+0x14bc>
7f00c806:	9983      	lw	a0,12(s1)
7f00c808:	ea4b      	neg	v0
7f00c80a:	ea82      	slt	v0,a0
7f00c80c:	6007      	bteqz	7f00c81c <_doprnt+0x14bc>
7f00c80e:	9941      	lw	v0,4(s1)
7f00c810:	6c25      	li	a0,37
7f00c812:	c280      	sb	a0,0(v0)
7f00c814:	9941      	lw	v0,4(s1)
7f00c816:	4a01      	addiu	v0,1
7f00c818:	d941      	sw	v0,4(s1)
7f00c81a:	1006      	b	7f00c828 <_doprnt+0x14c8>
7f00c81c:	6c25      	li	a0,37
7f00c81e:	67b1      	move	a1,s1
7f00c820:	181e 2a09 	jal	7f00a824 <_flsbuf>
7f00c824:	d327      	sw	v1,156(sp)
7f00c826:	9327      	lw	v1,156(sp)
7f00c828:	951b      	lw	a1,108(sp)
7f00c82a:	4d01      	addiu	a1,1
7f00c82c:	d51b      	sw	a1,108(sp)
7f00c82e:	2021      	beqz	s0,7f00c872 <_doprnt+0x1512>
7f00c830:	9940      	lw	v0,0(s1)
7f00c832:	4aff      	addiu	v0,-1
7f00c834:	5200      	slti	v0,0
7f00c836:	d940      	sw	v0,0(s1)
7f00c838:	6104      	btnez	7f00c842 <_doprnt+0x14e2>
7f00c83a:	9941      	lw	v0,4(s1)
7f00c83c:	6c6c      	li	a0,108
7f00c83e:	c280      	sb	a0,0(v0)
7f00c840:	100c      	b	7f00c85a <_doprnt+0x14fa>
7f00c842:	a988      	lhu	a0,16(s1)
7f00c844:	6d80      	li	a1,128
7f00c846:	ecac      	and	a0,a1
7f00c848:	240b      	beqz	a0,7f00c860 <_doprnt+0x1500>
7f00c84a:	9983      	lw	a0,12(s1)
7f00c84c:	ea4b      	neg	v0
7f00c84e:	ea82      	slt	v0,a0
7f00c850:	6007      	bteqz	7f00c860 <_doprnt+0x1500>
7f00c852:	9941      	lw	v0,4(s1)
7f00c854:	6c6c      	li	a0,108
7f00c856:	c280      	sb	a0,0(v0)
7f00c858:	9941      	lw	v0,4(s1)
7f00c85a:	4a01      	addiu	v0,1
7f00c85c:	d941      	sw	v0,4(s1)
7f00c85e:	1006      	b	7f00c86c <_doprnt+0x150c>
7f00c860:	6c6c      	li	a0,108
7f00c862:	67b1      	move	a1,s1
7f00c864:	181e 2a09 	jal	7f00a824 <_flsbuf>
7f00c868:	d327      	sw	v1,156(sp)
7f00c86a:	9327      	lw	v1,156(sp)
7f00c86c:	921b      	lw	v0,108(sp)
7f00c86e:	4a01      	addiu	v0,1
7f00c870:	d21b      	sw	v0,108(sp)
7f00c872:	9940      	lw	v0,0(s1)
7f00c874:	4aff      	addiu	v0,-1
7f00c876:	5200      	slti	v0,0
7f00c878:	d940      	sw	v0,0(s1)
7f00c87a:	6106      	btnez	7f00c888 <_doprnt+0x1528>
7f00c87c:	677d      	move	v1,sp
7f00c87e:	9941      	lw	v0,4(s1)
7f00c880:	f060 a37c 	lbu	v1,124(v1)
7f00c884:	f15f 100d 	b	7f00bb22 <_doprnt+0x7c2>
7f00c888:	a988      	lhu	a0,16(s1)
7f00c88a:	6d80      	li	a1,128
7f00c88c:	ecac      	and	a0,a1
7f00c88e:	240c      	beqz	a0,7f00c8a8 <_doprnt+0x1548>
7f00c890:	9983      	lw	a0,12(s1)
7f00c892:	ea4b      	neg	v0
7f00c894:	ea82      	slt	v0,a0
7f00c896:	6008      	bteqz	7f00c8a8 <_doprnt+0x1548>
7f00c898:	9941      	lw	v0,4(s1)
7f00c89a:	730a      	cmpi	v1,10
7f00c89c:	c260      	sb	v1,0(v0)
7f00c89e:	9941      	lw	v0,4(s1)
7f00c8a0:	f15f 610d 	btnez	7f00bb3e <_doprnt+0x7de>
7f00c8a4:	a280      	lbu	a0,0(v0)
7f00c8a6:	1001      	b	7f00c8aa <_doprnt+0x154a>
7f00c8a8:	941f      	lw	a0,124(sp)
7f00c8aa:	181e 2a09 	jal	7f00a824 <_flsbuf>
7f00c8ae:	67b1      	move	a1,s1
7f00c8b0:	941b      	lw	a0,108(sp)
7f00c8b2:	4c01      	addiu	a0,1
7f00c8b4:	d41b      	sw	a0,108(sp)
7f00c8b6:	f59e 1004 	b	7f00b3c2 <_doprnt+0x62>
7f00c8ba:	921b      	lw	v0,108(sp)
7f00c8bc:	f010 6476 	restore	176,ra,s0-s1
7f00c8c0:	e8a0      	jrc	ra
7f00c8c2:	6d00      	li	a1,0
7f00c8c4:	d51d      	sw	a1,116(sp)
7f00c8c6:	1002      	b	7f00c8cc <_doprnt+0x156c>
7f00c8c8:	6a00      	li	v0,0
7f00c8ca:	d21d      	sw	v0,116(sp)
7f00c8cc:	6b0a      	li	v1,10
7f00c8ce:	f1bf 100b 	b	7f00bc28 <_doprnt+0x8c8>
7f00c8d2:	6b01      	li	v1,1
7f00c8d4:	d323      	sw	v1,140(sp)
7f00c8d6:	6c00      	li	a0,0
7f00c8d8:	d22d      	sw	v0,180(sp)
7f00c8da:	d41d      	sw	a0,116(sp)
7f00c8dc:	6b0a      	li	v1,10
7f00c8de:	f19f 1016 	b	7f00bc0e <_doprnt+0x8ae>
7f00c8e2:	6500      	nop
7f00c8e4:	eb60      	0xeb60
7f00c8e6:	7f00      	sd	s0,0(a3)
7f00c8e8:	eb70      	0xeb70
7f00c8ea:	7f00      	sd	s0,0(a3)
7f00c8ec:	eb78      	mult	v1,v1
7f00c8ee:	7f00      	sd	s0,0(a3)
7f00c8f0:	0000      	addiu	s0,sp,0
7f00c8f2:	0000      	addiu	s0,sp,0
7f00c8f4:	0000      	addiu	s0,sp,0
7f00c8f6:	8000      	lb	s0,0(s0)
7f00c8f8:	ffff      	daddiu	a3,sp,124
7f00c8fa:	7fff      	sd	a3,248(a3)
7f00c8fc:	ffff      	daddiu	a3,sp,124
7f00c8fe:	7f7f      	sd	v1,248(a3)
7f00c900:	eb68      	dsrl	v1,3
7f00c902:	7f00      	sd	s0,0(a3)
7f00c904:	eb6c      	and	v1,v1
7f00c906:	7f00      	sd	s0,0(a3)
7f00c908:	0000      	addiu	s0,sp,0
7f00c90a:	4120      	addiu	s1,s1,0
7f00c90c:	d70a      	sw	a3,40(sp)
7f00c90e:	3c23      	ld	s1,24(a0)
7f00c910:	b717      	lw	a3,7f00c96c <_doscan+0x58>
7f00c912:	38d1      	ld	a2,136(s0)

7f00c914 <_doscan>:
7f00c914:	f01c 64f1 	save	a0-a2,136,ra,s0-s1
7f00c918:	6a00      	li	v0,0
7f00c91a:	6704      	move	s0,a0
7f00c91c:	d215      	sw	v0,84(sp)
7f00c91e:	9323      	lw	v1,140(sp)
7f00c920:	8320      	lb	s1,0(v1)
7f00c922:	4b01      	addiu	v1,1
7f00c924:	d323      	sw	v1,140(sp)
7f00c926:	7120      	cmpi	s1,32
7f00c928:	f240 600c 	bteqz	7f00cdc4 <_doscan+0x4b0>
7f00c92c:	5121      	slti	s1,33
7f00c92e:	600c      	bteqz	7f00c948 <_doscan+0x34>
7f00c930:	f280 2101 	beqz	s1,7f00ce36 <_doscan+0x522>
7f00c934:	5100      	slti	s1,0
7f00c936:	f260 6100 	btnez	7f00cdfa <_doscan+0x4e6>
7f00c93a:	4168      	addiu	v1,s1,-8
7f00c93c:	4bff      	addiu	v1,-1
7f00c93e:	6a01      	li	v0,1
7f00c940:	ea63      	sltu	v0,v1
7f00c942:	f240 611a 	btnez	7f00cdfa <_doscan+0x4e6>
7f00c946:	123e      	b	7f00cdc4 <_doscan+0x4b0>
7f00c948:	7125      	cmpi	s1,37
7f00c94a:	f240 6116 	btnez	7f00cdfa <_doscan+0x4e6>
7f00c94e:	9423      	lw	a0,140(sp)
7f00c950:	8420      	lb	s1,0(a0)
7f00c952:	4c01      	addiu	a0,1
7f00c954:	d423      	sw	a0,140(sp)
7f00c956:	7125      	cmpi	s1,37
7f00c958:	f240 600f 	bteqz	7f00cdfa <_doscan+0x4e6>
7f00c95c:	712a      	cmpi	s1,42
7f00c95e:	6106      	btnez	7f00c96c <_doscan+0x58>
7f00c960:	8420      	lb	s1,0(a0)
7f00c962:	6d00      	li	a1,0
7f00c964:	4c01      	addiu	a0,1
7f00c966:	d423      	sw	a0,140(sp)
7f00c968:	d514      	sw	a1,80(sp)
7f00c96a:	1006      	b	7f00c978 <_doscan+0x64>
7f00c96c:	9624      	lw	a2,144(sp)
7f00c96e:	9724      	lw	a3,144(sp)
7f00c970:	9ec0      	lw	a2,0(a2)
7f00c972:	4f04      	addiu	a3,4
7f00c974:	d724      	sw	a3,144(sp)
7f00c976:	d614      	sw	a2,80(sp)
7f00c978:	6b00      	li	v1,0
7f00c97a:	1009      	b	7f00c98e <_doscan+0x7a>
7f00c97c:	6a0a      	li	v0,10
7f00c97e:	eb58      	mult	v1,v0
7f00c980:	9223      	lw	v0,140(sp)
7f00c982:	49d0      	addiu	s1,-48
7f00c984:	eb12      	mflo	v1
7f00c986:	e16d      	addu	v1,s1,v1
7f00c988:	8220      	lb	s1,0(v0)
7f00c98a:	4a01      	addiu	v0,1
7f00c98c:	d223      	sw	v0,140(sp)
7f00c98e:	f4a0 b21c 	lw	v0,7f00ce48 <_doscan+0x534>
7f00c992:	e229      	addu	v0,s1
7f00c994:	a241      	lbu	v0,1(v0)
7f00c996:	6c04      	li	a0,4
7f00c998:	ea8c      	and	v0,a0
7f00c99a:	2af0      	bnez	v0,7f00c97c <_doscan+0x68>
7f00c99c:	2b02      	bnez	v1,7f00c9a2 <_doscan+0x8e>
7f00c99e:	f52e 4b10 	addiu	v1,30000
7f00c9a2:	716c      	cmpi	s1,108
7f00c9a4:	6107      	btnez	7f00c9b4 <_doscan+0xa0>
7f00c9a6:	9423      	lw	a0,140(sp)
7f00c9a8:	6d02      	li	a1,2
7f00c9aa:	8420      	lb	s1,0(a0)
7f00c9ac:	4c01      	addiu	a0,1
7f00c9ae:	d423      	sw	a0,140(sp)
7f00c9b0:	d518      	sw	a1,96(sp)
7f00c9b2:	1079      	b	7f00caa6 <_doscan+0x192>
7f00c9b4:	7168      	cmpi	s1,104
7f00c9b6:	6107      	btnez	7f00c9c6 <_doscan+0xb2>
7f00c9b8:	9623      	lw	a2,140(sp)
7f00c9ba:	6f00      	li	a3,0
7f00c9bc:	8620      	lb	s1,0(a2)
7f00c9be:	4e01      	addiu	a2,1
7f00c9c0:	d623      	sw	a2,140(sp)
7f00c9c2:	d718      	sw	a3,96(sp)
7f00c9c4:	1070      	b	7f00caa6 <_doscan+0x192>
7f00c9c6:	6a01      	li	v0,1
7f00c9c8:	715b      	cmpi	s1,91
7f00c9ca:	d218      	sw	v0,96(sp)
7f00c9cc:	616c      	btnez	7f00caa6 <_doscan+0x192>
7f00c9ce:	9223      	lw	v0,140(sp)
7f00c9d0:	a280      	lbu	a0,0(v0)
7f00c9d2:	745e      	cmpi	a0,94
7f00c9d4:	6c00      	li	a0,0
7f00c9d6:	6102      	btnez	7f00c9dc <_doscan+0xc8>
7f00c9d8:	4a01      	addiu	v0,1
7f00c9da:	6c01      	li	a0,1
7f00c9dc:	f460 b510 	lw	a1,7f00ce4c <_doscan+0x538>
7f00c9e0:	f460 b610 	lw	a2,7f00ce50 <_doscan+0x53c>
7f00c9e4:	650d      	move	t0,a1
7f00c9e6:	651e      	move	t8,a2
7f00c9e8:	100a      	b	7f00c9fe <_doscan+0xea>
7f00c9ea:	a5e0      	lbu	a3,0(a1)
7f00c9ec:	2404      	beqz	a0,7f00c9f6 <_doscan+0xe2>
7f00c9ee:	6e03      	li	a2,3
7f00c9f0:	eecb      	neg	a2
7f00c9f2:	eeec      	and	a2,a3
7f00c9f4:	1002      	b	7f00c9fa <_doscan+0xe6>
7f00c9f6:	6e02      	li	a2,2
7f00c9f8:	eeed      	or	a2,a3
7f00c9fa:	c5c0      	sb	a2,0(a1)
7f00c9fc:	4d01      	addiu	a1,1
7f00c9fe:	67d8      	move	a2,t8
7f00ca00:	eeae      	xor	a2,a1
7f00ca02:	2ef3      	bnez	a2,7f00c9ea <_doscan+0xd6>
7f00ca04:	a2a0      	lbu	a1,0(v0)
7f00ca06:	755d      	cmpi	a1,93
7f00ca08:	6002      	bteqz	7f00ca0e <_doscan+0xfa>
7f00ca0a:	752d      	cmpi	a1,45
7f00ca0c:	6145      	btnez	7f00ca98 <_doscan+0x184>
7f00ca0e:	f440 b600 	lw	a2,7f00ce4c <_doscan+0x538>
7f00ca12:	2405      	beqz	a0,7f00ca1e <_doscan+0x10a>
7f00ca14:	e6b5      	addu	a1,a2,a1
7f00ca16:	a5e0      	lbu	a3,0(a1)
7f00ca18:	6e02      	li	a2,2
7f00ca1a:	eeed      	or	a2,a3
7f00ca1c:	1005      	b	7f00ca28 <_doscan+0x114>
7f00ca1e:	e6b5      	addu	a1,a2,a1
7f00ca20:	a5e0      	lbu	a3,0(a1)
7f00ca22:	6e03      	li	a2,3
7f00ca24:	eecb      	neg	a2
7f00ca26:	eeec      	and	a2,a3
7f00ca28:	c5c0      	sb	a2,0(a1)
7f00ca2a:	4a01      	addiu	v0,1
7f00ca2c:	1035      	b	7f00ca98 <_doscan+0x184>
7f00ca2e:	2d02      	bnez	a1,7f00ca34 <_doscan+0x120>
7f00ca30:	d223      	sw	v0,140(sp)
7f00ca32:	1037      	b	7f00caa2 <_doscan+0x18e>
7f00ca34:	752d      	cmpi	a1,45
7f00ca36:	6122      	btnez	7f00ca7c <_doscan+0x168>
7f00ca38:	a6e0      	lbu	a3,0(a2)
7f00ca3a:	775d      	cmpi	a3,93
7f00ca3c:	654f      	move	t2,a3
7f00ca3e:	601e      	bteqz	7f00ca7c <_doscan+0x168>
7f00ca40:	f7ff a65e 	lbu	v0,-2(a2)
7f00ca44:	eae3      	sltu	v0,a3
7f00ca46:	601a      	bteqz	7f00ca7c <_doscan+0x168>
7f00ca48:	f400 b50c 	lw	a1,7f00ce54 <_doscan+0x540>
7f00ca4c:	e2a9      	addu	v0,a1
7f00ca4e:	1010      	b	7f00ca70 <_doscan+0x15c>
7f00ca50:	a2a0      	lbu	a1,0(v0)
7f00ca52:	651d      	move	t8,a1
7f00ca54:	2406      	beqz	a0,7f00ca62 <_doscan+0x14e>
7f00ca56:	6f02      	li	a3,2
7f00ca58:	67a7      	move	a1,a3
7f00ca5a:	67f8      	move	a3,t8
7f00ca5c:	eded      	or	a1,a3
7f00ca5e:	c2a0      	sb	a1,0(v0)
7f00ca60:	1006      	b	7f00ca6e <_doscan+0x15a>
7f00ca62:	6d03      	li	a1,3
7f00ca64:	edab      	neg	a1
7f00ca66:	67e5      	move	a3,a1
7f00ca68:	67b8      	move	a1,t8
7f00ca6a:	efac      	and	a3,a1
7f00ca6c:	c2e0      	sb	a3,0(v0)
7f00ca6e:	4a01      	addiu	v0,1
7f00ca70:	67e8      	move	a3,t0
7f00ca72:	e2ff      	subu	a3,v0,a3
7f00ca74:	67aa      	move	a1,t2
7f00ca76:	efa2      	slt	a3,a1
7f00ca78:	61eb      	btnez	7f00ca50 <_doscan+0x13c>
7f00ca7a:	100d      	b	7f00ca96 <_doscan+0x182>
7f00ca7c:	b2f4      	lw	v0,7f00ce4c <_doscan+0x538>
7f00ca7e:	2405      	beqz	a0,7f00ca8a <_doscan+0x176>
7f00ca80:	e2b5      	addu	a1,v0,a1
7f00ca82:	a5e0      	lbu	a3,0(a1)
7f00ca84:	6a02      	li	v0,2
7f00ca86:	eaed      	or	v0,a3
7f00ca88:	1005      	b	7f00ca94 <_doscan+0x180>
7f00ca8a:	e2b5      	addu	a1,v0,a1
7f00ca8c:	a5e0      	lbu	a3,0(a1)
7f00ca8e:	6a03      	li	v0,3
7f00ca90:	ea4b      	neg	v0
7f00ca92:	eaec      	and	v0,a3
7f00ca94:	c540      	sb	v0,0(a1)
7f00ca96:	6746      	move	v0,a2
7f00ca98:	a2a0      	lbu	a1,0(v0)
7f00ca9a:	42c1      	addiu	a2,v0,1
7f00ca9c:	755d      	cmpi	a1,93
7f00ca9e:	61c7      	btnez	7f00ca2e <_doscan+0x11a>
7f00caa0:	d623      	sw	a2,140(sp)
7f00caa2:	6e01      	li	a2,1
7f00caa4:	d618      	sw	a2,96(sp)
7f00caa6:	b2e9      	lw	v0,7f00ce48 <_doscan+0x534>
7f00caa8:	e229      	addu	v0,s1
7f00caaa:	a241      	lbu	v0,1(v0)
7f00caac:	6c01      	li	a0,1
7f00caae:	ea8c      	and	v0,a0
7f00cab0:	2203      	beqz	v0,7f00cab8 <_doscan+0x1a4>
7f00cab2:	6f02      	li	a3,2
7f00cab4:	4920      	addiu	s1,32
7f00cab6:	d718      	sw	a3,96(sp)
7f00cab8:	f1a0 2116 	beqz	s1,7f00ce28 <_doscan+0x514>
7f00cabc:	7163      	cmpi	s1,99
7f00cabe:	6006      	bteqz	7f00cacc <_doscan+0x1b8>
7f00cac0:	6a73      	li	v0,115
7f00cac2:	ea2e      	xor	v0,s1
7f00cac4:	2203      	beqz	v0,7f00cacc <_doscan+0x1b8>
7f00cac6:	6a5b      	li	v0,91
7f00cac8:	ea2e      	xor	v0,s1
7f00caca:	2a66      	bnez	v0,7f00cb98 <_doscan+0x284>
7f00cacc:	6104      	btnez	7f00cad6 <_doscan+0x1c2>
7f00cace:	f52e 7310 	cmpi	v1,30000
7f00cad2:	6104      	btnez	7f00cadc <_doscan+0x1c8>
7f00cad4:	11b4      	b	7f00ce3e <_doscan+0x52a>
7f00cad6:	7173      	cmpi	s1,115
7f00cad8:	6d01      	li	a1,1
7f00cada:	6001      	bteqz	7f00cade <_doscan+0x1ca>
7f00cadc:	6d00      	li	a1,0
7f00cade:	9840      	lw	v0,0(s0)
7f00cae0:	4aff      	addiu	v0,-1
7f00cae2:	5200      	slti	v0,0
7f00cae4:	d840      	sw	v0,0(s0)
7f00cae6:	6105      	btnez	7f00caf2 <_doscan+0x1de>
7f00cae8:	9881      	lw	a0,4(s0)
7f00caea:	a440      	lbu	v0,0(a0)
7f00caec:	4c01      	addiu	a0,1
7f00caee:	d881      	sw	a0,4(s0)
7f00caf0:	1009      	b	7f00cb04 <_doscan+0x1f0>
7f00caf2:	6790      	move	a0,s0
7f00caf4:	d31d      	sw	v1,116(sp)
7f00caf6:	181e 3396 	jal	7f00ce58 <_filbuf>
7f00cafa:	d51b      	sw	a1,108(sp)
7f00cafc:	4281      	addiu	a0,v0,1
7f00cafe:	931d      	lw	v1,116(sp)
7f00cb00:	951b      	lw	a1,108(sp)
7f00cb02:	2405      	beqz	a0,7f00cb0e <_doscan+0x1fa>
7f00cb04:	b4d2      	lw	a0,7f00ce4c <_doscan+0x538>
7f00cb06:	e451      	addu	a0,v0
7f00cb08:	8480      	lb	a0,0(a0)
7f00cb0a:	ecac      	and	a0,a1
7f00cb0c:	2ce8      	bnez	a0,7f00cade <_doscan+0x1ca>
7f00cb0e:	7163      	cmpi	s1,99
7f00cb10:	6d00      	li	a1,0
7f00cb12:	6005      	bteqz	7f00cb1e <_doscan+0x20a>
7f00cb14:	6d5b      	li	a1,91
7f00cb16:	ed2e      	xor	a1,s1
7f00cb18:	5d01      	sltiu	a1,1
7f00cb1a:	67b8      	move	a1,t8
7f00cb1c:	4d01      	addiu	a1,1
7f00cb1e:	9614      	lw	a2,80(sp)
7f00cb20:	1019      	b	7f00cb54 <_doscan+0x240>
7f00cb22:	2602      	beqz	a2,7f00cb28 <_doscan+0x214>
7f00cb24:	c640      	sb	v0,0(a2)
7f00cb26:	4e01      	addiu	a2,1
7f00cb28:	4bff      	addiu	v1,-1
7f00cb2a:	5301      	slti	v1,1
7f00cb2c:	6126      	btnez	7f00cb7a <_doscan+0x266>
7f00cb2e:	9840      	lw	v0,0(s0)
7f00cb30:	4aff      	addiu	v0,-1
7f00cb32:	5200      	slti	v0,0
7f00cb34:	d840      	sw	v0,0(s0)
7f00cb36:	6105      	btnez	7f00cb42 <_doscan+0x22e>
7f00cb38:	9881      	lw	a0,4(s0)
7f00cb3a:	a440      	lbu	v0,0(a0)
7f00cb3c:	4c01      	addiu	a0,1
7f00cb3e:	d881      	sw	a0,4(s0)
7f00cb40:	1009      	b	7f00cb54 <_doscan+0x240>
7f00cb42:	6790      	move	a0,s0
7f00cb44:	d31d      	sw	v1,116(sp)
7f00cb46:	d51b      	sw	a1,108(sp)
7f00cb48:	181e 3396 	jal	7f00ce58 <_filbuf>
7f00cb4c:	d61c      	sw	a2,112(sp)
7f00cb4e:	961c      	lw	a2,112(sp)
7f00cb50:	951b      	lw	a1,108(sp)
7f00cb52:	931d      	lw	v1,116(sp)
7f00cb54:	4281      	addiu	a0,v0,1
7f00cb56:	2413      	beqz	a0,7f00cb7e <_doscan+0x26a>
7f00cb58:	b4bd      	lw	a0,7f00ce4c <_doscan+0x538>
7f00cb5a:	e451      	addu	a0,v0
7f00cb5c:	8480      	lb	a0,0(a0)
7f00cb5e:	ecac      	and	a0,a1
7f00cb60:	24e0      	beqz	a0,7f00cb22 <_doscan+0x20e>
7f00cb62:	5301      	slti	v1,1
7f00cb64:	6f00      	li	a3,0
7f00cb66:	610c      	btnez	7f00cb80 <_doscan+0x26c>
7f00cb68:	6782      	move	a0,v0
7f00cb6a:	67b0      	move	a1,s0
7f00cb6c:	d61c      	sw	a2,112(sp)
7f00cb6e:	181e 3439 	jal	7f00d0e4 <ungetc>
7f00cb72:	d71b      	sw	a3,108(sp)
7f00cb74:	961c      	lw	a2,112(sp)
7f00cb76:	971b      	lw	a3,108(sp)
7f00cb78:	1003      	b	7f00cb80 <_doscan+0x26c>
7f00cb7a:	6f00      	li	a3,0
7f00cb7c:	1001      	b	7f00cb80 <_doscan+0x26c>
7f00cb7e:	6f01      	li	a3,1
7f00cb80:	f100 2618 	beqz	a2,7f00cdb4 <_doscan+0x4a0>
7f00cb84:	9214      	lw	v0,80(sp)
7f00cb86:	ee4a      	cmp	a2,v0
7f00cb88:	f100 6014 	bteqz	7f00cdb4 <_doscan+0x4a0>
7f00cb8c:	7163      	cmpi	s1,99
7f00cb8e:	f140 6018 	bteqz	7f00ce42 <_doscan+0x52e>
7f00cb92:	6a00      	li	v0,0
7f00cb94:	c640      	sb	v0,0(a2)
7f00cb96:	1155      	b	7f00ce42 <_doscan+0x52e>
7f00cb98:	4148      	addiu	v0,s1,-8
7f00cb9a:	4aa3      	addiu	v0,-93
7f00cb9c:	5a02      	sltiu	v0,2
7f00cb9e:	6107      	btnez	7f00cbae <_doscan+0x29a>
7f00cba0:	716f      	cmpi	s1,111
7f00cba2:	600a      	bteqz	7f00cbb8 <_doscan+0x2a4>
7f00cba4:	7178      	cmpi	s1,120
7f00cba6:	600d      	bteqz	7f00cbc2 <_doscan+0x2ae>
7f00cba8:	6c00      	li	a0,0
7f00cbaa:	d417      	sw	a0,92(sp)
7f00cbac:	1002      	b	7f00cbb2 <_doscan+0x29e>
7f00cbae:	6d01      	li	a1,1
7f00cbb0:	d517      	sw	a1,92(sp)
7f00cbb2:	6e0a      	li	a2,10
7f00cbb4:	d616      	sw	a2,88(sp)
7f00cbb6:	1009      	b	7f00cbca <_doscan+0x2b6>
7f00cbb8:	6f00      	li	a3,0
7f00cbba:	6a08      	li	v0,8
7f00cbbc:	d717      	sw	a3,92(sp)
7f00cbbe:	d216      	sw	v0,88(sp)
7f00cbc0:	1004      	b	7f00cbca <_doscan+0x2b6>
7f00cbc2:	6c00      	li	a0,0
7f00cbc4:	6d10      	li	a1,16
7f00cbc6:	d417      	sw	a0,92(sp)
7f00cbc8:	d516      	sw	a1,88(sp)
7f00cbca:	9840      	lw	v0,0(s0)
7f00cbcc:	4aff      	addiu	v0,-1
7f00cbce:	5200      	slti	v0,0
7f00cbd0:	d840      	sw	v0,0(s0)
7f00cbd2:	6105      	btnez	7f00cbde <_doscan+0x2ca>
7f00cbd4:	9881      	lw	a0,4(s0)
7f00cbd6:	a440      	lbu	v0,0(a0)
7f00cbd8:	4c01      	addiu	a0,1
7f00cbda:	d881      	sw	a0,4(s0)
7f00cbdc:	1005      	b	7f00cbe8 <_doscan+0x2d4>
7f00cbde:	6790      	move	a0,s0
7f00cbe0:	181e 3396 	jal	7f00ce58 <_filbuf>
7f00cbe4:	d31d      	sw	v1,116(sp)
7f00cbe6:	931d      	lw	v1,116(sp)
7f00cbe8:	7220      	cmpi	v0,32
7f00cbea:	60ef      	bteqz	7f00cbca <_doscan+0x2b6>
7f00cbec:	7209      	cmpi	v0,9
7f00cbee:	60ed      	bteqz	7f00cbca <_doscan+0x2b6>
7f00cbf0:	720a      	cmpi	v0,10
7f00cbf2:	60eb      	bteqz	7f00cbca <_doscan+0x2b6>
7f00cbf4:	722d      	cmpi	v0,45
7f00cbf6:	6118      	btnez	7f00cc28 <_doscan+0x314>
7f00cbf8:	6a2d      	li	v0,45
7f00cbfa:	67dd      	move	a2,sp
7f00cbfc:	c650      	sb	v0,16(a2)
7f00cbfe:	9840      	lw	v0,0(s0)
7f00cc00:	4aff      	addiu	v0,-1
7f00cc02:	5200      	slti	v0,0
7f00cc04:	d840      	sw	v0,0(s0)
7f00cc06:	6105      	btnez	7f00cc12 <_doscan+0x2fe>
7f00cc08:	9881      	lw	a0,4(s0)
7f00cc0a:	a440      	lbu	v0,0(a0)
7f00cc0c:	4c01      	addiu	a0,1
7f00cc0e:	d881      	sw	a0,4(s0)
7f00cc10:	1005      	b	7f00cc1c <_doscan+0x308>
7f00cc12:	6790      	move	a0,s0
7f00cc14:	181e 3396 	jal	7f00ce58 <_filbuf>
7f00cc18:	d31d      	sw	v1,116(sp)
7f00cc1a:	931d      	lw	v1,116(sp)
7f00cc1c:	6f01      	li	a3,1
7f00cc1e:	4bff      	addiu	v1,-1
7f00cc20:	d719      	sw	a3,100(sp)
7f00cc22:	f000 0611 	addiu	a2,sp,17
7f00cc26:	101b      	b	7f00cc5e <_doscan+0x34a>
7f00cc28:	722b      	cmpi	v0,43
7f00cc2a:	6116      	btnez	7f00cc58 <_doscan+0x344>
7f00cc2c:	9840      	lw	v0,0(s0)
7f00cc2e:	4bff      	addiu	v1,-1
7f00cc30:	4aff      	addiu	v0,-1
7f00cc32:	5200      	slti	v0,0
7f00cc34:	d840      	sw	v0,0(s0)
7f00cc36:	6107      	btnez	7f00cc46 <_doscan+0x332>
7f00cc38:	9881      	lw	a0,4(s0)
7f00cc3a:	a440      	lbu	v0,0(a0)
7f00cc3c:	4c01      	addiu	a0,1
7f00cc3e:	d881      	sw	a0,4(s0)
7f00cc40:	6c00      	li	a0,0
7f00cc42:	d419      	sw	a0,100(sp)
7f00cc44:	100b      	b	7f00cc5c <_doscan+0x348>
7f00cc46:	6790      	move	a0,s0
7f00cc48:	181e 3396 	jal	7f00ce58 <_filbuf>
7f00cc4c:	d31d      	sw	v1,116(sp)
7f00cc4e:	6d00      	li	a1,0
7f00cc50:	d519      	sw	a1,100(sp)
7f00cc52:	0604      	addiu	a2,sp,16
7f00cc54:	931d      	lw	v1,116(sp)
7f00cc56:	1003      	b	7f00cc5e <_doscan+0x34a>
7f00cc58:	6e00      	li	a2,0
7f00cc5a:	d619      	sw	a2,100(sp)
7f00cc5c:	0604      	addiu	a2,sp,16
7f00cc5e:	6900      	li	s1,0
7f00cc60:	67b1      	move	a1,s1
7f00cc62:	d11a      	sw	s1,104(sp)
7f00cc64:	1078      	b	7f00cd56 <_doscan+0x442>
7f00cc66:	b479      	lw	a0,7f00ce48 <_doscan+0x534>
7f00cc68:	e451      	addu	a0,v0
7f00cc6a:	a481      	lbu	a0,1(a0)
7f00cc6c:	6f04      	li	a3,4
7f00cc6e:	ecec      	and	a0,a3
7f00cc70:	2c0b      	bnez	a0,7f00cc88 <_doscan+0x374>
7f00cc72:	9716      	lw	a3,88(sp)
7f00cc74:	7710      	cmpi	a3,16
7f00cc76:	6122      	btnez	7f00ccbc <_doscan+0x3a8>
7f00cc78:	42e8      	addiu	a3,v0,-8
7f00cc7a:	4fa7      	addiu	a3,-89
7f00cc7c:	5f06      	sltiu	a3,6
7f00cc7e:	6104      	btnez	7f00cc88 <_doscan+0x374>
7f00cc80:	42e8      	addiu	a3,v0,-8
7f00cc82:	4fc7      	addiu	a3,-57
7f00cc84:	5f06      	sltiu	a3,6
7f00cc86:	601a      	bteqz	7f00ccbc <_doscan+0x3a8>
7f00cc88:	9716      	lw	a3,88(sp)
7f00cc8a:	4d01      	addiu	a1,1
7f00cc8c:	7708      	cmpi	a3,8
7f00cc8e:	372c      	sll	a3,s1,3
7f00cc90:	6007      	bteqz	7f00cca0 <_doscan+0x38c>
7f00cc92:	9716      	lw	a3,88(sp)
7f00cc94:	770a      	cmpi	a3,10
7f00cc96:	3730      	sll	a3,s1,4
7f00cc98:	6103      	btnez	7f00cca0 <_doscan+0x38c>
7f00cc9a:	3728      	sll	a3,s1,2
7f00cc9c:	e725      	addu	s1,a3,s1
7f00cc9e:	3724      	sll	a3,s1,1
7f00cca0:	2403      	beqz	a0,7f00cca8 <_doscan+0x394>
7f00cca2:	4228      	addiu	s1,v0,-8
7f00cca4:	49d8      	addiu	s1,-40
7f00cca6:	1008      	b	7f00ccb8 <_doscan+0x3a4>
7f00cca8:	4288      	addiu	a0,v0,-8
7f00ccaa:	4ca7      	addiu	a0,-89
7f00ccac:	4228      	addiu	s1,v0,-8
7f00ccae:	5c06      	sltiu	a0,6
7f00ccb0:	49d1      	addiu	s1,-47
7f00ccb2:	6002      	bteqz	7f00ccb8 <_doscan+0x3a4>
7f00ccb4:	4228      	addiu	s1,v0,-8
7f00ccb6:	49b1      	addiu	s1,-79
7f00ccb8:	e1e5      	addu	s1,a3
7f00ccba:	1038      	b	7f00cd2c <_doscan+0x418>
7f00ccbc:	722e      	cmpi	v0,46
7f00ccbe:	6107      	btnez	7f00ccce <_doscan+0x3ba>
7f00ccc0:	9416      	lw	a0,88(sp)
7f00ccc2:	740a      	cmpi	a0,10
7f00ccc4:	614b      	btnez	7f00cd5c <_doscan+0x448>
7f00ccc6:	9717      	lw	a3,92(sp)
7f00ccc8:	2749      	beqz	a3,7f00cd5c <_doscan+0x448>
7f00ccca:	4d01      	addiu	a1,1
7f00cccc:	102f      	b	7f00cd2c <_doscan+0x418>
7f00ccce:	7265      	cmpi	v0,101
7f00ccd0:	6002      	bteqz	7f00ccd6 <_doscan+0x3c2>
7f00ccd2:	7245      	cmpi	v0,69
7f00ccd4:	6143      	btnez	7f00cd5c <_doscan+0x448>
7f00ccd6:	941a      	lw	a0,104(sp)
7f00ccd8:	2c41      	bnez	a0,7f00cd5c <_doscan+0x448>
7f00ccda:	9716      	lw	a3,88(sp)
7f00ccdc:	770a      	cmpi	a3,10
7f00ccde:	613e      	btnez	7f00cd5c <_doscan+0x448>
7f00cce0:	9417      	lw	a0,92(sp)
7f00cce2:	243c      	beqz	a0,7f00cd5c <_doscan+0x448>
7f00cce4:	253b      	beqz	a1,7f00cd5c <_doscan+0x448>
7f00cce6:	c640      	sb	v0,0(a2)
7f00cce8:	9840      	lw	v0,0(s0)
7f00ccea:	4e01      	addiu	a2,1
7f00ccec:	4aff      	addiu	v0,-1
7f00ccee:	5200      	slti	v0,0
7f00ccf0:	d840      	sw	v0,0(s0)
7f00ccf2:	6105      	btnez	7f00ccfe <_doscan+0x3ea>
7f00ccf4:	9881      	lw	a0,4(s0)
7f00ccf6:	a440      	lbu	v0,0(a0)
7f00ccf8:	4c01      	addiu	a0,1
7f00ccfa:	d881      	sw	a0,4(s0)
7f00ccfc:	1009      	b	7f00cd10 <_doscan+0x3fc>
7f00ccfe:	6790      	move	a0,s0
7f00cd00:	d31d      	sw	v1,116(sp)
7f00cd02:	d51b      	sw	a1,108(sp)
7f00cd04:	181e 3396 	jal	7f00ce58 <_filbuf>
7f00cd08:	d61c      	sw	a2,112(sp)
7f00cd0a:	961c      	lw	a2,112(sp)
7f00cd0c:	951b      	lw	a1,108(sp)
7f00cd0e:	931d      	lw	v1,116(sp)
7f00cd10:	722b      	cmpi	v0,43
7f00cd12:	6007      	bteqz	7f00cd22 <_doscan+0x40e>
7f00cd14:	722d      	cmpi	v0,45
7f00cd16:	6008      	bteqz	7f00cd28 <_doscan+0x414>
7f00cd18:	4288      	addiu	a0,v0,-8
7f00cd1a:	4cd8      	addiu	a0,-40
7f00cd1c:	5c0a      	sltiu	a0,10
7f00cd1e:	6104      	btnez	7f00cd28 <_doscan+0x414>
7f00cd20:	101d      	b	7f00cd5c <_doscan+0x448>
7f00cd22:	6c01      	li	a0,1
7f00cd24:	d41a      	sw	a0,104(sp)
7f00cd26:	1002      	b	7f00cd2c <_doscan+0x418>
7f00cd28:	6f01      	li	a3,1
7f00cd2a:	d71a      	sw	a3,104(sp)
7f00cd2c:	c640      	sb	v0,0(a2)
7f00cd2e:	9840      	lw	v0,0(s0)
7f00cd30:	4e01      	addiu	a2,1
7f00cd32:	4aff      	addiu	v0,-1
7f00cd34:	5200      	slti	v0,0
7f00cd36:	d840      	sw	v0,0(s0)
7f00cd38:	6105      	btnez	7f00cd44 <_doscan+0x430>
7f00cd3a:	9881      	lw	a0,4(s0)
7f00cd3c:	a440      	lbu	v0,0(a0)
7f00cd3e:	4c01      	addiu	a0,1
7f00cd40:	d881      	sw	a0,4(s0)
7f00cd42:	1009      	b	7f00cd56 <_doscan+0x442>
7f00cd44:	6790      	move	a0,s0
7f00cd46:	d31d      	sw	v1,116(sp)
7f00cd48:	d51b      	sw	a1,108(sp)
7f00cd4a:	181e 3396 	jal	7f00ce58 <_filbuf>
7f00cd4e:	d61c      	sw	a2,112(sp)
7f00cd50:	961c      	lw	a2,112(sp)
7f00cd52:	951b      	lw	a1,108(sp)
7f00cd54:	931d      	lw	v1,116(sp)
7f00cd56:	4bff      	addiu	v1,-1
7f00cd58:	5300      	slti	v1,0
7f00cd5a:	6085      	bteqz	7f00cc66 <_doscan+0x352>
7f00cd5c:	9319      	lw	v1,100(sp)
7f00cd5e:	2301      	beqz	v1,7f00cd62 <_doscan+0x44e>
7f00cd60:	e92b      	neg	s1
7f00cd62:	4261      	addiu	v1,v0,1
7f00cd64:	6f01      	li	a3,1
7f00cd66:	2307      	beqz	v1,7f00cd76 <_doscan+0x462>
7f00cd68:	6782      	move	a0,v0
7f00cd6a:	67b0      	move	a1,s0
7f00cd6c:	181e 3439 	jal	7f00d0e4 <ungetc>
7f00cd70:	d61c      	sw	a2,112(sp)
7f00cd72:	961c      	lw	a2,112(sp)
7f00cd74:	6f00      	li	a3,0
7f00cd76:	9414      	lw	a0,80(sp)
7f00cd78:	241d      	beqz	a0,7f00cdb4 <_doscan+0x4a0>
7f00cd7a:	0204      	addiu	v0,sp,16
7f00cd7c:	ee4a      	cmp	a2,v0
7f00cd7e:	601a      	bteqz	7f00cdb4 <_doscan+0x4a0>
7f00cd80:	9519      	lw	a1,100(sp)
7f00cd82:	2504      	beqz	a1,7f00cd8c <_doscan+0x478>
7f00cd84:	f000 0211 	addiu	v0,sp,17
7f00cd88:	ee4e      	xor	a2,v0
7f00cd8a:	2614      	beqz	a2,7f00cdb4 <_doscan+0x4a0>
7f00cd8c:	9617      	lw	a2,92(sp)
7f00cd8e:	9318      	lw	v1,96(sp)
7f00cd90:	32d0      	sll	v0,a2,4
7f00cd92:	ea6d      	or	v0,v1
7f00cd94:	7201      	cmpi	v0,1
7f00cd96:	6006      	bteqz	7f00cda4 <_doscan+0x490>
7f00cd98:	7202      	cmpi	v0,2
7f00cd9a:	6007      	bteqz	7f00cdaa <_doscan+0x496>
7f00cd9c:	2a08      	bnez	v0,7f00cdae <_doscan+0x49a>
7f00cd9e:	9414      	lw	a0,80(sp)
7f00cda0:	cc20      	sh	s1,0(a0)
7f00cda2:	1005      	b	7f00cdae <_doscan+0x49a>
7f00cda4:	9514      	lw	a1,80(sp)
7f00cda6:	dd20      	sw	s1,0(a1)
7f00cda8:	1002      	b	7f00cdae <_doscan+0x49a>
7f00cdaa:	9614      	lw	a2,80(sp)
7f00cdac:	de20      	sw	s1,0(a2)
7f00cdae:	9215      	lw	v0,84(sp)
7f00cdb0:	4a01      	addiu	v0,1
7f00cdb2:	d215      	sw	v0,84(sp)
7f00cdb4:	f5bf 2713 	beqz	a3,7f00c91e <_doscan+0xa>
7f00cdb8:	9315      	lw	v1,84(sp)
7f00cdba:	2b3d      	bnez	v1,7f00ce36 <_doscan+0x522>
7f00cdbc:	6c01      	li	a0,1
7f00cdbe:	ec8b      	neg	a0
7f00cdc0:	d415      	sw	a0,84(sp)
7f00cdc2:	1039      	b	7f00ce36 <_doscan+0x522>
7f00cdc4:	9840      	lw	v0,0(s0)
7f00cdc6:	4aff      	addiu	v0,-1
7f00cdc8:	5200      	slti	v0,0
7f00cdca:	d840      	sw	v0,0(s0)
7f00cdcc:	6105      	btnez	7f00cdd8 <_doscan+0x4c4>
7f00cdce:	9861      	lw	v1,4(s0)
7f00cdd0:	a340      	lbu	v0,0(v1)
7f00cdd2:	4b01      	addiu	v1,1
7f00cdd4:	d861      	sw	v1,4(s0)
7f00cdd6:	1003      	b	7f00cdde <_doscan+0x4ca>
7f00cdd8:	181e 3396 	jal	7f00ce58 <_filbuf>
7f00cddc:	6790      	move	a0,s0
7f00cdde:	7220      	cmpi	v0,32
7f00cde0:	60f1      	bteqz	7f00cdc4 <_doscan+0x4b0>
7f00cde2:	7209      	cmpi	v0,9
7f00cde4:	60ef      	bteqz	7f00cdc4 <_doscan+0x4b0>
7f00cde6:	720a      	cmpi	v0,10
7f00cde8:	60ed      	bteqz	7f00cdc4 <_doscan+0x4b0>
7f00cdea:	4261      	addiu	v1,v0,1
7f00cdec:	f59f 2317 	beqz	v1,7f00c91e <_doscan+0xa>
7f00cdf0:	6782      	move	a0,v0
7f00cdf2:	181e 3439 	jal	7f00d0e4 <ungetc>
7f00cdf6:	67b0      	move	a1,s0
7f00cdf8:	1592      	b	7f00c91e <_doscan+0xa>
7f00cdfa:	9840      	lw	v0,0(s0)
7f00cdfc:	4aff      	addiu	v0,-1
7f00cdfe:	5200      	slti	v0,0
7f00ce00:	d840      	sw	v0,0(s0)
7f00ce02:	6105      	btnez	7f00ce0e <_doscan+0x4fa>
7f00ce04:	9861      	lw	v1,4(s0)
7f00ce06:	a340      	lbu	v0,0(v1)
7f00ce08:	4b01      	addiu	v1,1
7f00ce0a:	d861      	sw	v1,4(s0)
7f00ce0c:	1003      	b	7f00ce14 <_doscan+0x500>
7f00ce0e:	181e 3396 	jal	7f00ce58 <_filbuf>
7f00ce12:	6790      	move	a0,s0
7f00ce14:	e94e      	xor	s1,v0
7f00ce16:	f59f 2102 	beqz	s1,7f00c91e <_doscan+0xa>
7f00ce1a:	4261      	addiu	v1,v0,1
7f00ce1c:	2309      	beqz	v1,7f00ce30 <_doscan+0x51c>
7f00ce1e:	6782      	move	a0,v0
7f00ce20:	181e 3439 	jal	7f00d0e4 <ungetc>
7f00ce24:	67b0      	move	a1,s0
7f00ce26:	1007      	b	7f00ce36 <_doscan+0x522>
7f00ce28:	6d01      	li	a1,1
7f00ce2a:	edab      	neg	a1
7f00ce2c:	d515      	sw	a1,84(sp)
7f00ce2e:	1003      	b	7f00ce36 <_doscan+0x522>
7f00ce30:	6e01      	li	a2,1
7f00ce32:	eecb      	neg	a2
7f00ce34:	d615      	sw	a2,84(sp)
7f00ce36:	9215      	lw	v0,84(sp)
7f00ce38:	f010 6471 	restore	136,ra,s0-s1
7f00ce3c:	e8a0      	jrc	ra
7f00ce3e:	6b01      	li	v1,1
7f00ce40:	164d      	b	7f00cadc <_doscan+0x1c8>
7f00ce42:	9214      	lw	v0,80(sp)
7f00ce44:	22b7      	beqz	v0,7f00cdb4 <_doscan+0x4a0>
7f00ce46:	17b3      	b	7f00cdae <_doscan+0x49a>
7f00ce48:	eff4      	dsllv	a3,a3
7f00ce4a:	7f00      	sd	s0,0(a3)
7f00ce4c:	eef4      	dsllv	a3,a2
7f00ce4e:	7f00      	sd	s0,0(a3)
7f00ce50:	eff4      	dsllv	a3,a3
7f00ce52:	7f00      	sd	s0,0(a3)
7f00ce54:	eef5      	0xeef5
7f00ce56:	7f00      	sd	s0,0(a3)

7f00ce58 <_filbuf>:
7f00ce58:	8c68      	lh	v1,16(a0)
7f00ce5a:	6aff      	li	v0,255
7f00ce5c:	4a01      	addiu	v0,1
7f00ce5e:	ea6c      	and	v0,v1
7f00ce60:	64fc      	save	96,ra,s0-s1
7f00ce62:	6704      	move	s0,a0
7f00ce64:	2203      	beqz	v0,7f00ce6c <_filbuf+0x14>
7f00ce66:	6a01      	li	v0,1
7f00ce68:	ea6d      	or	v0,v1
7f00ce6a:	cc48      	sh	v0,16(a0)
7f00ce6c:	a848      	lhu	v0,16(s0)
7f00ce6e:	6b01      	li	v1,1
7f00ce70:	eb4c      	and	v1,v0
7f00ce72:	2374      	beqz	v1,7f00cf5c <_filbuf+0x104>
7f00ce74:	6b50      	li	v1,80
7f00ce76:	ea6c      	and	v0,v1
7f00ce78:	2a71      	bnez	v0,7f00cf5c <_filbuf+0x104>
7f00ce7a:	9842      	lw	v0,8(s0)
7f00ce7c:	2a26      	bnez	v0,7f00ceca <_filbuf+0x72>
7f00ce7e:	a848      	lhu	v0,16(s0)
7f00ce80:	6b04      	li	v1,4
7f00ce82:	ea6c      	and	v0,v1
7f00ce84:	2209      	beqz	v0,7f00ce98 <_filbuf+0x40>
7f00ce86:	675c      	move	v0,gp
7f00ce88:	f010 9a70 	lw	v1,-32752(v0)
7f00ce8c:	0204      	addiu	v0,sp,16
7f00ce8e:	2302      	beqz	v1,7f00ce94 <_filbuf+0x3c>
7f00ce90:	8849      	lh	v0,18(s0)
7f00ce92:	e349      	addu	v0,v1,v0
7f00ce94:	d842      	sw	v0,8(s0)
7f00ce96:	17f1      	b	7f00ce7a <_filbuf+0x22>
7f00ce98:	8889      	lh	a0,18(s0)
7f00ce9a:	1c1e 2ab4 	jalx	7f00aad0 <fstat>
7f00ce9e:	0505      	addiu	a1,sp,20
7f00cea0:	5200      	slti	v0,0
7f00cea2:	6103      	btnez	7f00ceaa <_filbuf+0x52>
7f00cea4:	9110      	lw	s1,64(sp)
7f00cea6:	5101      	slti	s1,1
7f00cea8:	6002      	bteqz	7f00ceae <_filbuf+0x56>
7f00ceaa:	f400 6900 	li	s1,1024
7f00ceae:	181e 2b09 	jal	7f00ac24 <malloc>
7f00ceb2:	6791      	move	a0,s1
7f00ceb4:	d842      	sw	v0,8(s0)
7f00ceb6:	a868      	lhu	v1,16(s0)
7f00ceb8:	2a04      	bnez	v0,7f00cec2 <_filbuf+0x6a>
7f00ceba:	6a04      	li	v0,4
7f00cebc:	ea6d      	or	v0,v1
7f00cebe:	c848      	sh	v0,16(s0)
7f00cec0:	17dc      	b	7f00ce7a <_filbuf+0x22>
7f00cec2:	6a08      	li	v0,8
7f00cec4:	ea6d      	or	v0,v1
7f00cec6:	c848      	sh	v0,16(s0)
7f00cec8:	d823      	sw	s1,12(s0)
7f00ceca:	b227      	lw	v0,7f00cf64 <_filbuf+0x10c>
7f00cecc:	e04f      	subu	v1,s0,v0
7f00cece:	2b11      	bnez	v1,7f00cef2 <_filbuf+0x9a>
7f00ced0:	aa52      	lhu	v0,36(v0)
7f00ced2:	6b80      	li	v1,128
7f00ced4:	ea6c      	and	v0,v1
7f00ced6:	2204      	beqz	v0,7f00cee0 <_filbuf+0x88>
7f00ced8:	b424      	lw	a0,7f00cf68 <_filbuf+0x110>
7f00ceda:	181e 2a59 	jal	7f00a964 <fflush>
7f00cede:	6500      	nop
7f00cee0:	b221      	lw	v0,7f00cf64 <_filbuf+0x10c>
7f00cee2:	aa5c      	lhu	v0,56(v0)
7f00cee4:	6b80      	li	v1,128
7f00cee6:	ea6c      	and	v0,v1
7f00cee8:	2204      	beqz	v0,7f00cef2 <_filbuf+0x9a>
7f00ceea:	b421      	lw	a0,7f00cf6c <_filbuf+0x114>
7f00ceec:	181e 2a59 	jal	7f00a964 <fflush>
7f00cef0:	6500      	nop
7f00cef2:	a848      	lhu	v0,16(s0)
7f00cef4:	6b04      	li	v1,4
7f00cef6:	8889      	lh	a0,18(s0)
7f00cef8:	ea6c      	and	v0,v1
7f00cefa:	98a2      	lw	a1,8(s0)
7f00cefc:	6e01      	li	a2,1
7f00cefe:	2a01      	bnez	v0,7f00cf02 <_filbuf+0xaa>
7f00cf00:	98c3      	lw	a2,12(s0)
7f00cf02:	1c1e 2b86 	jalx	7f00ae18 <read>
7f00cf06:	6500      	nop
7f00cf08:	d840      	sw	v0,0(s0)
7f00cf0a:	a848      	lhu	v0,16(s0)
7f00cf0c:	9862      	lw	v1,8(s0)
7f00cf0e:	6c04      	li	a0,4
7f00cf10:	ea8c      	and	v0,a0
7f00cf12:	d861      	sw	v1,4(s0)
7f00cf14:	2204      	beqz	v0,7f00cf1e <_filbuf+0xc6>
7f00cf16:	0204      	addiu	v0,sp,16
7f00cf18:	ea6e      	xor	v0,v1
7f00cf1a:	2a01      	bnez	v0,7f00cf1e <_filbuf+0xc6>
7f00cf1c:	d842      	sw	v0,8(s0)
7f00cf1e:	9840      	lw	v0,0(s0)
7f00cf20:	426f      	addiu	v1,v0,-1
7f00cf22:	5300      	slti	v1,0
7f00cf24:	d860      	sw	v1,0(s0)
7f00cf26:	6015      	bteqz	7f00cf52 <_filbuf+0xfa>
7f00cf28:	a868      	lhu	v1,16(s0)
7f00cf2a:	2a0c      	bnez	v0,7f00cf44 <_filbuf+0xec>
7f00cf2c:	6a10      	li	v0,16
7f00cf2e:	ea6d      	or	v0,v1
7f00cf30:	6bff      	li	v1,255
7f00cf32:	eab1      	seh	v0
7f00cf34:	4b01      	addiu	v1,1
7f00cf36:	eb4c      	and	v1,v0
7f00cf38:	c848      	sh	v0,16(s0)
7f00cf3a:	2307      	beqz	v1,7f00cf4a <_filbuf+0xf2>
7f00cf3c:	6b02      	li	v1,2
7f00cf3e:	eb6b      	neg	v1
7f00cf40:	ea6c      	and	v0,v1
7f00cf42:	1002      	b	7f00cf48 <_filbuf+0xf0>
7f00cf44:	6a20      	li	v0,32
7f00cf46:	ea6d      	or	v0,v1
7f00cf48:	c848      	sh	v0,16(s0)
7f00cf4a:	6a00      	li	v0,0
7f00cf4c:	d840      	sw	v0,0(s0)
7f00cf4e:	4aff      	addiu	v0,-1
7f00cf50:	1007      	b	7f00cf60 <_filbuf+0x108>
7f00cf52:	9861      	lw	v1,4(s0)
7f00cf54:	a340      	lbu	v0,0(v1)
7f00cf56:	4b01      	addiu	v1,1
7f00cf58:	d861      	sw	v1,4(s0)
7f00cf5a:	1002      	b	7f00cf60 <_filbuf+0x108>
7f00cf5c:	6a01      	li	v0,1
7f00cf5e:	ea4b      	neg	v0
7f00cf60:	647c      	restore	96,ra,s0-s1
7f00cf62:	e8a0      	jrc	ra
7f00cf64:	ed64      	sllv	v1,a1
7f00cf66:	7f00      	sd	s0,0(a3)
7f00cf68:	ed78      	mult	a1,v1
7f00cf6a:	7f00      	sd	s0,0(a3)
7f00cf6c:	ed8c      	and	a1,a0
7f00cf6e:	7f00      	sd	s0,0(a3)

7f00cf70 <gettimeofday>:
7f00cf70:	00001d0c 	syscall	0x74
7f00cf74:	3c097f01 	lui	t1,0x7f01
7f00cf78:	ad28f160 	sw	t0,-3744(t1)
7f00cf7c:	03e00008 	jr	ra
7f00cf80:	00000000 	nop

7f00cf84 <ioctl>:
7f00cf84:	00000d8c 	syscall	0x36
7f00cf88:	3c097f01 	lui	t1,0x7f01
7f00cf8c:	ad28f160 	sw	t0,-3744(t1)
7f00cf90:	03e00008 	jr	ra
7f00cf94:	00000000 	nop

7f00cf98 <memset>:
7f00cf98:	28c1000c 	slti	at,a2,12
7f00cf9c:	14200012 	bnez	at,7f00cfe8 <smallclr>
7f00cfa0:	00801021 	move	v0,a0
7f00cfa4:	00054a00 	sll	t1,a1,0x8
7f00cfa8:	01254825 	or	t1,t1,a1
7f00cfac:	00095400 	sll	t2,t1,0x10
7f00cfb0:	01494825 	or	t1,t2,t1
7f00cfb4:	00044023 	negu	t0,a0
7f00cfb8:	31080003 	andi	t0,t0,0x3
7f00cfbc:	11000003 	beqz	t0,7f00cfcc <memset+0x34>
7f00cfc0:	00c83023 	subu	a2,a2,t0
7f00cfc4:	b8890000 	swr	t1,0(a0)
7f00cfc8:	00882021 	addu	a0,a0,t0
7f00cfcc:	30c30003 	andi	v1,a2,0x3
7f00cfd0:	00c34023 	subu	t0,a2,v1
7f00cfd4:	00c83023 	subu	a2,a2,t0
7f00cfd8:	01044021 	addu	t0,t0,a0
7f00cfdc:	24840004 	addiu	a0,a0,4
7f00cfe0:	1488fffe 	bne	a0,t0,7f00cfdc <memset+0x44>
7f00cfe4:	ac89fffc 	sw	t1,-4(a0)

7f00cfe8 <smallclr>:
7f00cfe8:	18c00004 	blez	a2,7f00cffc <smallclr+0x14>
7f00cfec:	00c44021 	addu	t0,a2,a0
7f00cff0:	24840001 	addiu	a0,a0,1
7f00cff4:	1488fffe 	bne	a0,t0,7f00cff0 <smallclr+0x8>
7f00cff8:	a085ffff 	sb	a1,-1(a0)
7f00cffc:	03e00008 	jr	ra
7f00d000:	00000000 	nop

7f00d004 <modf>:
7f00d004:	64f5      	save	40,ra,s0-s1
7f00d006:	b116      	lw	s1,7f00d05c <modf+0x58>
7f00d008:	b316      	lw	v1,7f00d060 <modf+0x5c>
7f00d00a:	6744      	move	v0,a0
7f00d00c:	ea2c      	and	v0,s1
7f00d00e:	eb43      	sltu	v1,v0
7f00d010:	6704      	move	s0,a0
7f00d012:	6008      	bteqz	7f00d024 <modf+0x20>
7f00d014:	b314      	lw	v1,7f00d064 <modf+0x60>
7f00d016:	dd80      	sw	a0,0(a1)
7f00d018:	eb43      	sltu	v1,v0
7f00d01a:	6102      	btnez	7f00d020 <modf+0x1c>
7f00d01c:	b213      	lw	v0,7f00d068 <modf+0x64>
7f00d01e:	e84c      	and	s0,v0
7f00d020:	6750      	move	v0,s0
7f00d022:	101a      	b	7f00d058 <modf+0x54>
7f00d024:	b312      	lw	v1,7f00d06c <modf+0x68>
7f00d026:	eb43      	sltu	v1,v0
7f00d028:	b310      	lw	v1,7f00d068 <modf+0x64>
7f00d02a:	6104      	btnez	7f00d034 <modf+0x30>
7f00d02c:	e86c      	and	s0,v1
7f00d02e:	6744      	move	v0,a0
7f00d030:	dd00      	sw	s0,0(a1)
7f00d032:	1012      	b	7f00d058 <modf+0x54>
7f00d034:	6c96      	li	a0,150
7f00d036:	f5c0 3242 	srl	v0,23
7f00d03a:	6e01      	li	a2,1
7f00d03c:	e44b      	subu	v0,a0,v0
7f00d03e:	eecb      	neg	a2
7f00d040:	eac4      	sllv	a2,v0
7f00d042:	ee0c      	and	a2,s0
7f00d044:	ddc0      	sw	a2,0(a1)
7f00d046:	6790      	move	a0,s0
7f00d048:	67a6      	move	a1,a2
7f00d04a:	1c1e 37ef 	jalx	7f00dfbc <__subsf3>
7f00d04e:	d304      	sw	v1,16(sp)
7f00d050:	9304      	lw	v1,16(sp)
7f00d052:	ea2c      	and	v0,s1
7f00d054:	e86c      	and	s0,v1
7f00d056:	ea0d      	or	v0,s0
7f00d058:	6475      	restore	40,ra,s0-s1
7f00d05a:	e8a0      	jrc	ra
7f00d05c:	ffff      	daddiu	a3,sp,124
7f00d05e:	7fff      	sd	a3,248(a3)
7f00d060:	ffff      	daddiu	a3,sp,124
7f00d062:	4aff      	addiu	v0,-1
7f00d064:	0000      	addiu	s0,sp,0
7f00d066:	7f80      	sd	a0,0(a3)
7f00d068:	0000      	addiu	s0,sp,0
7f00d06a:	8000      	lb	s0,0(s0)
7f00d06c:	ffff      	daddiu	a3,sp,124
7f00d06e:	3f7f      	ld	v1,248(a3)

7f00d070 <signal>:
7f00d070:	64c6      	save	48,ra
7f00d072:	6a00      	li	v0,0
7f00d074:	446f      	addiu	v1,a0,-1
7f00d076:	d205      	sw	v0,20(sp)
7f00d078:	d206      	sw	v0,24(sp)
7f00d07a:	6a01      	li	v0,1
7f00d07c:	eb44      	sllv	v0,v1
7f00d07e:	677c      	move	v1,gp
7f00d080:	f070 9b78 	lw	v1,-32648(v1)
7f00d084:	d504      	sw	a1,16(sp)
7f00d086:	ea6c      	and	v0,v1
7f00d088:	2a02      	bnez	v0,7f00d08e <signal+0x1e>
7f00d08a:	6a02      	li	v0,2
7f00d08c:	d206      	sw	v0,24(sp)
7f00d08e:	0504      	addiu	a1,sp,16
7f00d090:	1c1e 3449 	jalx	7f00d124 <sigaction>
7f00d094:	0607      	addiu	a2,sp,28
7f00d096:	5200      	slti	v0,0
7f00d098:	6102      	btnez	7f00d09e <signal+0x2e>
7f00d09a:	9207      	lw	v0,28(sp)
7f00d09c:	1002      	b	7f00d0a2 <signal+0x32>
7f00d09e:	6a01      	li	v0,1
7f00d0a0:	ea4b      	neg	v0
7f00d0a2:	6446      	restore	48,ra
7f00d0a4:	e8a0      	jrc	ra
7f00d0a6:	6500      	nop

7f00d0a8 <sigprocmask>:
7f00d0a8:	0000080c 	syscall	0x20
7f00d0ac:	3c097f01 	lui	t1,0x7f01
7f00d0b0:	ad28f160 	sw	t0,-3744(t1)
7f00d0b4:	03e00008 	jr	ra
7f00d0b8:	00000000 	nop

7f00d0bc <strcpy>:
7f00d0bc:	6744      	move	v0,a0
7f00d0be:	6764      	move	v1,a0
7f00d0c0:	8580      	lb	a0,0(a1)
7f00d0c2:	4d01      	addiu	a1,1
7f00d0c4:	c380      	sb	a0,0(v1)
7f00d0c6:	4b01      	addiu	v1,1
7f00d0c8:	2cfb      	bnez	a0,7f00d0c0 <strcpy+0x4>
7f00d0ca:	e8a0      	jrc	ra

7f00d0cc <strlen>:
7f00d0cc:	24830001 	addiu	v1,a0,1
7f00d0d0:	80820000 	lb	v0,0(a0)
7f00d0d4:	1440fffe 	bnez	v0,7f00d0d0 <strlen+0x4>
7f00d0d8:	24840001 	addiu	a0,a0,1
7f00d0dc:	03e00008 	jr	ra
7f00d0e0:	00831023 	subu	v0,a0,v1

7f00d0e4 <ungetc>:
7f00d0e4:	4461      	addiu	v1,a0,1
7f00d0e6:	6744      	move	v0,a0
7f00d0e8:	231b      	beqz	v1,7f00d120 <ungetc+0x3c>
7f00d0ea:	ad68      	lhu	v1,16(a1)
7f00d0ec:	6cff      	li	a0,255
7f00d0ee:	4c02      	addiu	a0,2
7f00d0f0:	eb8c      	and	v1,a0
7f00d0f2:	2311      	beqz	v1,7f00d116 <ungetc+0x32>
7f00d0f4:	9d61      	lw	v1,4(a1)
7f00d0f6:	230f      	beqz	v1,7f00d116 <ungetc+0x32>
7f00d0f8:	9d82      	lw	a0,8(a1)
7f00d0fa:	240d      	beqz	a0,7f00d116 <ungetc+0x32>
7f00d0fc:	eb8a      	cmp	v1,a0
7f00d0fe:	9d80      	lw	a0,0(a1)
7f00d100:	6103      	btnez	7f00d108 <ungetc+0x24>
7f00d102:	2c0c      	bnez	a0,7f00d11c <ungetc+0x38>
7f00d104:	4b01      	addiu	v1,1
7f00d106:	dd61      	sw	v1,4(a1)
7f00d108:	9d61      	lw	v1,4(a1)
7f00d10a:	4c01      	addiu	a0,1
7f00d10c:	dd80      	sw	a0,0(a1)
7f00d10e:	4bff      	addiu	v1,-1
7f00d110:	dd61      	sw	v1,4(a1)
7f00d112:	e820      	jr	ra
7f00d114:	c340      	sb	v0,0(v1)
7f00d116:	6a01      	li	v0,1
7f00d118:	e820      	jr	ra
7f00d11a:	ea4b      	neg	v0
7f00d11c:	6a01      	li	v0,1
7f00d11e:	ea4b      	neg	v0
7f00d120:	e8a0      	jrc	ra
7f00d122:	6500      	nop

7f00d124 <sigaction>:
7f00d124:	3c077f01 	lui	a3,0x7f01
7f00d128:	24e7d140 	addiu	a3,a3,-11968
7f00d12c:	000007cc 	syscall	0x1f
7f00d130:	3c097f01 	lui	t1,0x7f01
7f00d134:	ad28f160 	sw	t0,-3744(t1)
7f00d138:	03e00008 	jr	ra
7f00d13c:	00000000 	nop

7f00d140 <sigtramp>:
7f00d140:	000019cc 	syscall	0x67
7f00d144:	0000004c 	syscall	0x1

7f00d148 <__addsf3>:
7f00d148:	7c8307c0 	ext	v1,a0,0x1f,0x1
7f00d14c:	7c88b000 	ext	t0,a0,0x0,0x17
7f00d150:	7ca7b000 	ext	a3,a1,0x0,0x17
7f00d154:	00054fc2 	srl	t1,a1,0x1f
7f00d158:	306600ff 	andi	a2,v1,0xff
7f00d15c:	7c843dc0 	ext	a0,a0,0x17,0x8
7f00d160:	000840c0 	sll	t0,t0,0x3
7f00d164:	7ca53dc0 	ext	a1,a1,0x17,0x8
7f00d168:	10c90047 	beq	a2,t1,7f00d288 <__addsf3+0x140>
7f00d16c:	000738c0 	sll	a3,a3,0x3
7f00d170:	00851823 	subu	v1,a0,a1
7f00d174:	18600088 	blez	v1,7f00d398 <__addsf3+0x250>
7f00d178:	00000000 	nop
7f00d17c:	14a00021 	bnez	a1,7f00d204 <__addsf3+0xbc>
7f00d180:	240200ff 	li	v0,255
7f00d184:	14e0005e 	bnez	a3,7f00d300 <__addsf3+0x1b8>
7f00d188:	2463ffff 	addiu	v1,v1,-1
7f00d18c:	24830001 	addiu	v1,a0,1
7f00d190:	310a000f 	andi	t2,t0,0xf
7f00d194:	01001021 	move	v0,t0
7f00d198:	00802821 	move	a1,a0
7f00d19c:	24040004 	li	a0,4
7f00d1a0:	11440004 	beq	t2,a0,7f00d1b4 <__addsf3+0x6c>
7f00d1a4:	7c440680 	ext	a0,v0,0x1a,0x1
7f00d1a8:	24420004 	addiu	v0,v0,4
7f00d1ac:	24a30001 	addiu	v1,a1,1
7f00d1b0:	7c440680 	ext	a0,v0,0x1a,0x1
7f00d1b4:	50800009 	beqzl	a0,7f00d1dc <__addsf3+0x94>
7f00d1b8:	306300ff 	andi	v1,v1,0xff
7f00d1bc:	240400ff 	li	a0,255
7f00d1c0:	10640081 	beq	v1,a0,7f00d3c8 <__addsf3+0x280>
7f00d1c4:	3c04fbff 	lui	a0,0xfbff
7f00d1c8:	3484ffff 	ori	a0,a0,0xffff
7f00d1cc:	00602821 	move	a1,v1
7f00d1d0:	00441024 	and	v0,v0,a0
7f00d1d4:	24630001 	addiu	v1,v1,1
7f00d1d8:	306300ff 	andi	v1,v1,0xff
7f00d1dc:	28630002 	slti	v1,v1,2
7f00d1e0:	14600060 	bnez	v1,7f00d364 <__addsf3+0x21c>
7f00d1e4:	000210c2 	srl	v0,v0,0x3
7f00d1e8:	7c43b000 	ext	v1,v0,0x0,0x17
7f00d1ec:	30a500ff 	andi	a1,a1,0xff
7f00d1f0:	00001021 	move	v0,zero
7f00d1f4:	7c62b004 	ins	v0,v1,0x0,0x17
7f00d1f8:	7ca2f5c4 	ins	v0,a1,0x17,0x8
7f00d1fc:	03e00008 	jr	ra
7f00d200:	7cc2ffc4 	ins	v0,a2,0x1f,0x1
7f00d204:	10820053 	beq	a0,v0,7f00d354 <__addsf3+0x20c>
7f00d208:	310a000f 	andi	t2,t0,0xf
7f00d20c:	3c020400 	lui	v0,0x400
7f00d210:	00e23825 	or	a3,a3,v0
7f00d214:	2865001c 	slti	a1,v1,28
7f00d218:	10a00006 	beqz	a1,7f00d234 <__addsf3+0xec>
7f00d21c:	24020001 	li	v0,1
7f00d220:	00031023 	negu	v0,v1
7f00d224:	00471004 	sllv	v0,a3,v0
7f00d228:	0002102b 	sltu	v0,zero,v0
7f00d22c:	00673806 	srlv	a3,a3,v1
7f00d230:	00471025 	or	v0,v0,a3
7f00d234:	01021023 	subu	v0,t0,v0
7f00d238:	7c430680 	ext	v1,v0,0x1a,0x1
7f00d23c:	00802821 	move	a1,a0
7f00d240:	10600036 	beqz	v1,7f00d31c <__addsf3+0x1d4>
7f00d244:	7c4ac800 	ext	t2,v0,0x0,0x1a
7f00d248:	71431820 	clz	v1,t2
7f00d24c:	2463fffb 	addiu	v1,v1,-5
7f00d250:	0065102a 	slt	v0,v1,a1
7f00d254:	14400063 	bnez	v0,7f00d3e4 <__addsf3+0x29c>
7f00d258:	006a5004 	sllv	t2,t2,v1
7f00d25c:	00651823 	subu	v1,v1,a1
7f00d260:	24630001 	addiu	v1,v1,1
7f00d264:	00031023 	negu	v0,v1
7f00d268:	004a1004 	sllv	v0,t2,v0
7f00d26c:	0002102b 	sltu	v0,zero,v0
7f00d270:	006a5006 	srlv	t2,t2,v1
7f00d274:	004a1025 	or	v0,v0,t2
7f00d278:	304a000f 	andi	t2,v0,0xf
7f00d27c:	24030001 	li	v1,1
7f00d280:	0bc03467 	j	7f00d19c <__addsf3+0x54>
7f00d284:	00002821 	move	a1,zero
7f00d288:	00854823 	subu	t1,a0,a1
7f00d28c:	1920005c 	blez	t1,7f00d400 <__addsf3+0x2b8>
7f00d290:	00000000 	nop
7f00d294:	10a00024 	beqz	a1,7f00d328 <__addsf3+0x1e0>
7f00d298:	240200ff 	li	v0,255
7f00d29c:	1082002d 	beq	a0,v0,7f00d354 <__addsf3+0x20c>
7f00d2a0:	310a000f 	andi	t2,t0,0xf
7f00d2a4:	3c020400 	lui	v0,0x400
7f00d2a8:	00e23825 	or	a3,a3,v0
7f00d2ac:	2925001c 	slti	a1,t1,28
7f00d2b0:	14a0007c 	bnez	a1,7f00d4a4 <__addsf3+0x35c>
7f00d2b4:	24020001 	li	v0,1
7f00d2b8:	00481021 	addu	v0,v0,t0
7f00d2bc:	00802821 	move	a1,a0
7f00d2c0:	7c440680 	ext	a0,v0,0x1a,0x1
7f00d2c4:	50800016 	beqzl	a0,7f00d320 <__addsf3+0x1d8>
7f00d2c8:	24a30001 	addiu	v1,a1,1
7f00d2cc:	24a50001 	addiu	a1,a1,1
7f00d2d0:	240400ff 	li	a0,255
7f00d2d4:	50a40084 	beql	a1,a0,7f00d4e8 <__addsf3+0x3a0>
7f00d2d8:	30660001 	andi	a2,v1,0x1
7f00d2dc:	3c03fbff 	lui	v1,0xfbff
7f00d2e0:	3463ffff 	ori	v1,v1,0xffff
7f00d2e4:	00431824 	and	v1,v0,v1
7f00d2e8:	00031842 	srl	v1,v1,0x1
7f00d2ec:	30420001 	andi	v0,v0,0x1
7f00d2f0:	00431025 	or	v0,v0,v1
7f00d2f4:	304a000f 	andi	t2,v0,0xf
7f00d2f8:	0bc03467 	j	7f00d19c <__addsf3+0x54>
7f00d2fc:	24a30001 	addiu	v1,a1,1
7f00d300:	14600011 	bnez	v1,7f00d348 <__addsf3+0x200>
7f00d304:	240200ff 	li	v0,255
7f00d308:	01071023 	subu	v0,t0,a3
7f00d30c:	00802821 	move	a1,a0
7f00d310:	7c430680 	ext	v1,v0,0x1a,0x1
7f00d314:	1460ffcc 	bnez	v1,7f00d248 <__addsf3+0x100>
7f00d318:	7c4ac800 	ext	t2,v0,0x0,0x1a
7f00d31c:	24a30001 	addiu	v1,a1,1
7f00d320:	0bc03467 	j	7f00d19c <__addsf3+0x54>
7f00d324:	304a000f 	andi	t2,v0,0xf
7f00d328:	50e0ff99 	beqzl	a3,7f00d190 <__addsf3+0x48>
7f00d32c:	24830001 	addiu	v1,a0,1
7f00d330:	2529ffff 	addiu	t1,t1,-1
7f00d334:	55200068 	bnezl	t1,7f00d4d8 <__addsf3+0x390>
7f00d338:	240200ff 	li	v0,255
7f00d33c:	00e81021 	addu	v0,a3,t0
7f00d340:	0bc034b0 	j	7f00d2c0 <__addsf3+0x178>
7f00d344:	00802821 	move	a1,a0
7f00d348:	5482ffb3 	bnel	a0,v0,7f00d218 <__addsf3+0xd0>
7f00d34c:	2865001c 	slti	a1,v1,28
7f00d350:	310a000f 	andi	t2,t0,0xf
7f00d354:	01001021 	move	v0,t0
7f00d358:	24030100 	li	v1,256
7f00d35c:	0bc03467 	j	7f00d19c <__addsf3+0x54>
7f00d360:	240500ff 	li	a1,255
7f00d364:	504000e1 	beqzl	v0,7f00d6ec <__addsf3+0x5a4>
7f00d368:	30a500ff 	andi	a1,a1,0xff
7f00d36c:	10a0ffa0 	beqz	a1,7f00d1f0 <__addsf3+0xa8>
7f00d370:	7c43b000 	ext	v1,v0,0x0,0x17
7f00d374:	3c030040 	lui	v1,0x40
7f00d378:	00431825 	or	v1,v0,v1
7f00d37c:	7c63b000 	ext	v1,v1,0x0,0x17
7f00d380:	00001021 	move	v0,zero
7f00d384:	30a500ff 	andi	a1,a1,0xff
7f00d388:	7c62b004 	ins	v0,v1,0x0,0x17
7f00d38c:	7ca2f5c4 	ins	v0,a1,0x17,0x8
7f00d390:	03e00008 	jr	ra
7f00d394:	7cc2ffc4 	ins	v0,a2,0x1f,0x1
7f00d398:	14600029 	bnez	v1,7f00d440 <__addsf3+0x2f8>
7f00d39c:	24820001 	addiu	v0,a0,1
7f00d3a0:	304200ff 	andi	v0,v0,0xff
7f00d3a4:	28420002 	slti	v0,v0,2
7f00d3a8:	1440005a 	bnez	v0,7f00d514 <__addsf3+0x3cc>
7f00d3ac:	01075023 	subu	t2,t0,a3
7f00d3b0:	7d420680 	ext	v0,t2,0x1a,0x1
7f00d3b4:	10400034 	beqz	v0,7f00d488 <__addsf3+0x340>
7f00d3b8:	00802821 	move	a1,a0
7f00d3bc:	00e85023 	subu	t2,a3,t0
7f00d3c0:	0bc03492 	j	7f00d248 <__addsf3+0x100>
7f00d3c4:	01203021 	move	a2,t1
7f00d3c8:	00001821 	move	v1,zero
7f00d3cc:	00001021 	move	v0,zero
7f00d3d0:	240500ff 	li	a1,255
7f00d3d4:	7c62b004 	ins	v0,v1,0x0,0x17
7f00d3d8:	7ca2f5c4 	ins	v0,a1,0x17,0x8
7f00d3dc:	03e00008 	jr	ra
7f00d3e0:	7cc2ffc4 	ins	v0,a2,0x1f,0x1
7f00d3e4:	3c02fbff 	lui	v0,0xfbff
7f00d3e8:	00a32823 	subu	a1,a1,v1
7f00d3ec:	3442ffff 	ori	v0,v0,0xffff
7f00d3f0:	01421024 	and	v0,t2,v0
7f00d3f4:	24a30001 	addiu	v1,a1,1
7f00d3f8:	0bc03467 	j	7f00d19c <__addsf3+0x54>
7f00d3fc:	314a000f 	andi	t2,t2,0xf
7f00d400:	15200050 	bnez	t1,7f00d544 <__addsf3+0x3fc>
7f00d404:	00000000 	nop
7f00d408:	24850001 	addiu	a1,a0,1
7f00d40c:	30a200ff 	andi	v0,a1,0xff
7f00d410:	28420002 	slti	v0,v0,2
7f00d414:	14400037 	bnez	v0,7f00d4f4 <__addsf3+0x3ac>
7f00d418:	240200ff 	li	v0,255
7f00d41c:	50a20032 	beql	a1,v0,7f00d4e8 <__addsf3+0x3a0>
7f00d420:	30660001 	andi	a2,v1,0x1
7f00d424:	00e83821 	addu	a3,a3,t0
7f00d428:	30e20001 	andi	v0,a3,0x1
7f00d42c:	00073842 	srl	a3,a3,0x1
7f00d430:	00471025 	or	v0,v0,a3
7f00d434:	24830002 	addiu	v1,a0,2
7f00d438:	0bc03467 	j	7f00d19c <__addsf3+0x54>
7f00d43c:	304a000f 	andi	t2,v0,0xf
7f00d440:	1080001e 	beqz	a0,7f00d4bc <__addsf3+0x374>
7f00d444:	00031823 	negu	v1,v1
7f00d448:	240200ff 	li	v0,255
7f00d44c:	10a20052 	beq	a1,v0,7f00d598 <__addsf3+0x450>
7f00d450:	30ea000f 	andi	t2,a3,0xf
7f00d454:	3c020400 	lui	v0,0x400
7f00d458:	01024025 	or	t0,t0,v0
7f00d45c:	2864001c 	slti	a0,v1,28
7f00d460:	10800006 	beqz	a0,7f00d47c <__addsf3+0x334>
7f00d464:	24020001 	li	v0,1
7f00d468:	00031023 	negu	v0,v1
7f00d46c:	00481004 	sllv	v0,t0,v0
7f00d470:	00681806 	srlv	v1,t0,v1
7f00d474:	0002102b 	sltu	v0,zero,v0
7f00d478:	00431025 	or	v0,v0,v1
7f00d47c:	00e21023 	subu	v0,a3,v0
7f00d480:	0bc034c4 	j	7f00d310 <__addsf3+0x1c8>
7f00d484:	01203021 	move	a2,t1
7f00d488:	5540ff70 	bnezl	t2,7f00d24c <__addsf3+0x104>
7f00d48c:	71431820 	clz	v1,t2
7f00d490:	00003021 	move	a2,zero
7f00d494:	24030001 	li	v1,1
7f00d498:	24020004 	li	v0,4
7f00d49c:	0bc0346c 	j	7f00d1b0 <__addsf3+0x68>
7f00d4a0:	00002821 	move	a1,zero
7f00d4a4:	00091023 	negu	v0,t1
7f00d4a8:	00471004 	sllv	v0,a3,v0
7f00d4ac:	0002102b 	sltu	v0,zero,v0
7f00d4b0:	01273806 	srlv	a3,a3,t1
7f00d4b4:	0bc034ae 	j	7f00d2b8 <__addsf3+0x170>
7f00d4b8:	00471025 	or	v0,v0,a3
7f00d4bc:	55000048 	bnezl	t0,7f00d5e0 <__addsf3+0x498>
7f00d4c0:	2463ffff 	addiu	v1,v1,-1
7f00d4c4:	24a30001 	addiu	v1,a1,1
7f00d4c8:	30ea000f 	andi	t2,a3,0xf
7f00d4cc:	00e01021 	move	v0,a3
7f00d4d0:	0bc03467 	j	7f00d19c <__addsf3+0x54>
7f00d4d4:	01203021 	move	a2,t1
7f00d4d8:	5482ff75 	bnel	a0,v0,7f00d2b0 <__addsf3+0x168>
7f00d4dc:	2925001c 	slti	a1,t1,28
7f00d4e0:	0bc034d5 	j	7f00d354 <__addsf3+0x20c>
7f00d4e4:	310a000f 	andi	t2,t0,0xf
7f00d4e8:	24020004 	li	v0,4
7f00d4ec:	0bc0346c 	j	7f00d1b0 <__addsf3+0x68>
7f00d4f0:	24030100 	li	v1,256
7f00d4f4:	14800059 	bnez	a0,7f00d65c <__addsf3+0x514>
7f00d4f8:	00000000 	nop
7f00d4fc:	15000068 	bnez	t0,7f00d6a0 <__addsf3+0x558>
7f00d500:	30ea000f 	andi	t2,a3,0xf
7f00d504:	00e01021 	move	v0,a3
7f00d508:	24030001 	li	v1,1
7f00d50c:	0bc03467 	j	7f00d19c <__addsf3+0x54>
7f00d510:	00002821 	move	a1,zero
7f00d514:	14800013 	bnez	a0,7f00d564 <__addsf3+0x41c>
7f00d518:	00000000 	nop
7f00d51c:	15000044 	bnez	t0,7f00d630 <__addsf3+0x4e8>
7f00d520:	00000000 	nop
7f00d524:	50e0ffdb 	beqzl	a3,7f00d494 <__addsf3+0x34c>
7f00d528:	00003021 	move	a2,zero
7f00d52c:	30ea000f 	andi	t2,a3,0xf
7f00d530:	00e01021 	move	v0,a3
7f00d534:	01203021 	move	a2,t1
7f00d538:	24030001 	li	v1,1
7f00d53c:	0bc03467 	j	7f00d19c <__addsf3+0x54>
7f00d540:	00002821 	move	a1,zero
7f00d544:	1480002b 	bnez	a0,7f00d5f4 <__addsf3+0x4ac>
7f00d548:	00094823 	negu	t1,t1
7f00d54c:	5500004d 	bnezl	t0,7f00d684 <__addsf3+0x53c>
7f00d550:	2529ffff 	addiu	t1,t1,-1
7f00d554:	24a30001 	addiu	v1,a1,1
7f00d558:	30ea000f 	andi	t2,a3,0xf
7f00d55c:	0bc03467 	j	7f00d19c <__addsf3+0x54>
7f00d560:	00e01021 	move	v0,a3
7f00d564:	15000011 	bnez	t0,7f00d5ac <__addsf3+0x464>
7f00d568:	00000000 	nop
7f00d56c:	14e0000a 	bnez	a3,7f00d598 <__addsf3+0x450>
7f00d570:	30ea000f 	andi	t2,a3,0xf
7f00d574:	3c0203ff 	lui	v0,0x3ff
7f00d578:	00003021 	move	a2,zero
7f00d57c:	24030100 	li	v1,256
7f00d580:	3442fffc 	ori	v0,v0,0xfffc
7f00d584:	0bc0346c 	j	7f00d1b0 <__addsf3+0x68>
7f00d588:	240500ff 	li	a1,255
7f00d58c:	14a2ffb4 	bne	a1,v0,7f00d460 <__addsf3+0x318>
7f00d590:	2864001c 	slti	a0,v1,28
7f00d594:	30ea000f 	andi	t2,a3,0xf
7f00d598:	00e01021 	move	v0,a3
7f00d59c:	01203021 	move	a2,t1
7f00d5a0:	24030100 	li	v1,256
7f00d5a4:	0bc03467 	j	7f00d19c <__addsf3+0x54>
7f00d5a8:	240500ff 	li	a1,255
7f00d5ac:	10e0ff69 	beqz	a3,7f00d354 <__addsf3+0x20c>
7f00d5b0:	310a000f 	andi	t2,t0,0xf
7f00d5b4:	000810c2 	srl	v0,t0,0x3
7f00d5b8:	000718c2 	srl	v1,a3,0x3
7f00d5bc:	00621825 	or	v1,v1,v0
7f00d5c0:	7c630580 	ext	v1,v1,0x16,0x1
7f00d5c4:	54600043 	bnezl	v1,7f00d6d4 <__addsf3+0x58c>
7f00d5c8:	3c0203ff 	lui	v0,0x3ff
7f00d5cc:	000210c0 	sll	v0,v0,0x3
7f00d5d0:	304a000f 	andi	t2,v0,0xf
7f00d5d4:	24030100 	li	v1,256
7f00d5d8:	0bc03467 	j	7f00d19c <__addsf3+0x54>
7f00d5dc:	240500ff 	li	a1,255
7f00d5e0:	5460ffea 	bnezl	v1,7f00d58c <__addsf3+0x444>
7f00d5e4:	240200ff 	li	v0,255
7f00d5e8:	00e81023 	subu	v0,a3,t0
7f00d5ec:	0bc034c4 	j	7f00d310 <__addsf3+0x1c8>
7f00d5f0:	01203021 	move	a2,t1
7f00d5f4:	240200ff 	li	v0,255
7f00d5f8:	10a2001a 	beq	a1,v0,7f00d664 <__addsf3+0x51c>
7f00d5fc:	30ea000f 	andi	t2,a3,0xf
7f00d600:	3c020400 	lui	v0,0x400
7f00d604:	01024025 	or	t0,t0,v0
7f00d608:	2924001c 	slti	a0,t1,28
7f00d60c:	10800006 	beqz	a0,7f00d628 <__addsf3+0x4e0>
7f00d610:	24020001 	li	v0,1
7f00d614:	00091023 	negu	v0,t1
7f00d618:	00481004 	sllv	v0,t0,v0
7f00d61c:	01284806 	srlv	t1,t0,t1
7f00d620:	0002102b 	sltu	v0,zero,v0
7f00d624:	00491025 	or	v0,v0,t1
7f00d628:	0bc034b0 	j	7f00d2c0 <__addsf3+0x178>
7f00d62c:	00471021 	addu	v0,v0,a3
7f00d630:	10e00010 	beqz	a3,7f00d674 <__addsf3+0x52c>
7f00d634:	310a000f 	andi	t2,t0,0xf
7f00d638:	01071023 	subu	v0,t0,a3
7f00d63c:	7c430680 	ext	v1,v0,0x1a,0x1
7f00d640:	1060002c 	beqz	v1,7f00d6f4 <__addsf3+0x5ac>
7f00d644:	24030001 	li	v1,1
7f00d648:	00e81023 	subu	v0,a3,t0
7f00d64c:	304a000f 	andi	t2,v0,0xf
7f00d650:	01203021 	move	a2,t1
7f00d654:	0bc03467 	j	7f00d19c <__addsf3+0x54>
7f00d658:	00002821 	move	a1,zero
7f00d65c:	1500ffd3 	bnez	t0,7f00d5ac <__addsf3+0x464>
7f00d660:	30ea000f 	andi	t2,a3,0xf
7f00d664:	00e01021 	move	v0,a3
7f00d668:	24030100 	li	v1,256
7f00d66c:	0bc03467 	j	7f00d19c <__addsf3+0x54>
7f00d670:	240500ff 	li	a1,255
7f00d674:	01001021 	move	v0,t0
7f00d678:	24030001 	li	v1,1
7f00d67c:	0bc03467 	j	7f00d19c <__addsf3+0x54>
7f00d680:	00002821 	move	a1,zero
7f00d684:	1120ff0e 	beqz	t1,7f00d2c0 <__addsf3+0x178>
7f00d688:	00e81021 	addu	v0,a3,t0
7f00d68c:	240200ff 	li	v0,255
7f00d690:	14a2ffde 	bne	a1,v0,7f00d60c <__addsf3+0x4c4>
7f00d694:	2924001c 	slti	a0,t1,28
7f00d698:	0bc03599 	j	7f00d664 <__addsf3+0x51c>
7f00d69c:	30ea000f 	andi	t2,a3,0xf
7f00d6a0:	10e0fff4 	beqz	a3,7f00d674 <__addsf3+0x52c>
7f00d6a4:	310a000f 	andi	t2,t0,0xf
7f00d6a8:	00e81021 	addu	v0,a3,t0
7f00d6ac:	7c430680 	ext	v1,v0,0x1a,0x1
7f00d6b0:	5060fef2 	beqzl	v1,7f00d27c <__addsf3+0x134>
7f00d6b4:	304a000f 	andi	t2,v0,0xf
7f00d6b8:	3c03fbff 	lui	v1,0xfbff
7f00d6bc:	3463ffff 	ori	v1,v1,0xffff
7f00d6c0:	00431024 	and	v0,v0,v1
7f00d6c4:	304a000f 	andi	t2,v0,0xf
7f00d6c8:	24030002 	li	v1,2
7f00d6cc:	0bc03467 	j	7f00d19c <__addsf3+0x54>
7f00d6d0:	24050001 	li	a1,1
7f00d6d4:	240a0008 	li	t2,8
7f00d6d8:	3442fff8 	ori	v0,v0,0xfff8
7f00d6dc:	00003021 	move	a2,zero
7f00d6e0:	24030100 	li	v1,256
7f00d6e4:	0bc03467 	j	7f00d19c <__addsf3+0x54>
7f00d6e8:	240500ff 	li	a1,255
7f00d6ec:	0bc0347c 	j	7f00d1f0 <__addsf3+0xa8>
7f00d6f0:	00001821 	move	v1,zero
7f00d6f4:	5040ff67 	beqzl	v0,7f00d494 <__addsf3+0x34c>
7f00d6f8:	00003021 	move	a2,zero
7f00d6fc:	0bc0349f 	j	7f00d27c <__addsf3+0x134>
7f00d700:	304a000f 	andi	t2,v0,0xf

7f00d704 <__divsf3>:
7f00d704:	7c8607c0 	ext	a2,a0,0x1f,0x1
7f00d708:	7c833dc0 	ext	v1,a0,0x17,0x8
7f00d70c:	30cb00ff 	andi	t3,a2,0xff
7f00d710:	14600019 	bnez	v1,7f00d778 <__divsf3+0x74>
7f00d714:	7c84b000 	ext	a0,a0,0x0,0x17
7f00d718:	5480003d 	bnezl	a0,7f00d810 <__divsf3+0x10c>
7f00d71c:	70831820 	clz	v1,a0
7f00d720:	7ca73dc0 	ext	a3,a1,0x17,0x8
7f00d724:	7ca8b000 	ext	t0,a1,0x0,0x17
7f00d728:	240a0004 	li	t2,4
7f00d72c:	240d0001 	li	t5,1
7f00d730:	10e0001d 	beqz	a3,7f00d7a8 <__divsf3+0xa4>
7f00d734:	00052fc2 	srl	a1,a1,0x1f
7f00d738:	240900ff 	li	t1,255
7f00d73c:	10e90031 	beq	a3,t1,7f00d804 <__divsf3+0x100>
7f00d740:	24090002 	li	t1,2
7f00d744:	3c090080 	lui	t1,0x80
7f00d748:	01094025 	or	t0,t0,t1
7f00d74c:	000840c0 	sll	t0,t0,0x3
7f00d750:	24e7ff81 	addiu	a3,a3,-127
7f00d754:	00004821 	move	t1,zero
7f00d758:	012a5025 	or	t2,t1,t2
7f00d75c:	3c0c7f01 	lui	t4,0x7f01
7f00d760:	258ceb80 	addiu	t4,t4,-5248
7f00d764:	000a5080 	sll	t2,t2,0x2
7f00d768:	018a5021 	addu	t2,t4,t2
7f00d76c:	8d4a0000 	lw	t2,0(t2)
7f00d770:	01400008 	jr	t2
7f00d774:	00ab6026 	xor	t4,a1,t3
7f00d778:	240700ff 	li	a3,255
7f00d77c:	10670013 	beq	v1,a3,7f00d7cc <__divsf3+0xc8>
7f00d780:	3c070080 	lui	a3,0x80
7f00d784:	00872025 	or	a0,a0,a3
7f00d788:	000420c0 	sll	a0,a0,0x3
7f00d78c:	2463ff81 	addiu	v1,v1,-127
7f00d790:	00005021 	move	t2,zero
7f00d794:	00006821 	move	t5,zero
7f00d798:	7ca73dc0 	ext	a3,a1,0x17,0x8
7f00d79c:	7ca8b000 	ext	t0,a1,0x0,0x17
7f00d7a0:	14e0ffe5 	bnez	a3,7f00d738 <__divsf3+0x34>
7f00d7a4:	00052fc2 	srl	a1,a1,0x1f
7f00d7a8:	1100ffeb 	beqz	t0,7f00d758 <__divsf3+0x54>
7f00d7ac:	24090001 	li	t1,1
7f00d7b0:	71073820 	clz	a3,t0
7f00d7b4:	24e9fffb 	addiu	t1,a3,-5
7f00d7b8:	01284004 	sllv	t0,t0,t1
7f00d7bc:	2409ff8a 	li	t1,-118
7f00d7c0:	01273823 	subu	a3,t1,a3
7f00d7c4:	0bc035d6 	j	7f00d758 <__divsf3+0x54>
7f00d7c8:	00004821 	move	t1,zero
7f00d7cc:	2407000c 	li	a3,12
7f00d7d0:	240a0008 	li	t2,8
7f00d7d4:	240d0002 	li	t5,2
7f00d7d8:	00e4500b 	movn	t2,a3,a0
7f00d7dc:	24070003 	li	a3,3
7f00d7e0:	0bc035e6 	j	7f00d798 <__divsf3+0x94>
7f00d7e4:	00e4680b 	movn	t5,a3,a0
7f00d7e8:	240300ff 	li	v1,255
7f00d7ec:	00002021 	move	a0,zero
7f00d7f0:	00001021 	move	v0,zero
7f00d7f4:	7c82b004 	ins	v0,a0,0x0,0x17
7f00d7f8:	7c62f5c4 	ins	v0,v1,0x17,0x8
7f00d7fc:	03e00008 	jr	ra
7f00d800:	7d82ffc4 	ins	v0,t4,0x1f,0x1
7f00d804:	240c0003 	li	t4,3
7f00d808:	0bc035d6 	j	7f00d758 <__divsf3+0x54>
7f00d80c:	0188480b 	movn	t1,t4,t0
7f00d810:	2467fffb 	addiu	a3,v1,-5
7f00d814:	00e42004 	sllv	a0,a0,a3
7f00d818:	2407ff8a 	li	a3,-118
7f00d81c:	00e31823 	subu	v1,a3,v1
7f00d820:	00005021 	move	t2,zero
7f00d824:	0bc035e6 	j	7f00d798 <__divsf3+0x94>
7f00d828:	00006821 	move	t5,zero
7f00d82c:	3c04007f 	lui	a0,0x7f
7f00d830:	3484ffff 	ori	a0,a0,0xffff
7f00d834:	00006021 	move	t4,zero
7f00d838:	7c84b000 	ext	a0,a0,0x0,0x17
7f00d83c:	240300ff 	li	v1,255
7f00d840:	00001021 	move	v0,zero
7f00d844:	7c82b004 	ins	v0,a0,0x0,0x17
7f00d848:	7c62f5c4 	ins	v0,v1,0x17,0x8
7f00d84c:	03e00008 	jr	ra
7f00d850:	7d82ffc4 	ins	v0,t4,0x1f,0x1
7f00d854:	00002021 	move	a0,zero
7f00d858:	00001021 	move	v0,zero
7f00d85c:	00001821 	move	v1,zero
7f00d860:	7c82b004 	ins	v0,a0,0x0,0x17
7f00d864:	7c62f5c4 	ins	v0,v1,0x17,0x8
7f00d868:	03e00008 	jr	ra
7f00d86c:	7d82ffc4 	ins	v0,t4,0x1f,0x1
7f00d870:	01002021 	move	a0,t0
7f00d874:	00a06021 	move	t4,a1
7f00d878:	24030002 	li	v1,2
7f00d87c:	1123ffda 	beq	t1,v1,7f00d7e8 <__divsf3+0xe4>
7f00d880:	24030003 	li	v1,3
7f00d884:	51230072 	beql	t1,v1,7f00da50 <__divsf3+0x34c>
7f00d888:	3c020040 	lui	v0,0x40
7f00d88c:	24030001 	li	v1,1
7f00d890:	5123fff1 	beql	t1,v1,7f00d858 <__divsf3+0x154>
7f00d894:	00002021 	move	a0,zero
7f00d898:	2443007f 	addiu	v1,v0,127
7f00d89c:	18600056 	blez	v1,7f00d9f8 <__divsf3+0x2f4>
7f00d8a0:	3086000f 	andi	a2,a0,0xf
7f00d8a4:	24850004 	addiu	a1,a0,4
7f00d8a8:	38c60004 	xori	a2,a2,0x4
7f00d8ac:	00a6200b 	movn	a0,a1,a2
7f00d8b0:	7c8506c0 	ext	a1,a0,0x1b,0x1
7f00d8b4:	50a00006 	beqzl	a1,7f00d8d0 <__divsf3+0x1cc>
7f00d8b8:	286200ff 	slti	v0,v1,255
7f00d8bc:	3c03f7ff 	lui	v1,0xf7ff
7f00d8c0:	3463ffff 	ori	v1,v1,0xffff
7f00d8c4:	00832024 	and	a0,a0,v1
7f00d8c8:	24430080 	addiu	v1,v0,128
7f00d8cc:	286200ff 	slti	v0,v1,255
7f00d8d0:	5040ffc6 	beqzl	v0,7f00d7ec <__divsf3+0xe8>
7f00d8d4:	240300ff 	li	v1,255
7f00d8d8:	7c84b0c0 	ext	a0,a0,0x3,0x17
7f00d8dc:	0bc035fc 	j	7f00d7f0 <__divsf3+0xec>
7f00d8e0:	306300ff 	andi	v1,v1,0xff
7f00d8e4:	01044025 	or	t0,t0,a0
7f00d8e8:	3c020040 	lui	v0,0x40
7f00d8ec:	01024024 	and	t0,t0,v0
7f00d8f0:	5500ffcf 	bnezl	t0,7f00d830 <__divsf3+0x12c>
7f00d8f4:	3c04007f 	lui	a0,0x7f
7f00d8f8:	00822025 	or	a0,a0,v0
7f00d8fc:	30cc0001 	andi	t4,a2,0x1
7f00d900:	7c84b000 	ext	a0,a0,0x0,0x17
7f00d904:	0bc03610 	j	7f00d840 <__divsf3+0x13c>
7f00d908:	240300ff 	li	v1,255
7f00d90c:	0088282b 	sltu	a1,a0,t0
7f00d910:	00671023 	subu	v0,v1,a3
7f00d914:	10a00034 	beqz	a1,7f00d9e8 <__divsf3+0x2e4>
7f00d918:	00084140 	sll	t0,t0,0x5
7f00d91c:	2442ffff 	addiu	v0,v0,-1
7f00d920:	00003021 	move	a2,zero
7f00d924:	00081c02 	srl	v1,t0,0x10
7f00d928:	0083001b 	divu	zero,a0,v1
7f00d92c:	006001f4 	teq	v1,zero,0x7
7f00d930:	3109ffff 	andi	t1,t0,0xffff
7f00d934:	00003812 	mflo	a3
7f00d938:	00002010 	mfhi	a0
7f00d93c:	00042400 	sll	a0,a0,0x10
7f00d940:	00863025 	or	a2,a0,a2
7f00d944:	70e95002 	mul	t2,a3,t1
7f00d948:	00ca202b 	sltu	a0,a2,t2
7f00d94c:	5080000b 	beqzl	a0,7f00d97c <__divsf3+0x278>
7f00d950:	00ca3023 	subu	a2,a2,t2
7f00d954:	00c83021 	addu	a2,a2,t0
7f00d958:	00c8202b 	sltu	a0,a2,t0
7f00d95c:	14800006 	bnez	a0,7f00d978 <__divsf3+0x274>
7f00d960:	24e7ffff 	addiu	a3,a3,-1
7f00d964:	00ca202b 	sltu	a0,a2,t2
7f00d968:	50800004 	beqzl	a0,7f00d97c <__divsf3+0x278>
7f00d96c:	00ca3023 	subu	a2,a2,t2
7f00d970:	24e7ffff 	addiu	a3,a3,-1
7f00d974:	00c83021 	addu	a2,a2,t0
7f00d978:	00ca3023 	subu	a2,a2,t2
7f00d97c:	00c3001b 	divu	zero,a2,v1
7f00d980:	006001f4 	teq	v1,zero,0x7
7f00d984:	00002012 	mflo	a0
7f00d988:	00002810 	mfhi	a1
7f00d98c:	00052c00 	sll	a1,a1,0x10
7f00d990:	70894802 	mul	t1,a0,t1
7f00d994:	00a9582b 	sltu	t3,a1,t1
7f00d998:	5160000b 	beqzl	t3,7f00d9c8 <__divsf3+0x2c4>
7f00d99c:	00073c00 	sll	a3,a3,0x10
7f00d9a0:	00a82821 	addu	a1,a1,t0
7f00d9a4:	00a8582b 	sltu	t3,a1,t0
7f00d9a8:	15600006 	bnez	t3,7f00d9c4 <__divsf3+0x2c0>
7f00d9ac:	2484ffff 	addiu	a0,a0,-1
7f00d9b0:	00a9582b 	sltu	t3,a1,t1
7f00d9b4:	51600004 	beqzl	t3,7f00d9c8 <__divsf3+0x2c4>
7f00d9b8:	00073c00 	sll	a3,a3,0x10
7f00d9bc:	2484ffff 	addiu	a0,a0,-1
7f00d9c0:	00a82821 	addu	a1,a1,t0
7f00d9c4:	00073c00 	sll	a3,a3,0x10
7f00d9c8:	00a94823 	subu	t1,a1,t1
7f00d9cc:	00872025 	or	a0,a0,a3
7f00d9d0:	0009482b 	sltu	t1,zero,t1
7f00d9d4:	0bc03626 	j	7f00d898 <__divsf3+0x194>
7f00d9d8:	00892025 	or	a0,a0,t1
7f00d9dc:	01606021 	move	t4,t3
7f00d9e0:	0bc0361e 	j	7f00d878 <__divsf3+0x174>
7f00d9e4:	01a04821 	move	t1,t5
7f00d9e8:	000437c0 	sll	a2,a0,0x1f
7f00d9ec:	00063402 	srl	a2,a2,0x10
7f00d9f0:	0bc03649 	j	7f00d924 <__divsf3+0x220>
7f00d9f4:	00042042 	srl	a0,a0,0x1
7f00d9f8:	24020001 	li	v0,1
7f00d9fc:	00431823 	subu	v1,v0,v1
7f00da00:	2862001c 	slti	v0,v1,28
7f00da04:	5040ff94 	beqzl	v0,7f00d858 <__divsf3+0x154>
7f00da08:	00002021 	move	a0,zero
7f00da0c:	00031023 	negu	v0,v1
7f00da10:	00441004 	sllv	v0,a0,v0
7f00da14:	00641806 	srlv	v1,a0,v1
7f00da18:	0002202b 	sltu	a0,zero,v0
7f00da1c:	00832025 	or	a0,a0,v1
7f00da20:	3083000f 	andi	v1,a0,0xf
7f00da24:	24820004 	addiu	v0,a0,4
7f00da28:	38630004 	xori	v1,v1,0x4
7f00da2c:	0043200b 	movn	a0,v0,v1
7f00da30:	7c820680 	ext	v0,a0,0x1a,0x1
7f00da34:	50400004 	beqzl	v0,7f00da48 <__divsf3+0x344>
7f00da38:	7c84b0c0 	ext	a0,a0,0x3,0x17
7f00da3c:	24030001 	li	v1,1
7f00da40:	0bc035fc 	j	7f00d7f0 <__divsf3+0xec>
7f00da44:	00002021 	move	a0,zero
7f00da48:	0bc035fc 	j	7f00d7f0 <__divsf3+0xec>
7f00da4c:	00001821 	move	v1,zero
7f00da50:	00822025 	or	a0,a0,v0
7f00da54:	7c84b000 	ext	a0,a0,0x0,0x17
7f00da58:	0bc03610 	j	7f00d840 <__divsf3+0x13c>
7f00da5c:	240300ff 	li	v1,255

7f00da60 <__eqsf2>:
7f00da60:	7c833dc0 	ext	v1,a0,0x17,0x8
7f00da64:	240200ff 	li	v0,255
7f00da68:	7c87b000 	ext	a3,a0,0x0,0x17
7f00da6c:	7ca8b000 	ext	t0,a1,0x0,0x17
7f00da70:	7ca63dc0 	ext	a2,a1,0x17,0x8
7f00da74:	000427c2 	srl	a0,a0,0x1f
7f00da78:	1062000e 	beq	v1,v0,7f00dab4 <__eqsf2+0x54>
7f00da7c:	00052fc2 	srl	a1,a1,0x1f
7f00da80:	240200ff 	li	v0,255
7f00da84:	10c20010 	beq	a2,v0,7f00dac8 <__eqsf2+0x68>
7f00da88:	00000000 	nop
7f00da8c:	14660010 	bne	v1,a2,7f00dad0 <__eqsf2+0x70>
7f00da90:	24020001 	li	v0,1
7f00da94:	14e8000e 	bne	a3,t0,7f00dad0 <__eqsf2+0x70>
7f00da98:	00000000 	nop
7f00da9c:	1085000c 	beq	a0,a1,7f00dad0 <__eqsf2+0x70>
7f00daa0:	00001021 	move	v0,zero
7f00daa4:	0007382b 	sltu	a3,zero,a3
7f00daa8:	24020001 	li	v0,1
7f00daac:	03e00008 	jr	ra
7f00dab0:	00e3100a 	movz	v0,a3,v1
7f00dab4:	14e00006 	bnez	a3,7f00dad0 <__eqsf2+0x70>
7f00dab8:	24020001 	li	v0,1
7f00dabc:	240200ff 	li	v0,255
7f00dac0:	14c2fff2 	bne	a2,v0,7f00da8c <__eqsf2+0x2c>
7f00dac4:	00000000 	nop
7f00dac8:	1100fff0 	beqz	t0,7f00da8c <__eqsf2+0x2c>
7f00dacc:	24020001 	li	v0,1
7f00dad0:	03e00008 	jr	ra
7f00dad4:	00000000 	nop

7f00dad8 <__gesf2>:
7f00dad8:	7c833dc0 	ext	v1,a0,0x17,0x8
7f00dadc:	240200ff 	li	v0,255
7f00dae0:	7c88b000 	ext	t0,a0,0x0,0x17
7f00dae4:	7ca7b000 	ext	a3,a1,0x0,0x17
7f00dae8:	7ca63dc0 	ext	a2,a1,0x17,0x8
7f00daec:	000427c2 	srl	a0,a0,0x1f
7f00daf0:	10620029 	beq	v1,v0,7f00db98 <__gesf2+0xc0>
7f00daf4:	00052fc2 	srl	a1,a1,0x1f
7f00daf8:	240200ff 	li	v0,255
7f00dafc:	10c2002a 	beq	a2,v0,7f00dba8 <__gesf2+0xd0>
7f00db00:	00000000 	nop
7f00db04:	2d020001 	sltiu	v0,t0,1
7f00db08:	2ce90001 	sltiu	t1,a3,1
7f00db0c:	0003100b 	movn	v0,zero,v1
7f00db10:	10400007 	beqz	v0,7f00db30 <__gesf2+0x58>
7f00db14:	0006480b 	movn	t1,zero,a2
7f00db18:	15200021 	bnez	t1,7f00dba0 <__gesf2+0xc8>
7f00db1c:	00001021 	move	v0,zero
7f00db20:	24020001 	li	v0,1
7f00db24:	2403ffff 	li	v1,-1
7f00db28:	03e00008 	jr	ra
7f00db2c:	0065100a 	movz	v0,v1,a1
7f00db30:	1520000d 	bnez	t1,7f00db68 <__gesf2+0x90>
7f00db34:	2402ffff 	li	v0,-1
7f00db38:	5485000c 	bnel	a0,a1,7f00db6c <__gesf2+0x94>
7f00db3c:	24030001 	li	v1,1
7f00db40:	00c3102a 	slt	v0,a2,v1
7f00db44:	54400008 	bnezl	v0,7f00db68 <__gesf2+0x90>
7f00db48:	2402ffff 	li	v0,-1
7f00db4c:	0066182a 	slt	v1,v1,a2
7f00db50:	50600008 	beqzl	v1,7f00db74 <__gesf2+0x9c>
7f00db54:	00e8102b 	sltu	v0,a3,t0
7f00db58:	24020001 	li	v0,1
7f00db5c:	2403ffff 	li	v1,-1
7f00db60:	03e00008 	jr	ra
7f00db64:	0064100a 	movz	v0,v1,a0
7f00db68:	24030001 	li	v1,1
7f00db6c:	03e00008 	jr	ra
7f00db70:	0064100a 	movz	v0,v1,a0
7f00db74:	1440fffc 	bnez	v0,7f00db68 <__gesf2+0x90>
7f00db78:	2402ffff 	li	v0,-1
7f00db7c:	0107382b 	sltu	a3,t0,a3
7f00db80:	10e00007 	beqz	a3,7f00dba0 <__gesf2+0xc8>
7f00db84:	00001021 	move	v0,zero
7f00db88:	24020001 	li	v0,1
7f00db8c:	2403ffff 	li	v1,-1
7f00db90:	03e00008 	jr	ra
7f00db94:	0064100a 	movz	v0,v1,a0
7f00db98:	1100ffd7 	beqz	t0,7f00daf8 <__gesf2+0x20>
7f00db9c:	2402fffe 	li	v0,-2
7f00dba0:	03e00008 	jr	ra
7f00dba4:	00000000 	nop
7f00dba8:	10e0ffd6 	beqz	a3,7f00db04 <__gesf2+0x2c>
7f00dbac:	2402fffe 	li	v0,-2
7f00dbb0:	03e00008 	jr	ra
7f00dbb4:	00000000 	nop

7f00dbb8 <__lesf2>:
7f00dbb8:	7c833dc0 	ext	v1,a0,0x17,0x8
7f00dbbc:	240200ff 	li	v0,255
7f00dbc0:	7c87b000 	ext	a3,a0,0x0,0x17
7f00dbc4:	7ca8b000 	ext	t0,a1,0x0,0x17
7f00dbc8:	7ca63dc0 	ext	a2,a1,0x17,0x8
7f00dbcc:	000427c2 	srl	a0,a0,0x1f
7f00dbd0:	10620018 	beq	v1,v0,7f00dc34 <__lesf2+0x7c>
7f00dbd4:	00052fc2 	srl	a1,a1,0x1f
7f00dbd8:	240200ff 	li	v0,255
7f00dbdc:	10c2000c 	beq	a2,v0,7f00dc10 <__lesf2+0x58>
7f00dbe0:	00000000 	nop
7f00dbe4:	2ce20001 	sltiu	v0,a3,1
7f00dbe8:	2d090001 	sltiu	t1,t0,1
7f00dbec:	0003100b 	movn	v0,zero,v1
7f00dbf0:	1040000b 	beqz	v0,7f00dc20 <__lesf2+0x68>
7f00dbf4:	0006480b 	movn	t1,zero,a2
7f00dbf8:	15200007 	bnez	t1,7f00dc18 <__lesf2+0x60>
7f00dbfc:	00001021 	move	v0,zero
7f00dc00:	24020001 	li	v0,1
7f00dc04:	2403ffff 	li	v1,-1
7f00dc08:	03e00008 	jr	ra
7f00dc0c:	0065100a 	movz	v0,v1,a1
7f00dc10:	1100fff4 	beqz	t0,7f00dbe4 <__lesf2+0x2c>
7f00dc14:	24020002 	li	v0,2
7f00dc18:	03e00008 	jr	ra
7f00dc1c:	00000000 	nop
7f00dc20:	11200008 	beqz	t1,7f00dc44 <__lesf2+0x8c>
7f00dc24:	2402ffff 	li	v0,-1
7f00dc28:	24030001 	li	v1,1
7f00dc2c:	03e00008 	jr	ra
7f00dc30:	0064100a 	movz	v0,v1,a0
7f00dc34:	10e0ffe8 	beqz	a3,7f00dbd8 <__lesf2+0x20>
7f00dc38:	24020002 	li	v0,2
7f00dc3c:	03e00008 	jr	ra
7f00dc40:	00000000 	nop
7f00dc44:	1485fff8 	bne	a0,a1,7f00dc28 <__lesf2+0x70>
7f00dc48:	00000000 	nop
7f00dc4c:	00c3102a 	slt	v0,a2,v1
7f00dc50:	5440fff5 	bnezl	v0,7f00dc28 <__lesf2+0x70>
7f00dc54:	2402ffff 	li	v0,-1
7f00dc58:	0066182a 	slt	v1,v1,a2
7f00dc5c:	50600005 	beqzl	v1,7f00dc74 <__lesf2+0xbc>
7f00dc60:	0107102b 	sltu	v0,t0,a3
7f00dc64:	24020001 	li	v0,1
7f00dc68:	2403ffff 	li	v1,-1
7f00dc6c:	03e00008 	jr	ra
7f00dc70:	0064100a 	movz	v0,v1,a0
7f00dc74:	5440ffec 	bnezl	v0,7f00dc28 <__lesf2+0x70>
7f00dc78:	2402ffff 	li	v0,-1
7f00dc7c:	00e8382b 	sltu	a3,a3,t0
7f00dc80:	10e0ffe5 	beqz	a3,7f00dc18 <__lesf2+0x60>
7f00dc84:	00001021 	move	v0,zero
7f00dc88:	2403ffff 	li	v1,-1
7f00dc8c:	24020001 	li	v0,1
7f00dc90:	03e00008 	jr	ra
7f00dc94:	0064100a 	movz	v0,v1,a0

7f00dc98 <__mulsf3>:
7f00dc98:	7c8607c0 	ext	a2,a0,0x1f,0x1
7f00dc9c:	7c833dc0 	ext	v1,a0,0x17,0x8
7f00dca0:	30ca00ff 	andi	t2,a2,0xff
7f00dca4:	1460001a 	bnez	v1,7f00dd10 <__mulsf3+0x78>
7f00dca8:	7c84b000 	ext	a0,a0,0x0,0x17
7f00dcac:	54800038 	bnezl	a0,7f00dd90 <__mulsf3+0xf8>
7f00dcb0:	70831820 	clz	v1,a0
7f00dcb4:	7cac07c0 	ext	t4,a1,0x1f,0x1
7f00dcb8:	7ca73dc0 	ext	a3,a1,0x17,0x8
7f00dcbc:	24090004 	li	t1,4
7f00dcc0:	240e0001 	li	t6,1
7f00dcc4:	7ca5b000 	ext	a1,a1,0x0,0x17
7f00dcc8:	10e0001e 	beqz	a3,7f00dd44 <__mulsf3+0xac>
7f00dccc:	318b00ff 	andi	t3,t4,0xff
7f00dcd0:	240800ff 	li	t0,255
7f00dcd4:	10e8002b 	beq	a3,t0,7f00dd84 <__mulsf3+0xec>
7f00dcd8:	24080002 	li	t0,2
7f00dcdc:	3c080080 	lui	t0,0x80
7f00dce0:	00a82825 	or	a1,a1,t0
7f00dce4:	000528c0 	sll	a1,a1,0x3
7f00dce8:	24e7ff81 	addiu	a3,a3,-127
7f00dcec:	00004021 	move	t0,zero
7f00dcf0:	01094825 	or	t1,t0,t1
7f00dcf4:	3c0d7f01 	lui	t5,0x7f01
7f00dcf8:	25adebc0 	addiu	t5,t5,-5184
7f00dcfc:	00094880 	sll	t1,t1,0x2
7f00dd00:	01a94821 	addu	t1,t5,t1
7f00dd04:	8d2d0000 	lw	t5,0(t1)
7f00dd08:	01a00008 	jr	t5
7f00dd0c:	016a4826 	xor	t1,t3,t2
7f00dd10:	240700ff 	li	a3,255
7f00dd14:	10670014 	beq	v1,a3,7f00dd68 <__mulsf3+0xd0>
7f00dd18:	3c070080 	lui	a3,0x80
7f00dd1c:	00872025 	or	a0,a0,a3
7f00dd20:	000420c0 	sll	a0,a0,0x3
7f00dd24:	2463ff81 	addiu	v1,v1,-127
7f00dd28:	00004821 	move	t1,zero
7f00dd2c:	00007021 	move	t6,zero
7f00dd30:	7cac07c0 	ext	t4,a1,0x1f,0x1
7f00dd34:	7ca73dc0 	ext	a3,a1,0x17,0x8
7f00dd38:	318b00ff 	andi	t3,t4,0xff
7f00dd3c:	14e0ffe4 	bnez	a3,7f00dcd0 <__mulsf3+0x38>
7f00dd40:	7ca5b000 	ext	a1,a1,0x0,0x17
7f00dd44:	10a0ffea 	beqz	a1,7f00dcf0 <__mulsf3+0x58>
7f00dd48:	24080001 	li	t0,1
7f00dd4c:	70a73820 	clz	a3,a1
7f00dd50:	24e8fffb 	addiu	t0,a3,-5
7f00dd54:	01052804 	sllv	a1,a1,t0
7f00dd58:	2408ff8a 	li	t0,-118
7f00dd5c:	01073823 	subu	a3,t0,a3
7f00dd60:	0bc0373c 	j	7f00dcf0 <__mulsf3+0x58>
7f00dd64:	00004021 	move	t0,zero
7f00dd68:	2407000c 	li	a3,12
7f00dd6c:	24090008 	li	t1,8
7f00dd70:	240e0002 	li	t6,2
7f00dd74:	00e4480b 	movn	t1,a3,a0
7f00dd78:	24070003 	li	a3,3
7f00dd7c:	0bc0374c 	j	7f00dd30 <__mulsf3+0x98>
7f00dd80:	00e4700b 	movn	t6,a3,a0
7f00dd84:	240d0003 	li	t5,3
7f00dd88:	0bc0373c 	j	7f00dcf0 <__mulsf3+0x58>
7f00dd8c:	01a5400b 	movn	t0,t5,a1
7f00dd90:	2467fffb 	addiu	a3,v1,-5
7f00dd94:	00e42004 	sllv	a0,a0,a3
7f00dd98:	2407ff8a 	li	a3,-118
7f00dd9c:	00e31823 	subu	v1,a3,v1
7f00dda0:	00004821 	move	t1,zero
7f00dda4:	0bc0374c 	j	7f00dd30 <__mulsf3+0x98>
7f00dda8:	00007021 	move	t6,zero
7f00ddac:	30c60001 	andi	a2,a2,0x1
7f00ddb0:	01404821 	move	t1,t2
7f00ddb4:	01c04021 	move	t0,t6
7f00ddb8:	24030002 	li	v1,2
7f00ddbc:	51030038 	beql	t0,v1,7f00dea0 <__mulsf3+0x208>
7f00ddc0:	00002021 	move	a0,zero
7f00ddc4:	24030003 	li	v1,3
7f00ddc8:	11030067 	beq	t0,v1,7f00df68 <__mulsf3+0x2d0>
7f00ddcc:	24030001 	li	v1,1
7f00ddd0:	51030059 	beql	t0,v1,7f00df38 <__mulsf3+0x2a0>
7f00ddd4:	00002021 	move	a0,zero
7f00ddd8:	2443007f 	addiu	v1,v0,127
7f00dddc:	1860004f 	blez	v1,7f00df1c <__mulsf3+0x284>
7f00dde0:	3086000f 	andi	a2,a0,0xf
7f00dde4:	24850004 	addiu	a1,a0,4
7f00dde8:	38c60004 	xori	a2,a2,0x4
7f00ddec:	00a6200b 	movn	a0,a1,a2
7f00ddf0:	7c8506c0 	ext	a1,a0,0x1b,0x1
7f00ddf4:	50a00006 	beqzl	a1,7f00de10 <__mulsf3+0x178>
7f00ddf8:	286200ff 	slti	v0,v1,255
7f00ddfc:	3c03f7ff 	lui	v1,0xf7ff
7f00de00:	3463ffff 	ori	v1,v1,0xffff
7f00de04:	00832024 	and	a0,a0,v1
7f00de08:	24430080 	addiu	v1,v0,128
7f00de0c:	286200ff 	slti	v0,v1,255
7f00de10:	1440004f 	bnez	v0,7f00df50 <__mulsf3+0x2b8>
7f00de14:	7c84b0c0 	ext	a0,a0,0x3,0x17
7f00de18:	01203021 	move	a2,t1
7f00de1c:	240300ff 	li	v1,255
7f00de20:	00002021 	move	a0,zero
7f00de24:	00001021 	move	v0,zero
7f00de28:	7c82b004 	ins	v0,a0,0x0,0x17
7f00de2c:	7c62f5c4 	ins	v0,v1,0x17,0x8
7f00de30:	03e00008 	jr	ra
7f00de34:	7cc2ffc4 	ins	v0,a2,0x1f,0x1
7f00de38:	00a40019 	multu	a1,a0
7f00de3c:	00e31021 	addu	v0,a3,v1
7f00de40:	00001812 	mflo	v1
7f00de44:	00032180 	sll	a0,v1,0x6
7f00de48:	0004202b 	sltu	a0,zero,a0
7f00de4c:	00005810 	mfhi	t3
7f00de50:	00031e82 	srl	v1,v1,0x1a
7f00de54:	000b2980 	sll	a1,t3,0x6
7f00de58:	00a42025 	or	a0,a1,a0
7f00de5c:	00832025 	or	a0,a0,v1
7f00de60:	7c8306c0 	ext	v1,a0,0x1b,0x1
7f00de64:	1060ffdd 	beqz	v1,7f00dddc <__mulsf3+0x144>
7f00de68:	2443007f 	addiu	v1,v0,127
7f00de6c:	30830001 	andi	v1,a0,0x1
7f00de70:	00042042 	srl	a0,a0,0x1
7f00de74:	24420001 	addiu	v0,v0,1
7f00de78:	0bc03776 	j	7f00ddd8 <__mulsf3+0x140>
7f00de7c:	00642025 	or	a0,v1,a0
7f00de80:	3c04007f 	lui	a0,0x7f
7f00de84:	24080003 	li	t0,3
7f00de88:	24030002 	li	v1,2
7f00de8c:	00003021 	move	a2,zero
7f00de90:	3484ffff 	ori	a0,a0,0xffff
7f00de94:	1503ffcb 	bne	t0,v1,7f00ddc4 <__mulsf3+0x12c>
7f00de98:	00004821 	move	t1,zero
7f00de9c:	00002021 	move	a0,zero
7f00dea0:	00001021 	move	v0,zero
7f00dea4:	240300ff 	li	v1,255
7f00dea8:	7c82b004 	ins	v0,a0,0x0,0x17
7f00deac:	7c62f5c4 	ins	v0,v1,0x17,0x8
7f00deb0:	03e00008 	jr	ra
7f00deb4:	7cc2ffc4 	ins	v0,a2,0x1f,0x1
7f00deb8:	01203021 	move	a2,t1
7f00debc:	0bc0376e 	j	7f00ddb8 <__mulsf3+0x120>
7f00dec0:	01c04021 	move	t0,t6
7f00dec4:	31860001 	andi	a2,t4,0x1
7f00dec8:	00a02021 	move	a0,a1
7f00decc:	0bc0376e 	j	7f00ddb8 <__mulsf3+0x120>
7f00ded0:	01604821 	move	t1,t3
7f00ded4:	01203021 	move	a2,t1
7f00ded8:	0bc0376e 	j	7f00ddb8 <__mulsf3+0x120>
7f00dedc:	00a02021 	move	a0,a1
7f00dee0:	00a42825 	or	a1,a1,a0
7f00dee4:	3c020040 	lui	v0,0x40
7f00dee8:	00a22824 	and	a1,a1,v0
7f00deec:	54a0001b 	bnezl	a1,7f00df5c <__mulsf3+0x2c4>
7f00def0:	3c04007f 	lui	a0,0x7f
7f00def4:	00822025 	or	a0,a0,v0
7f00def8:	01404821 	move	t1,t2
7f00defc:	7c84b000 	ext	a0,a0,0x0,0x17
7f00df00:	00001021 	move	v0,zero
7f00df04:	240300ff 	li	v1,255
7f00df08:	7c82b004 	ins	v0,a0,0x0,0x17
7f00df0c:	01203021 	move	a2,t1
7f00df10:	7c62f5c4 	ins	v0,v1,0x17,0x8
7f00df14:	03e00008 	jr	ra
7f00df18:	7cc2ffc4 	ins	v0,a2,0x1f,0x1
7f00df1c:	24020001 	li	v0,1
7f00df20:	00431823 	subu	v1,v0,v1
7f00df24:	2862001c 	slti	v0,v1,28
7f00df28:	54400012 	bnezl	v0,7f00df74 <__mulsf3+0x2dc>
7f00df2c:	00031023 	negu	v0,v1
7f00df30:	01203021 	move	a2,t1
7f00df34:	00002021 	move	a0,zero
7f00df38:	00001021 	move	v0,zero
7f00df3c:	00001821 	move	v1,zero
7f00df40:	7c82b004 	ins	v0,a0,0x0,0x17
7f00df44:	7c62f5c4 	ins	v0,v1,0x17,0x8
7f00df48:	03e00008 	jr	ra
7f00df4c:	7cc2ffc4 	ins	v0,a2,0x1f,0x1
7f00df50:	306300ff 	andi	v1,v1,0xff
7f00df54:	0bc03789 	j	7f00de24 <__mulsf3+0x18c>
7f00df58:	01203021 	move	a2,t1
7f00df5c:	3484ffff 	ori	a0,a0,0xffff
7f00df60:	0bc037bf 	j	7f00defc <__mulsf3+0x264>
7f00df64:	00004821 	move	t1,zero
7f00df68:	3c050040 	lui	a1,0x40
7f00df6c:	0bc037bf 	j	7f00defc <__mulsf3+0x264>
7f00df70:	00852025 	or	a0,a0,a1
7f00df74:	00441004 	sllv	v0,a0,v0
7f00df78:	00641806 	srlv	v1,a0,v1
7f00df7c:	0002202b 	sltu	a0,zero,v0
7f00df80:	00832025 	or	a0,a0,v1
7f00df84:	3083000f 	andi	v1,a0,0xf
7f00df88:	24820004 	addiu	v0,a0,4
7f00df8c:	38630004 	xori	v1,v1,0x4
7f00df90:	0043200b 	movn	a0,v0,v1
7f00df94:	7c820680 	ext	v0,a0,0x1a,0x1
7f00df98:	50400005 	beqzl	v0,7f00dfb0 <__mulsf3+0x318>
7f00df9c:	7c84b0c0 	ext	a0,a0,0x3,0x17
7f00dfa0:	01203021 	move	a2,t1
7f00dfa4:	24030001 	li	v1,1
7f00dfa8:	0bc03789 	j	7f00de24 <__mulsf3+0x18c>
7f00dfac:	00002021 	move	a0,zero
7f00dfb0:	01203021 	move	a2,t1
7f00dfb4:	0bc03789 	j	7f00de24 <__mulsf3+0x18c>
7f00dfb8:	00001821 	move	v1,zero

7f00dfbc <__subsf3>:
7f00dfbc:	7c89b000 	ext	t1,a0,0x0,0x17
7f00dfc0:	7c8607c0 	ext	a2,a0,0x1f,0x1
7f00dfc4:	7ca7b000 	ext	a3,a1,0x0,0x17
7f00dfc8:	7ca33dc0 	ext	v1,a1,0x17,0x8
7f00dfcc:	240200ff 	li	v0,255
7f00dfd0:	7c843dc0 	ext	a0,a0,0x17,0x8
7f00dfd4:	30c800ff 	andi	t0,a2,0xff
7f00dfd8:	000948c0 	sll	t1,t1,0x3
7f00dfdc:	00052fc2 	srl	a1,a1,0x1f
7f00dfe0:	10620029 	beq	v1,v0,7f00e088 <__subsf3+0xcc>
7f00dfe4:	000738c0 	sll	a3,a3,0x3
7f00dfe8:	38a50001 	xori	a1,a1,0x1
7f00dfec:	5105004b 	beql	t0,a1,7f00e11c <__subsf3+0x160>
7f00dff0:	00832823 	subu	a1,a0,v1
7f00dff4:	00833023 	subu	a2,a0,v1
7f00dff8:	18c0008a 	blez	a2,7f00e224 <__subsf3+0x268>
7f00dffc:	00000000 	nop
7f00e000:	14600025 	bnez	v1,7f00e098 <__subsf3+0xdc>
7f00e004:	240200ff 	li	v0,255
7f00e008:	14e00060 	bnez	a3,7f00e18c <__subsf3+0x1d0>
7f00e00c:	24c6ffff 	addiu	a2,a2,-1
7f00e010:	24860001 	addiu	a2,a0,1
7f00e014:	312a000f 	andi	t2,t1,0xf
7f00e018:	01201021 	move	v0,t1
7f00e01c:	00801821 	move	v1,a0
7f00e020:	24040004 	li	a0,4
7f00e024:	11440003 	beq	t2,a0,7f00e034 <__subsf3+0x78>
7f00e028:	31080001 	andi	t0,t0,0x1
7f00e02c:	24420004 	addiu	v0,v0,4
7f00e030:	24660001 	addiu	a2,v1,1
7f00e034:	7c440680 	ext	a0,v0,0x1a,0x1
7f00e038:	50800009 	beqzl	a0,7f00e060 <__subsf3+0xa4>
7f00e03c:	30c600ff 	andi	a2,a2,0xff
7f00e040:	240300ff 	li	v1,255
7f00e044:	10c30083 	beq	a2,v1,7f00e254 <__subsf3+0x298>
7f00e048:	3c04fbff 	lui	a0,0xfbff
7f00e04c:	3484ffff 	ori	a0,a0,0xffff
7f00e050:	00c01821 	move	v1,a2
7f00e054:	00441024 	and	v0,v0,a0
7f00e058:	24c60001 	addiu	a2,a2,1
7f00e05c:	30c600ff 	andi	a2,a2,0xff
7f00e060:	28c60002 	slti	a2,a2,2
7f00e064:	14c00062 	bnez	a2,7f00e1f0 <__subsf3+0x234>
7f00e068:	000210c2 	srl	v0,v0,0x3
7f00e06c:	7c44b000 	ext	a0,v0,0x0,0x17
7f00e070:	306300ff 	andi	v1,v1,0xff
7f00e074:	00001021 	move	v0,zero
7f00e078:	7c82b004 	ins	v0,a0,0x0,0x17
7f00e07c:	7c62f5c4 	ins	v0,v1,0x17,0x8
7f00e080:	03e00008 	jr	ra
7f00e084:	7d02ffc4 	ins	v0,t0,0x1f,0x1
7f00e088:	50e0ffd8 	beqzl	a3,7f00dfec <__subsf3+0x30>
7f00e08c:	38a50001 	xori	a1,a1,0x1
7f00e090:	0bc037fb 	j	7f00dfec <__subsf3+0x30>
7f00e094:	00000000 	nop
7f00e098:	10820051 	beq	a0,v0,7f00e1e0 <__subsf3+0x224>
7f00e09c:	312a000f 	andi	t2,t1,0xf
7f00e0a0:	3c020400 	lui	v0,0x400
7f00e0a4:	00e23825 	or	a3,a3,v0
7f00e0a8:	28c3001c 	slti	v1,a2,28
7f00e0ac:	10600006 	beqz	v1,7f00e0c8 <__subsf3+0x10c>
7f00e0b0:	24020001 	li	v0,1
7f00e0b4:	00061023 	negu	v0,a2
7f00e0b8:	00471004 	sllv	v0,a3,v0
7f00e0bc:	0002102b 	sltu	v0,zero,v0
7f00e0c0:	00c73806 	srlv	a3,a3,a2
7f00e0c4:	00471025 	or	v0,v0,a3
7f00e0c8:	01221023 	subu	v0,t1,v0
7f00e0cc:	00801821 	move	v1,a0
7f00e0d0:	7c440680 	ext	a0,v0,0x1a,0x1
7f00e0d4:	10800034 	beqz	a0,7f00e1a8 <__subsf3+0x1ec>
7f00e0d8:	7c4ac800 	ext	t2,v0,0x0,0x1a
7f00e0dc:	71442020 	clz	a0,t2
7f00e0e0:	2484fffb 	addiu	a0,a0,-5
7f00e0e4:	0083102a 	slt	v0,a0,v1
7f00e0e8:	14400061 	bnez	v0,7f00e270 <__subsf3+0x2b4>
7f00e0ec:	008a5004 	sllv	t2,t2,a0
7f00e0f0:	00831823 	subu	v1,a0,v1
7f00e0f4:	24630001 	addiu	v1,v1,1
7f00e0f8:	00031023 	negu	v0,v1
7f00e0fc:	004a1004 	sllv	v0,t2,v0
7f00e100:	0002102b 	sltu	v0,zero,v0
7f00e104:	006a5006 	srlv	t2,t2,v1
7f00e108:	004a1025 	or	v0,v0,t2
7f00e10c:	304a000f 	andi	t2,v0,0xf
7f00e110:	24060001 	li	a2,1
7f00e114:	0bc03808 	j	7f00e020 <__subsf3+0x64>
7f00e118:	00001821 	move	v1,zero
7f00e11c:	18a0005b 	blez	a1,7f00e28c <__subsf3+0x2d0>
7f00e120:	00000000 	nop
7f00e124:	10600023 	beqz	v1,7f00e1b4 <__subsf3+0x1f8>
7f00e128:	240200ff 	li	v0,255
7f00e12c:	1082002c 	beq	a0,v0,7f00e1e0 <__subsf3+0x224>
7f00e130:	312a000f 	andi	t2,t1,0xf
7f00e134:	3c020400 	lui	v0,0x400
7f00e138:	00e23825 	or	a3,a3,v0
7f00e13c:	28a3001c 	slti	v1,a1,28
7f00e140:	1460007b 	bnez	v1,7f00e330 <__subsf3+0x374>
7f00e144:	24020001 	li	v0,1
7f00e148:	00491021 	addu	v0,v0,t1
7f00e14c:	00801821 	move	v1,a0
7f00e150:	7c440680 	ext	a0,v0,0x1a,0x1
7f00e154:	50800015 	beqzl	a0,7f00e1ac <__subsf3+0x1f0>
7f00e158:	24660001 	addiu	a2,v1,1
7f00e15c:	24630001 	addiu	v1,v1,1
7f00e160:	240400ff 	li	a0,255
7f00e164:	10640083 	beq	v1,a0,7f00e374 <__subsf3+0x3b8>
7f00e168:	3c04fbff 	lui	a0,0xfbff
7f00e16c:	3484ffff 	ori	a0,a0,0xffff
7f00e170:	00442024 	and	a0,v0,a0
7f00e174:	00042042 	srl	a0,a0,0x1
7f00e178:	30420001 	andi	v0,v0,0x1
7f00e17c:	00441025 	or	v0,v0,a0
7f00e180:	24660001 	addiu	a2,v1,1
7f00e184:	0bc03808 	j	7f00e020 <__subsf3+0x64>
7f00e188:	304a000f 	andi	t2,v0,0xf
7f00e18c:	14c00011 	bnez	a2,7f00e1d4 <__subsf3+0x218>
7f00e190:	240200ff 	li	v0,255
7f00e194:	01271023 	subu	v0,t1,a3
7f00e198:	00801821 	move	v1,a0
7f00e19c:	7c440680 	ext	a0,v0,0x1a,0x1
7f00e1a0:	1480ffce 	bnez	a0,7f00e0dc <__subsf3+0x120>
7f00e1a4:	7c4ac800 	ext	t2,v0,0x0,0x1a
7f00e1a8:	24660001 	addiu	a2,v1,1
7f00e1ac:	0bc03808 	j	7f00e020 <__subsf3+0x64>
7f00e1b0:	304a000f 	andi	t2,v0,0xf
7f00e1b4:	50e0ff97 	beqzl	a3,7f00e014 <__subsf3+0x58>
7f00e1b8:	24860001 	addiu	a2,a0,1
7f00e1bc:	24a5ffff 	addiu	a1,a1,-1
7f00e1c0:	54a00068 	bnezl	a1,7f00e364 <__subsf3+0x3a8>
7f00e1c4:	240200ff 	li	v0,255
7f00e1c8:	00e91021 	addu	v0,a3,t1
7f00e1cc:	0bc03854 	j	7f00e150 <__subsf3+0x194>
7f00e1d0:	00801821 	move	v1,a0
7f00e1d4:	5482ffb5 	bnel	a0,v0,7f00e0ac <__subsf3+0xf0>
7f00e1d8:	28c3001c 	slti	v1,a2,28
7f00e1dc:	312a000f 	andi	t2,t1,0xf
7f00e1e0:	01201021 	move	v0,t1
7f00e1e4:	24060100 	li	a2,256
7f00e1e8:	0bc03808 	j	7f00e020 <__subsf3+0x64>
7f00e1ec:	240300ff 	li	v1,255
7f00e1f0:	504000e2 	beqzl	v0,7f00e57c <__subsf3+0x5c0>
7f00e1f4:	306300ff 	andi	v1,v1,0xff
7f00e1f8:	1060ff9e 	beqz	v1,7f00e074 <__subsf3+0xb8>
7f00e1fc:	7c44b000 	ext	a0,v0,0x0,0x17
7f00e200:	3c040040 	lui	a0,0x40
7f00e204:	00442025 	or	a0,v0,a0
7f00e208:	7c84b000 	ext	a0,a0,0x0,0x17
7f00e20c:	00001021 	move	v0,zero
7f00e210:	306300ff 	andi	v1,v1,0xff
7f00e214:	7c82b004 	ins	v0,a0,0x0,0x17
7f00e218:	7c62f5c4 	ins	v0,v1,0x17,0x8
7f00e21c:	03e00008 	jr	ra
7f00e220:	7d02ffc4 	ins	v0,t0,0x1f,0x1
7f00e224:	14c00029 	bnez	a2,7f00e2cc <__subsf3+0x310>
7f00e228:	24820001 	addiu	v0,a0,1
7f00e22c:	304200ff 	andi	v0,v0,0xff
7f00e230:	28420002 	slti	v0,v0,2
7f00e234:	1440005b 	bnez	v0,7f00e3a4 <__subsf3+0x3e8>
7f00e238:	01275023 	subu	t2,t1,a3
7f00e23c:	7d420680 	ext	v0,t2,0x1a,0x1
7f00e240:	10400034 	beqz	v0,7f00e314 <__subsf3+0x358>
7f00e244:	00801821 	move	v1,a0
7f00e248:	00e95023 	subu	t2,a3,t1
7f00e24c:	0bc03837 	j	7f00e0dc <__subsf3+0x120>
7f00e250:	00a04021 	move	t0,a1
7f00e254:	00002021 	move	a0,zero
7f00e258:	00001021 	move	v0,zero
7f00e25c:	240300ff 	li	v1,255
7f00e260:	7c82b004 	ins	v0,a0,0x0,0x17
7f00e264:	7c62f5c4 	ins	v0,v1,0x17,0x8
7f00e268:	03e00008 	jr	ra
7f00e26c:	7d02ffc4 	ins	v0,t0,0x1f,0x1
7f00e270:	3c02fbff 	lui	v0,0xfbff
7f00e274:	00641823 	subu	v1,v1,a0
7f00e278:	3442ffff 	ori	v0,v0,0xffff
7f00e27c:	01421024 	and	v0,t2,v0
7f00e280:	24660001 	addiu	a2,v1,1
7f00e284:	0bc03808 	j	7f00e020 <__subsf3+0x64>
7f00e288:	314a000f 	andi	t2,t2,0xf
7f00e28c:	14a00051 	bnez	a1,7f00e3d4 <__subsf3+0x418>
7f00e290:	00000000 	nop
7f00e294:	24830001 	addiu	v1,a0,1
7f00e298:	306200ff 	andi	v0,v1,0xff
7f00e29c:	28420002 	slti	v0,v0,2
7f00e2a0:	14400038 	bnez	v0,7f00e384 <__subsf3+0x3c8>
7f00e2a4:	240200ff 	li	v0,255
7f00e2a8:	50620033 	beql	v1,v0,7f00e378 <__subsf3+0x3bc>
7f00e2ac:	30c80001 	andi	t0,a2,0x1
7f00e2b0:	00e93821 	addu	a3,a3,t1
7f00e2b4:	30e20001 	andi	v0,a3,0x1
7f00e2b8:	00073842 	srl	a3,a3,0x1
7f00e2bc:	00471025 	or	v0,v0,a3
7f00e2c0:	24860002 	addiu	a2,a0,2
7f00e2c4:	0bc03808 	j	7f00e020 <__subsf3+0x64>
7f00e2c8:	304a000f 	andi	t2,v0,0xf
7f00e2cc:	1080001e 	beqz	a0,7f00e348 <__subsf3+0x38c>
7f00e2d0:	00063023 	negu	a2,a2
7f00e2d4:	240200ff 	li	v0,255
7f00e2d8:	10620053 	beq	v1,v0,7f00e428 <__subsf3+0x46c>
7f00e2dc:	30ea000f 	andi	t2,a3,0xf
7f00e2e0:	3c020400 	lui	v0,0x400
7f00e2e4:	01224825 	or	t1,t1,v0
7f00e2e8:	28c4001c 	slti	a0,a2,28
7f00e2ec:	10800006 	beqz	a0,7f00e308 <__subsf3+0x34c>
7f00e2f0:	24020001 	li	v0,1
7f00e2f4:	00061023 	negu	v0,a2
7f00e2f8:	00491004 	sllv	v0,t1,v0
7f00e2fc:	00c93006 	srlv	a2,t1,a2
7f00e300:	0002102b 	sltu	v0,zero,v0
7f00e304:	00461025 	or	v0,v0,a2
7f00e308:	00e21023 	subu	v0,a3,v0
7f00e30c:	0bc03867 	j	7f00e19c <__subsf3+0x1e0>
7f00e310:	00a04021 	move	t0,a1
7f00e314:	1540ff72 	bnez	t2,7f00e0e0 <__subsf3+0x124>
7f00e318:	71442020 	clz	a0,t2
7f00e31c:	00004021 	move	t0,zero
7f00e320:	24060001 	li	a2,1
7f00e324:	24020004 	li	v0,4
7f00e328:	0bc0380d 	j	7f00e034 <__subsf3+0x78>
7f00e32c:	00001821 	move	v1,zero
7f00e330:	00051023 	negu	v0,a1
7f00e334:	00471004 	sllv	v0,a3,v0
7f00e338:	0002102b 	sltu	v0,zero,v0
7f00e33c:	00a73806 	srlv	a3,a3,a1
7f00e340:	0bc03852 	j	7f00e148 <__subsf3+0x18c>
7f00e344:	00471025 	or	v0,v0,a3
7f00e348:	55200049 	bnezl	t1,7f00e470 <__subsf3+0x4b4>
7f00e34c:	24c6ffff 	addiu	a2,a2,-1
7f00e350:	24660001 	addiu	a2,v1,1
7f00e354:	30ea000f 	andi	t2,a3,0xf
7f00e358:	00e01021 	move	v0,a3
7f00e35c:	0bc03808 	j	7f00e020 <__subsf3+0x64>
7f00e360:	00a04021 	move	t0,a1
7f00e364:	5482ff76 	bnel	a0,v0,7f00e140 <__subsf3+0x184>
7f00e368:	28a3001c 	slti	v1,a1,28
7f00e36c:	0bc03878 	j	7f00e1e0 <__subsf3+0x224>
7f00e370:	312a000f 	andi	t2,t1,0xf
7f00e374:	30c80001 	andi	t0,a2,0x1
7f00e378:	24020004 	li	v0,4
7f00e37c:	0bc0380d 	j	7f00e034 <__subsf3+0x78>
7f00e380:	24060100 	li	a2,256
7f00e384:	14800059 	bnez	a0,7f00e4ec <__subsf3+0x530>
7f00e388:	00000000 	nop
7f00e38c:	15200068 	bnez	t1,7f00e530 <__subsf3+0x574>
7f00e390:	30ea000f 	andi	t2,a3,0xf
7f00e394:	00e01021 	move	v0,a3
7f00e398:	24060001 	li	a2,1
7f00e39c:	0bc03808 	j	7f00e020 <__subsf3+0x64>
7f00e3a0:	00001821 	move	v1,zero
7f00e3a4:	14800013 	bnez	a0,7f00e3f4 <__subsf3+0x438>
7f00e3a8:	00000000 	nop
7f00e3ac:	15200044 	bnez	t1,7f00e4c0 <__subsf3+0x504>
7f00e3b0:	00000000 	nop
7f00e3b4:	50e0ffda 	beqzl	a3,7f00e320 <__subsf3+0x364>
7f00e3b8:	00004021 	move	t0,zero
7f00e3bc:	30ea000f 	andi	t2,a3,0xf
7f00e3c0:	00e01021 	move	v0,a3
7f00e3c4:	00a04021 	move	t0,a1
7f00e3c8:	24060001 	li	a2,1
7f00e3cc:	0bc03808 	j	7f00e020 <__subsf3+0x64>
7f00e3d0:	00001821 	move	v1,zero
7f00e3d4:	1480002b 	bnez	a0,7f00e484 <__subsf3+0x4c8>
7f00e3d8:	00052823 	negu	a1,a1
7f00e3dc:	5520004d 	bnezl	t1,7f00e514 <__subsf3+0x558>
7f00e3e0:	24a5ffff 	addiu	a1,a1,-1
7f00e3e4:	24660001 	addiu	a2,v1,1
7f00e3e8:	30ea000f 	andi	t2,a3,0xf
7f00e3ec:	0bc03808 	j	7f00e020 <__subsf3+0x64>
7f00e3f0:	00e01021 	move	v0,a3
7f00e3f4:	15200011 	bnez	t1,7f00e43c <__subsf3+0x480>
7f00e3f8:	00000000 	nop
7f00e3fc:	14e0000a 	bnez	a3,7f00e428 <__subsf3+0x46c>
7f00e400:	30ea000f 	andi	t2,a3,0xf
7f00e404:	3c0203ff 	lui	v0,0x3ff
7f00e408:	00004021 	move	t0,zero
7f00e40c:	24060100 	li	a2,256
7f00e410:	3442fffc 	ori	v0,v0,0xfffc
7f00e414:	0bc0380d 	j	7f00e034 <__subsf3+0x78>
7f00e418:	240300ff 	li	v1,255
7f00e41c:	1462ffb3 	bne	v1,v0,7f00e2ec <__subsf3+0x330>
7f00e420:	28c4001c 	slti	a0,a2,28
7f00e424:	30ea000f 	andi	t2,a3,0xf
7f00e428:	00e01021 	move	v0,a3
7f00e42c:	00a04021 	move	t0,a1
7f00e430:	24060100 	li	a2,256
7f00e434:	0bc03808 	j	7f00e020 <__subsf3+0x64>
7f00e438:	240300ff 	li	v1,255
7f00e43c:	10e0ff68 	beqz	a3,7f00e1e0 <__subsf3+0x224>
7f00e440:	312a000f 	andi	t2,t1,0xf
7f00e444:	000910c2 	srl	v0,t1,0x3
7f00e448:	000718c2 	srl	v1,a3,0x3
7f00e44c:	00621825 	or	v1,v1,v0
7f00e450:	7c630580 	ext	v1,v1,0x16,0x1
7f00e454:	54600043 	bnezl	v1,7f00e564 <__subsf3+0x5a8>
7f00e458:	3c0203ff 	lui	v0,0x3ff
7f00e45c:	000210c0 	sll	v0,v0,0x3
7f00e460:	304a000f 	andi	t2,v0,0xf
7f00e464:	24060100 	li	a2,256
7f00e468:	0bc03808 	j	7f00e020 <__subsf3+0x64>
7f00e46c:	240300ff 	li	v1,255
7f00e470:	54c0ffea 	bnezl	a2,7f00e41c <__subsf3+0x460>
7f00e474:	240200ff 	li	v0,255
7f00e478:	00e91023 	subu	v0,a3,t1
7f00e47c:	0bc03867 	j	7f00e19c <__subsf3+0x1e0>
7f00e480:	00a04021 	move	t0,a1
7f00e484:	240200ff 	li	v0,255
7f00e488:	1062001a 	beq	v1,v0,7f00e4f4 <__subsf3+0x538>
7f00e48c:	30ea000f 	andi	t2,a3,0xf
7f00e490:	3c020400 	lui	v0,0x400
7f00e494:	01224825 	or	t1,t1,v0
7f00e498:	28a4001c 	slti	a0,a1,28
7f00e49c:	10800006 	beqz	a0,7f00e4b8 <__subsf3+0x4fc>
7f00e4a0:	24020001 	li	v0,1
7f00e4a4:	00051023 	negu	v0,a1
7f00e4a8:	00491004 	sllv	v0,t1,v0
7f00e4ac:	00a92806 	srlv	a1,t1,a1
7f00e4b0:	0002102b 	sltu	v0,zero,v0
7f00e4b4:	00451025 	or	v0,v0,a1
7f00e4b8:	0bc03854 	j	7f00e150 <__subsf3+0x194>
7f00e4bc:	00471021 	addu	v0,v0,a3
7f00e4c0:	10e00010 	beqz	a3,7f00e504 <__subsf3+0x548>
7f00e4c4:	312a000f 	andi	t2,t1,0xf
7f00e4c8:	01271023 	subu	v0,t1,a3
7f00e4cc:	7c430680 	ext	v1,v0,0x1a,0x1
7f00e4d0:	1060002c 	beqz	v1,7f00e584 <__subsf3+0x5c8>
7f00e4d4:	24060001 	li	a2,1
7f00e4d8:	00e91023 	subu	v0,a3,t1
7f00e4dc:	304a000f 	andi	t2,v0,0xf
7f00e4e0:	00a04021 	move	t0,a1
7f00e4e4:	0bc03808 	j	7f00e020 <__subsf3+0x64>
7f00e4e8:	00001821 	move	v1,zero
7f00e4ec:	1520ffd3 	bnez	t1,7f00e43c <__subsf3+0x480>
7f00e4f0:	30ea000f 	andi	t2,a3,0xf
7f00e4f4:	00e01021 	move	v0,a3
7f00e4f8:	24060100 	li	a2,256
7f00e4fc:	0bc03808 	j	7f00e020 <__subsf3+0x64>
7f00e500:	240300ff 	li	v1,255
7f00e504:	01201021 	move	v0,t1
7f00e508:	24060001 	li	a2,1
7f00e50c:	0bc03808 	j	7f00e020 <__subsf3+0x64>
7f00e510:	00001821 	move	v1,zero
7f00e514:	10a0ff0e 	beqz	a1,7f00e150 <__subsf3+0x194>
7f00e518:	00e91021 	addu	v0,a3,t1
7f00e51c:	240200ff 	li	v0,255
7f00e520:	1462ffde 	bne	v1,v0,7f00e49c <__subsf3+0x4e0>
7f00e524:	28a4001c 	slti	a0,a1,28
7f00e528:	0bc0393d 	j	7f00e4f4 <__subsf3+0x538>
7f00e52c:	30ea000f 	andi	t2,a3,0xf
7f00e530:	10e0fff4 	beqz	a3,7f00e504 <__subsf3+0x548>
7f00e534:	312a000f 	andi	t2,t1,0xf
7f00e538:	00e91021 	addu	v0,a3,t1
7f00e53c:	7c430680 	ext	v1,v0,0x1a,0x1
7f00e540:	50600014 	beqzl	v1,7f00e594 <__subsf3+0x5d8>
7f00e544:	304a000f 	andi	t2,v0,0xf
7f00e548:	3c03fbff 	lui	v1,0xfbff
7f00e54c:	3463ffff 	ori	v1,v1,0xffff
7f00e550:	00431024 	and	v0,v0,v1
7f00e554:	304a000f 	andi	t2,v0,0xf
7f00e558:	24060002 	li	a2,2
7f00e55c:	0bc03808 	j	7f00e020 <__subsf3+0x64>
7f00e560:	24030001 	li	v1,1
7f00e564:	240a0008 	li	t2,8
7f00e568:	3442fff8 	ori	v0,v0,0xfff8
7f00e56c:	00004021 	move	t0,zero
7f00e570:	24060100 	li	a2,256
7f00e574:	0bc03808 	j	7f00e020 <__subsf3+0x64>
7f00e578:	240300ff 	li	v1,255
7f00e57c:	0bc0381d 	j	7f00e074 <__subsf3+0xb8>
7f00e580:	00002021 	move	a0,zero
7f00e584:	5040ff66 	beqzl	v0,7f00e320 <__subsf3+0x364>
7f00e588:	00004021 	move	t0,zero
7f00e58c:	0bc03844 	j	7f00e110 <__subsf3+0x154>
7f00e590:	304a000f 	andi	t2,v0,0xf
7f00e594:	0bc03808 	j	7f00e020 <__subsf3+0x64>
7f00e598:	24060001 	li	a2,1

7f00e59c <__unordsf2>:
7f00e59c:	7c863dc0 	ext	a2,a0,0x17,0x8
7f00e5a0:	240300ff 	li	v1,255
7f00e5a4:	7ca7b000 	ext	a3,a1,0x0,0x17
7f00e5a8:	7c84b000 	ext	a0,a0,0x0,0x17
7f00e5ac:	10c30006 	beq	a2,v1,7f00e5c8 <__unordsf2+0x2c>
7f00e5b0:	7ca53dc0 	ext	a1,a1,0x17,0x8
7f00e5b4:	0007382b 	sltu	a3,zero,a3
7f00e5b8:	38a500ff 	xori	a1,a1,0xff
7f00e5bc:	00001021 	move	v0,zero
7f00e5c0:	03e00008 	jr	ra
7f00e5c4:	00e5100a 	movz	v0,a3,a1
7f00e5c8:	1080fffa 	beqz	a0,7f00e5b4 <__unordsf2+0x18>
7f00e5cc:	24020001 	li	v0,1
7f00e5d0:	03e00008 	jr	ra
7f00e5d4:	00000000 	nop

7f00e5d8 <__fixsfsi>:
7f00e5d8:	7c833dc0 	ext	v1,a0,0x17,0x8
7f00e5dc:	2865007f 	slti	a1,v1,127
7f00e5e0:	7c86b000 	ext	a2,a0,0x0,0x17
7f00e5e4:	00001021 	move	v0,zero
7f00e5e8:	14a0000b 	bnez	a1,7f00e618 <__fixsfsi+0x40>
7f00e5ec:	000427c2 	srl	a0,a0,0x1f
7f00e5f0:	2862009e 	slti	v0,v1,158
7f00e5f4:	1040000a 	beqz	v0,7f00e620 <__fixsfsi+0x48>
7f00e5f8:	28650096 	slti	a1,v1,150
7f00e5fc:	3c020080 	lui	v0,0x80
7f00e600:	14a0000b 	bnez	a1,7f00e630 <__fixsfsi+0x58>
7f00e604:	00c23025 	or	a2,a2,v0
7f00e608:	2463ff6a 	addiu	v1,v1,-150
7f00e60c:	00663004 	sllv	a2,a2,v1
7f00e610:	00061023 	negu	v0,a2
7f00e614:	00c4100a 	movz	v0,a2,a0
7f00e618:	03e00008 	jr	ra
7f00e61c:	00000000 	nop
7f00e620:	3c027fff 	lui	v0,0x7fff
7f00e624:	3442ffff 	ori	v0,v0,0xffff
7f00e628:	03e00008 	jr	ra
7f00e62c:	00821021 	addu	v0,a0,v0
7f00e630:	24020096 	li	v0,150
7f00e634:	00431823 	subu	v1,v0,v1
7f00e638:	00663006 	srlv	a2,a2,v1
7f00e63c:	00061023 	negu	v0,a2
7f00e640:	03e00008 	jr	ra
7f00e644:	00c4100a 	movz	v0,a2,a0

7f00e648 <__floatsisf>:
7f00e648:	1080003d 	beqz	a0,7f00e740 <__floatsisf+0xf8>
7f00e64c:	000437c2 	srl	a2,a0,0x1f
7f00e650:	00041023 	negu	v0,a0
7f00e654:	0046200b 	movn	a0,v0,a2
7f00e658:	2403009e 	li	v1,158
7f00e65c:	70821020 	clz	v0,a0
7f00e660:	00621023 	subu	v0,v1,v0
7f00e664:	28430097 	slti	v1,v0,151
7f00e668:	1060000c 	beqz	v1,7f00e69c <__floatsisf+0x54>
7f00e66c:	2843009a 	slti	v1,v0,154
7f00e670:	24030096 	li	v1,150
7f00e674:	00621823 	subu	v1,v1,v0
7f00e678:	00642004 	sllv	a0,a0,v1
7f00e67c:	7c84b000 	ext	a0,a0,0x0,0x17
7f00e680:	304500ff 	andi	a1,v0,0xff
7f00e684:	00c01821 	move	v1,a2
7f00e688:	00001021 	move	v0,zero
7f00e68c:	7c82b004 	ins	v0,a0,0x0,0x17
7f00e690:	7ca2f5c4 	ins	v0,a1,0x17,0x8
7f00e694:	03e00008 	jr	ra
7f00e698:	7c62ffc4 	ins	v0,v1,0x1f,0x1
7f00e69c:	14600009 	bnez	v1,7f00e6c4 <__floatsisf+0x7c>
7f00e6a0:	24030099 	li	v1,153
7f00e6a4:	240300b9 	li	v1,185
7f00e6a8:	00621823 	subu	v1,v1,v0
7f00e6ac:	00641804 	sllv	v1,a0,v1
7f00e6b0:	2445ff67 	addiu	a1,v0,-153
7f00e6b4:	00a42006 	srlv	a0,a0,a1
7f00e6b8:	0003182b 	sltu	v1,zero,v1
7f00e6bc:	00642025 	or	a0,v1,a0
7f00e6c0:	24030099 	li	v1,153
7f00e6c4:	00621823 	subu	v1,v1,v0
7f00e6c8:	00642804 	sllv	a1,a0,v1
7f00e6cc:	0003182a 	slt	v1,zero,v1
7f00e6d0:	00a3200b 	movn	a0,a1,v1
7f00e6d4:	3c05fbff 	lui	a1,0xfbff
7f00e6d8:	34a5ffff 	ori	a1,a1,0xffff
7f00e6dc:	00851824 	and	v1,a0,a1
7f00e6e0:	3084000f 	andi	a0,a0,0xf
7f00e6e4:	38840004 	xori	a0,a0,0x4
7f00e6e8:	24670004 	addiu	a3,v1,4
7f00e6ec:	00e4180b 	movn	v1,a3,a0
7f00e6f0:	7c640680 	ext	a0,v1,0x1a,0x1
7f00e6f4:	10800006 	beqz	a0,7f00e710 <__floatsisf+0xc8>
7f00e6f8:	24440001 	addiu	a0,v0,1
7f00e6fc:	24420001 	addiu	v0,v0,1
7f00e700:	240400ff 	li	a0,255
7f00e704:	1044001d 	beq	v0,a0,7f00e77c <__floatsisf+0x134>
7f00e708:	00651824 	and	v1,v1,a1
7f00e70c:	24440001 	addiu	a0,v0,1
7f00e710:	308400ff 	andi	a0,a0,0xff
7f00e714:	28840002 	slti	a0,a0,2
7f00e718:	14800011 	bnez	a0,7f00e760 <__floatsisf+0x118>
7f00e71c:	000318c2 	srl	v1,v1,0x3
7f00e720:	7c64b000 	ext	a0,v1,0x0,0x17
7f00e724:	304500ff 	andi	a1,v0,0xff
7f00e728:	00001021 	move	v0,zero
7f00e72c:	7c82b004 	ins	v0,a0,0x0,0x17
7f00e730:	00c01821 	move	v1,a2
7f00e734:	7ca2f5c4 	ins	v0,a1,0x17,0x8
7f00e738:	03e00008 	jr	ra
7f00e73c:	7c62ffc4 	ins	v0,v1,0x1f,0x1
7f00e740:	00002021 	move	a0,zero
7f00e744:	00001021 	move	v0,zero
7f00e748:	00002821 	move	a1,zero
7f00e74c:	7c82b004 	ins	v0,a0,0x0,0x17
7f00e750:	00001821 	move	v1,zero
7f00e754:	7ca2f5c4 	ins	v0,a1,0x17,0x8
7f00e758:	03e00008 	jr	ra
7f00e75c:	7c62ffc4 	ins	v0,v1,0x1f,0x1
7f00e760:	1060000a 	beqz	v1,7f00e78c <__floatsisf+0x144>
7f00e764:	304500ff 	andi	a1,v0,0xff
7f00e768:	3c040040 	lui	a0,0x40
7f00e76c:	00642025 	or	a0,v1,a0
7f00e770:	7c84b000 	ext	a0,a0,0x0,0x17
7f00e774:	0bc039a2 	j	7f00e688 <__floatsisf+0x40>
7f00e778:	00c01821 	move	v1,a2
7f00e77c:	00c01821 	move	v1,a2
7f00e780:	240500ff 	li	a1,255
7f00e784:	0bc039a2 	j	7f00e688 <__floatsisf+0x40>
7f00e788:	00002021 	move	a0,zero
7f00e78c:	00c01821 	move	v1,a2
7f00e790:	0bc039a2 	j	7f00e688 <__floatsisf+0x40>
7f00e794:	00002021 	move	a0,zero
